
vote.elf:     file format elf32-avr

Sections:
Idx Name          Size      VMA       LMA       File off  Algn
  0 .text         0000541c  00000000  00000000  00000094  2**1
                  CONTENTS, ALLOC, LOAD, READONLY, CODE
  1 .data         000000d8  00800060  0000541c  000054b0  2**0
                  CONTENTS, ALLOC, LOAD, DATA
  2 .bss          00000004  00800138  00800138  00005588  2**0
                  ALLOC
  3 .stab         00004b9c  00000000  00000000  00005588  2**2
                  CONTENTS, READONLY, DEBUGGING
  4 .stabstr      000012e5  00000000  00000000  0000a124  2**0
                  CONTENTS, READONLY, DEBUGGING
  5 .comment      00000024  00000000  00000000  0000b409  2**0
                  CONTENTS, READONLY
  6 .note.gnu.avr.deviceinfo 0000003c  00000000  00000000  0000b430  2**2
                  CONTENTS, READONLY, OCTETS
  7 .debug_aranges 00000060  00000000  00000000  0000b470  2**3
                  CONTENTS, READONLY, DEBUGGING, OCTETS
  8 .debug_info   00000558  00000000  00000000  0000b4d0  2**0
                  CONTENTS, READONLY, DEBUGGING, OCTETS
  9 .debug_abbrev 000004df  00000000  00000000  0000ba28  2**0
                  CONTENTS, READONLY, DEBUGGING, OCTETS
 10 .debug_line   0000019a  00000000  00000000  0000bf07  2**0
                  CONTENTS, READONLY, DEBUGGING, OCTETS
 11 .debug_str    00000219  00000000  00000000  0000c0a1  2**0
                  CONTENTS, READONLY, DEBUGGING, OCTETS

Disassembly of section .text:

00000000 <__vectors>:
       0:	0c 94 2a 00 	jmp	0x54	; 0x54 <__ctors_end>
       4:	0c 94 47 00 	jmp	0x8e	; 0x8e <__bad_interrupt>
       8:	0c 94 47 00 	jmp	0x8e	; 0x8e <__bad_interrupt>
       c:	0c 94 47 00 	jmp	0x8e	; 0x8e <__bad_interrupt>
      10:	0c 94 47 00 	jmp	0x8e	; 0x8e <__bad_interrupt>
      14:	0c 94 47 00 	jmp	0x8e	; 0x8e <__bad_interrupt>
      18:	0c 94 47 00 	jmp	0x8e	; 0x8e <__bad_interrupt>
      1c:	0c 94 47 00 	jmp	0x8e	; 0x8e <__bad_interrupt>
      20:	0c 94 47 00 	jmp	0x8e	; 0x8e <__bad_interrupt>
      24:	0c 94 47 00 	jmp	0x8e	; 0x8e <__bad_interrupt>
      28:	0c 94 47 00 	jmp	0x8e	; 0x8e <__bad_interrupt>
      2c:	0c 94 47 00 	jmp	0x8e	; 0x8e <__bad_interrupt>
      30:	0c 94 47 00 	jmp	0x8e	; 0x8e <__bad_interrupt>
      34:	0c 94 47 00 	jmp	0x8e	; 0x8e <__bad_interrupt>
      38:	0c 94 47 00 	jmp	0x8e	; 0x8e <__bad_interrupt>
      3c:	0c 94 47 00 	jmp	0x8e	; 0x8e <__bad_interrupt>
      40:	0c 94 47 00 	jmp	0x8e	; 0x8e <__bad_interrupt>
      44:	0c 94 47 00 	jmp	0x8e	; 0x8e <__bad_interrupt>
      48:	0c 94 47 00 	jmp	0x8e	; 0x8e <__bad_interrupt>
      4c:	0c 94 47 00 	jmp	0x8e	; 0x8e <__bad_interrupt>
      50:	0c 94 47 00 	jmp	0x8e	; 0x8e <__bad_interrupt>

00000054 <__ctors_end>:
      54:	11 24       	eor	r1, r1
      56:	1f be       	out	0x3f, r1	; 63
      58:	cf e5       	ldi	r28, 0x5F	; 95
      5a:	d8 e0       	ldi	r29, 0x08	; 8
      5c:	de bf       	out	0x3e, r29	; 62
      5e:	cd bf       	out	0x3d, r28	; 61

00000060 <__do_copy_data>:
      60:	11 e0       	ldi	r17, 0x01	; 1

00000062 <.Loc.1>:
      62:	a0 e6       	ldi	r26, 0x60	; 96

00000064 <.Loc.2>:
      64:	b0 e0       	ldi	r27, 0x00	; 0

00000066 <.Loc.3>:
      66:	ec e1       	ldi	r30, 0x1C	; 28

00000068 <.Loc.4>:
      68:	f4 e5       	ldi	r31, 0x54	; 84

0000006a <.Loc.5>:
      6a:	02 c0       	rjmp	.+4      	; 0x70 <.L__do_copy_data_start>

0000006c <.L__do_copy_data_loop>:
      6c:	05 90       	lpm	r0, Z+

0000006e <.Loc.7>:
      6e:	0d 92       	st	X+, r0

00000070 <.L__do_copy_data_start>:
      70:	a8 33       	cpi	r26, 0x38	; 56

00000072 <.Loc.9>:
      72:	b1 07       	cpc	r27, r17

00000074 <.Loc.10>:
      74:	d9 f7       	brne	.-10     	; 0x6c <.L__do_copy_data_loop>

00000076 <__do_clear_bss>:
      76:	21 e0       	ldi	r18, 0x01	; 1

00000078 <.Loc.1>:
      78:	a8 e3       	ldi	r26, 0x38	; 56

0000007a <.Loc.2>:
      7a:	b1 e0       	ldi	r27, 0x01	; 1

0000007c <.Loc.3>:
      7c:	01 c0       	rjmp	.+2      	; 0x80 <.Loc.5>

0000007e <.Loc.4>:
      7e:	1d 92       	st	X+, r1

00000080 <.Loc.5>:
      80:	ac 33       	cpi	r26, 0x3C	; 60

00000082 <.Loc.6>:
      82:	b2 07       	cpc	r27, r18

00000084 <.Loc.7>:
      84:	e1 f7       	brne	.-8      	; 0x7e <.Loc.4>

00000086 <L0^A>:
      86:	0e 94 34 28 	call	0x5068	; 0x5068 <main>
      8a:	0c 94 0c 2a 	jmp	0x5418	; 0x5418 <_exit>

0000008e <__bad_interrupt>:
      8e:	0c 94 00 00 	jmp	0	; 0x0 <__vectors>

00000092 <GPIO_setupPinDirection>:
      92:	cf 93       	push	r28
      94:	df 93       	push	r29
      96:	00 d0       	rcall	.+0      	; 0x98 <L0^A>

00000098 <L0^A>:
      98:	0f 92       	push	r0
      9a:	cd b7       	in	r28, 0x3d	; 61
      9c:	de b7       	in	r29, 0x3e	; 62
      9e:	89 83       	std	Y+1, r24	; 0x01
      a0:	6a 83       	std	Y+2, r22	; 0x02
      a2:	4b 83       	std	Y+3, r20	; 0x03

000000a4 <.LM1>:
      a4:	8a 81       	ldd	r24, Y+2	; 0x02
      a6:	88 30       	cpi	r24, 0x08	; 8
      a8:	08 f0       	brcs	.+2      	; 0xac <.LM2>

000000aa <L0^A>:
      aa:	db c0       	rjmp	.+438    	; 0x262 <.L13>

000000ac <.LM2>:
      ac:	8b 81       	ldd	r24, Y+3	; 0x03
      ae:	81 30       	cpi	r24, 0x01	; 1
      b0:	09 f0       	breq	.+2      	; 0xb4 <.LM3>

000000b2 <L0^A>:
      b2:	67 c0       	rjmp	.+206    	; 0x182 <.L3>

000000b4 <.LM3>:
      b4:	89 81       	ldd	r24, Y+1	; 0x01
      b6:	88 2f       	mov	r24, r24
      b8:	90 e0       	ldi	r25, 0x00	; 0
      ba:	82 30       	cpi	r24, 0x02	; 2
      bc:	91 05       	cpc	r25, r1
      be:	a9 f1       	breq	.+106    	; 0x12a <.L4>
      c0:	83 30       	cpi	r24, 0x03	; 3
      c2:	91 05       	cpc	r25, r1
      c4:	0c f0       	brlt	.+2      	; 0xc8 <.Lname35+0x1>

000000c6 <L0^A>:
      c6:	47 c0       	rjmp	.+142    	; 0x156 <.L5>
      c8:	00 97       	sbiw	r24, 0x00	; 0
      ca:	19 f0       	breq	.+6      	; 0xd2 <.L6>
      cc:	01 97       	sbiw	r24, 0x01	; 1
      ce:	b9 f0       	breq	.+46     	; 0xfe <.L7>
      d0:	42 c0       	rjmp	.+132    	; 0x156 <.L5>

000000d2 <.L6>:
      d2:	8a e3       	ldi	r24, 0x3A	; 58
      d4:	90 e0       	ldi	r25, 0x00	; 0
      d6:	fc 01       	movw	r30, r24
      d8:	80 81       	ld	r24, Z
      da:	48 2f       	mov	r20, r24

000000dc <.LM5>:
      dc:	8a 81       	ldd	r24, Y+2	; 0x02
      de:	28 2f       	mov	r18, r24
      e0:	30 e0       	ldi	r19, 0x00	; 0
      e2:	81 e0       	ldi	r24, 0x01	; 1
      e4:	90 e0       	ldi	r25, 0x00	; 0
      e6:	02 c0       	rjmp	.+4      	; 0xec <.L2^B1>

000000e8 <.L1^B1>:
      e8:	88 0f       	add	r24, r24
      ea:	99 1f       	adc	r25, r25

000000ec <.L2^B1>:
      ec:	2a 95       	dec	r18
      ee:	e2 f7       	brpl	.-8      	; 0xe8 <.L1^B1>

000000f0 <.LM6>:
      f0:	24 2f       	mov	r18, r20
      f2:	28 2b       	or	r18, r24
      f4:	8a e3       	ldi	r24, 0x3A	; 58
      f6:	90 e0       	ldi	r25, 0x00	; 0
      f8:	fc 01       	movw	r30, r24
      fa:	20 83       	st	Z, r18

000000fc <.LM7>:
      fc:	b2 c0       	rjmp	.+356    	; 0x262 <.L13>

000000fe <.L7>:
      fe:	87 e3       	ldi	r24, 0x37	; 55
     100:	90 e0       	ldi	r25, 0x00	; 0
     102:	fc 01       	movw	r30, r24
     104:	80 81       	ld	r24, Z
     106:	48 2f       	mov	r20, r24

00000108 <.LM9>:
     108:	8a 81       	ldd	r24, Y+2	; 0x02
     10a:	28 2f       	mov	r18, r24
     10c:	30 e0       	ldi	r19, 0x00	; 0
     10e:	81 e0       	ldi	r24, 0x01	; 1
     110:	90 e0       	ldi	r25, 0x00	; 0
     112:	02 c0       	rjmp	.+4      	; 0x118 <.L2^B2>

00000114 <.L1^B2>:
     114:	88 0f       	add	r24, r24
     116:	99 1f       	adc	r25, r25

00000118 <.L2^B2>:
     118:	2a 95       	dec	r18
     11a:	e2 f7       	brpl	.-8      	; 0x114 <.L1^B2>

0000011c <.LM10>:
     11c:	24 2f       	mov	r18, r20
     11e:	28 2b       	or	r18, r24
     120:	87 e3       	ldi	r24, 0x37	; 55
     122:	90 e0       	ldi	r25, 0x00	; 0
     124:	fc 01       	movw	r30, r24
     126:	20 83       	st	Z, r18

00000128 <.LM11>:
     128:	9c c0       	rjmp	.+312    	; 0x262 <.L13>

0000012a <.L4>:
     12a:	84 e3       	ldi	r24, 0x34	; 52
     12c:	90 e0       	ldi	r25, 0x00	; 0
     12e:	fc 01       	movw	r30, r24
     130:	80 81       	ld	r24, Z
     132:	48 2f       	mov	r20, r24

00000134 <.LM13>:
     134:	8a 81       	ldd	r24, Y+2	; 0x02
     136:	28 2f       	mov	r18, r24
     138:	30 e0       	ldi	r19, 0x00	; 0
     13a:	81 e0       	ldi	r24, 0x01	; 1
     13c:	90 e0       	ldi	r25, 0x00	; 0
     13e:	02 c0       	rjmp	.+4      	; 0x144 <.L2^B3>

00000140 <.L1^B3>:
     140:	88 0f       	add	r24, r24
     142:	99 1f       	adc	r25, r25

00000144 <.L2^B3>:
     144:	2a 95       	dec	r18
     146:	e2 f7       	brpl	.-8      	; 0x140 <.L1^B3>

00000148 <.LM14>:
     148:	24 2f       	mov	r18, r20
     14a:	28 2b       	or	r18, r24
     14c:	84 e3       	ldi	r24, 0x34	; 52
     14e:	90 e0       	ldi	r25, 0x00	; 0
     150:	fc 01       	movw	r30, r24
     152:	20 83       	st	Z, r18

00000154 <.LM15>:
     154:	86 c0       	rjmp	.+268    	; 0x262 <.L13>

00000156 <.L5>:
     156:	81 e3       	ldi	r24, 0x31	; 49
     158:	90 e0       	ldi	r25, 0x00	; 0
     15a:	fc 01       	movw	r30, r24
     15c:	80 81       	ld	r24, Z
     15e:	48 2f       	mov	r20, r24

00000160 <.LM17>:
     160:	8a 81       	ldd	r24, Y+2	; 0x02
     162:	28 2f       	mov	r18, r24
     164:	30 e0       	ldi	r19, 0x00	; 0
     166:	81 e0       	ldi	r24, 0x01	; 1
     168:	90 e0       	ldi	r25, 0x00	; 0
     16a:	02 c0       	rjmp	.+4      	; 0x170 <.L2^B4>

0000016c <.L1^B4>:
     16c:	88 0f       	add	r24, r24
     16e:	99 1f       	adc	r25, r25

00000170 <.L2^B4>:
     170:	2a 95       	dec	r18
     172:	e2 f7       	brpl	.-8      	; 0x16c <.L1^B4>

00000174 <.LM18>:
     174:	24 2f       	mov	r18, r20
     176:	28 2b       	or	r18, r24
     178:	81 e3       	ldi	r24, 0x31	; 49
     17a:	90 e0       	ldi	r25, 0x00	; 0
     17c:	fc 01       	movw	r30, r24
     17e:	20 83       	st	Z, r18

00000180 <.LM19>:
     180:	70 c0       	rjmp	.+224    	; 0x262 <.L13>

00000182 <.L3>:
     182:	8b 81       	ldd	r24, Y+3	; 0x03
     184:	88 23       	and	r24, r24
     186:	09 f0       	breq	.+2      	; 0x18a <.LM21>

00000188 <L0^A>:
     188:	6b c0       	rjmp	.+214    	; 0x260 <.L14>

0000018a <.LM21>:
     18a:	89 81       	ldd	r24, Y+1	; 0x01
     18c:	88 2f       	mov	r24, r24
     18e:	90 e0       	ldi	r25, 0x00	; 0
     190:	82 30       	cpi	r24, 0x02	; 2
     192:	91 05       	cpc	r25, r1
     194:	b9 f1       	breq	.+110    	; 0x204 <.L9>
     196:	83 30       	cpi	r24, 0x03	; 3
     198:	91 05       	cpc	r25, r1
     19a:	0c f0       	brlt	.+2      	; 0x19e <L0^A+0x2>

0000019c <L0^A>:
     19c:	4a c0       	rjmp	.+148    	; 0x232 <.L10>
     19e:	00 97       	sbiw	r24, 0x00	; 0
     1a0:	19 f0       	breq	.+6      	; 0x1a8 <.L11>
     1a2:	01 97       	sbiw	r24, 0x01	; 1
     1a4:	c1 f0       	breq	.+48     	; 0x1d6 <.L12>
     1a6:	45 c0       	rjmp	.+138    	; 0x232 <.L10>

000001a8 <.L11>:
     1a8:	8a e3       	ldi	r24, 0x3A	; 58
     1aa:	90 e0       	ldi	r25, 0x00	; 0
     1ac:	fc 01       	movw	r30, r24
     1ae:	80 81       	ld	r24, Z
     1b0:	48 2f       	mov	r20, r24

000001b2 <.LM23>:
     1b2:	8a 81       	ldd	r24, Y+2	; 0x02
     1b4:	28 2f       	mov	r18, r24
     1b6:	30 e0       	ldi	r19, 0x00	; 0
     1b8:	81 e0       	ldi	r24, 0x01	; 1
     1ba:	90 e0       	ldi	r25, 0x00	; 0
     1bc:	02 c0       	rjmp	.+4      	; 0x1c2 <.L2^B5>

000001be <.L1^B5>:
     1be:	88 0f       	add	r24, r24
     1c0:	99 1f       	adc	r25, r25

000001c2 <.L2^B5>:
     1c2:	2a 95       	dec	r18
     1c4:	e2 f7       	brpl	.-8      	; 0x1be <.L1^B5>

000001c6 <.LM24>:
     1c6:	80 95       	com	r24
     1c8:	24 2f       	mov	r18, r20
     1ca:	28 23       	and	r18, r24
     1cc:	8a e3       	ldi	r24, 0x3A	; 58
     1ce:	90 e0       	ldi	r25, 0x00	; 0
     1d0:	fc 01       	movw	r30, r24
     1d2:	20 83       	st	Z, r18

000001d4 <.LM25>:
     1d4:	46 c0       	rjmp	.+140    	; 0x262 <.L13>

000001d6 <.L12>:
     1d6:	87 e3       	ldi	r24, 0x37	; 55
     1d8:	90 e0       	ldi	r25, 0x00	; 0
     1da:	fc 01       	movw	r30, r24
     1dc:	80 81       	ld	r24, Z
     1de:	48 2f       	mov	r20, r24

000001e0 <.LM27>:
     1e0:	8a 81       	ldd	r24, Y+2	; 0x02
     1e2:	28 2f       	mov	r18, r24
     1e4:	30 e0       	ldi	r19, 0x00	; 0
     1e6:	81 e0       	ldi	r24, 0x01	; 1
     1e8:	90 e0       	ldi	r25, 0x00	; 0
     1ea:	02 c0       	rjmp	.+4      	; 0x1f0 <.L2^B6>

000001ec <.L1^B6>:
     1ec:	88 0f       	add	r24, r24
     1ee:	99 1f       	adc	r25, r25

000001f0 <.L2^B6>:
     1f0:	2a 95       	dec	r18
     1f2:	e2 f7       	brpl	.-8      	; 0x1ec <.L1^B6>

000001f4 <.LM28>:
     1f4:	80 95       	com	r24
     1f6:	24 2f       	mov	r18, r20
     1f8:	28 23       	and	r18, r24
     1fa:	87 e3       	ldi	r24, 0x37	; 55
     1fc:	90 e0       	ldi	r25, 0x00	; 0
     1fe:	fc 01       	movw	r30, r24
     200:	20 83       	st	Z, r18

00000202 <.LM29>:
     202:	2f c0       	rjmp	.+94     	; 0x262 <.L13>

00000204 <.L9>:
     204:	84 e3       	ldi	r24, 0x34	; 52
     206:	90 e0       	ldi	r25, 0x00	; 0
     208:	fc 01       	movw	r30, r24
     20a:	80 81       	ld	r24, Z
     20c:	48 2f       	mov	r20, r24

0000020e <.LM31>:
     20e:	8a 81       	ldd	r24, Y+2	; 0x02
     210:	28 2f       	mov	r18, r24
     212:	30 e0       	ldi	r19, 0x00	; 0
     214:	81 e0       	ldi	r24, 0x01	; 1
     216:	90 e0       	ldi	r25, 0x00	; 0
     218:	02 c0       	rjmp	.+4      	; 0x21e <.L2^B7>

0000021a <.L1^B7>:
     21a:	88 0f       	add	r24, r24
     21c:	99 1f       	adc	r25, r25

0000021e <.L2^B7>:
     21e:	2a 95       	dec	r18
     220:	e2 f7       	brpl	.-8      	; 0x21a <.L1^B7>

00000222 <.LM32>:
     222:	80 95       	com	r24
     224:	24 2f       	mov	r18, r20
     226:	28 23       	and	r18, r24
     228:	84 e3       	ldi	r24, 0x34	; 52
     22a:	90 e0       	ldi	r25, 0x00	; 0
     22c:	fc 01       	movw	r30, r24
     22e:	20 83       	st	Z, r18

00000230 <.LM33>:
     230:	18 c0       	rjmp	.+48     	; 0x262 <.L13>

00000232 <.L10>:
     232:	81 e3       	ldi	r24, 0x31	; 49
     234:	90 e0       	ldi	r25, 0x00	; 0
     236:	fc 01       	movw	r30, r24
     238:	80 81       	ld	r24, Z
     23a:	48 2f       	mov	r20, r24

0000023c <.LM35>:
     23c:	8a 81       	ldd	r24, Y+2	; 0x02
     23e:	28 2f       	mov	r18, r24
     240:	30 e0       	ldi	r19, 0x00	; 0
     242:	81 e0       	ldi	r24, 0x01	; 1
     244:	90 e0       	ldi	r25, 0x00	; 0
     246:	02 c0       	rjmp	.+4      	; 0x24c <.L2^B8>

00000248 <.L1^B8>:
     248:	88 0f       	add	r24, r24
     24a:	99 1f       	adc	r25, r25

0000024c <.L2^B8>:
     24c:	2a 95       	dec	r18
     24e:	e2 f7       	brpl	.-8      	; 0x248 <.L1^B8>

00000250 <.LM36>:
     250:	80 95       	com	r24
     252:	24 2f       	mov	r18, r20
     254:	28 23       	and	r18, r24
     256:	81 e3       	ldi	r24, 0x31	; 49
     258:	90 e0       	ldi	r25, 0x00	; 0
     25a:	fc 01       	movw	r30, r24
     25c:	20 83       	st	Z, r18

0000025e <.LM37>:
     25e:	01 c0       	rjmp	.+2      	; 0x262 <.L13>

00000260 <.L14>:
	...

00000262 <.L13>:
     262:	00 00       	nop
     264:	0f 90       	pop	r0
     266:	0f 90       	pop	r0
     268:	0f 90       	pop	r0
     26a:	df 91       	pop	r29
     26c:	cf 91       	pop	r28
     26e:	08 95       	ret

00000270 <GPIO_setupPortDirection>:
     270:	cf 93       	push	r28
     272:	df 93       	push	r29
     274:	00 d0       	rcall	.+0      	; 0x276 <L0^A>

00000276 <L0^A>:
     276:	cd b7       	in	r28, 0x3d	; 61
     278:	de b7       	in	r29, 0x3e	; 62
     27a:	89 83       	std	Y+1, r24	; 0x01
     27c:	6a 83       	std	Y+2, r22	; 0x02

0000027e <.LM41>:
     27e:	89 81       	ldd	r24, Y+1	; 0x01
     280:	84 30       	cpi	r24, 0x04	; 4
     282:	30 f5       	brcc	.+76     	; 0x2d0 <.L16>

00000284 <.LM42>:
     284:	89 81       	ldd	r24, Y+1	; 0x01
     286:	88 2f       	mov	r24, r24
     288:	90 e0       	ldi	r25, 0x00	; 0
     28a:	82 30       	cpi	r24, 0x02	; 2
     28c:	91 05       	cpc	r25, r1
     28e:	a1 f0       	breq	.+40     	; 0x2b8 <.L17>
     290:	83 30       	cpi	r24, 0x03	; 3
     292:	91 05       	cpc	r25, r1
     294:	bc f4       	brge	.+46     	; 0x2c4 <.L18>
     296:	00 97       	sbiw	r24, 0x00	; 0
     298:	19 f0       	breq	.+6      	; 0x2a0 <.L19>
     29a:	01 97       	sbiw	r24, 0x01	; 1
     29c:	39 f0       	breq	.+14     	; 0x2ac <.L20>
     29e:	12 c0       	rjmp	.+36     	; 0x2c4 <.L18>

000002a0 <.L19>:
     2a0:	8a e3       	ldi	r24, 0x3A	; 58
     2a2:	90 e0       	ldi	r25, 0x00	; 0

000002a4 <.LM44>:
     2a4:	2a 81       	ldd	r18, Y+2	; 0x02
     2a6:	fc 01       	movw	r30, r24
     2a8:	20 83       	st	Z, r18

000002aa <.LM45>:
     2aa:	12 c0       	rjmp	.+36     	; 0x2d0 <.L16>

000002ac <.L20>:
     2ac:	87 e3       	ldi	r24, 0x37	; 55
     2ae:	90 e0       	ldi	r25, 0x00	; 0

000002b0 <.LM47>:
     2b0:	2a 81       	ldd	r18, Y+2	; 0x02
     2b2:	fc 01       	movw	r30, r24
     2b4:	20 83       	st	Z, r18

000002b6 <.LM48>:
     2b6:	0c c0       	rjmp	.+24     	; 0x2d0 <.L16>

000002b8 <.L17>:
     2b8:	84 e3       	ldi	r24, 0x34	; 52
     2ba:	90 e0       	ldi	r25, 0x00	; 0

000002bc <.LM50>:
     2bc:	2a 81       	ldd	r18, Y+2	; 0x02
     2be:	fc 01       	movw	r30, r24
     2c0:	20 83       	st	Z, r18

000002c2 <.LM51>:
     2c2:	06 c0       	rjmp	.+12     	; 0x2d0 <.L16>

000002c4 <.L18>:
     2c4:	81 e3       	ldi	r24, 0x31	; 49
     2c6:	90 e0       	ldi	r25, 0x00	; 0

000002c8 <.LM53>:
     2c8:	2a 81       	ldd	r18, Y+2	; 0x02
     2ca:	fc 01       	movw	r30, r24
     2cc:	20 83       	st	Z, r18

000002ce <.LM54>:
	...

000002d0 <.L16>:
     2d0:	00 00       	nop
     2d2:	0f 90       	pop	r0
     2d4:	0f 90       	pop	r0
     2d6:	df 91       	pop	r29
     2d8:	cf 91       	pop	r28
     2da:	08 95       	ret

000002dc <GPIO_writePin>:
     2dc:	cf 93       	push	r28
     2de:	df 93       	push	r29
     2e0:	00 d0       	rcall	.+0      	; 0x2e2 <L0^A>

000002e2 <L0^A>:
     2e2:	0f 92       	push	r0
     2e4:	cd b7       	in	r28, 0x3d	; 61
     2e6:	de b7       	in	r29, 0x3e	; 62
     2e8:	89 83       	std	Y+1, r24	; 0x01
     2ea:	6a 83       	std	Y+2, r22	; 0x02
     2ec:	4b 83       	std	Y+3, r20	; 0x03

000002ee <.LM57>:
     2ee:	8a 81       	ldd	r24, Y+2	; 0x02
     2f0:	88 30       	cpi	r24, 0x08	; 8
     2f2:	08 f0       	brcs	.+2      	; 0x2f6 <.LM58>

000002f4 <L0^A>:
     2f4:	e1 c0       	rjmp	.+450    	; 0x4b8 <.L35>

000002f6 <.LM58>:
     2f6:	8b 81       	ldd	r24, Y+3	; 0x03
     2f8:	81 30       	cpi	r24, 0x01	; 1
     2fa:	21 f0       	breq	.+8      	; 0x304 <.L24>

000002fc <.LM59>:
     2fc:	8b 81       	ldd	r24, Y+3	; 0x03
     2fe:	88 23       	and	r24, r24
     300:	09 f0       	breq	.+2      	; 0x304 <.L24>

00000302 <L0^A>:
     302:	db c0       	rjmp	.+438    	; 0x4ba <.L23>

00000304 <.L24>:
     304:	8b 81       	ldd	r24, Y+3	; 0x03
     306:	81 30       	cpi	r24, 0x01	; 1
     308:	09 f0       	breq	.+2      	; 0x30c <.LM61>

0000030a <L0^A>:
     30a:	67 c0       	rjmp	.+206    	; 0x3da <.L25>

0000030c <.LM61>:
     30c:	89 81       	ldd	r24, Y+1	; 0x01
     30e:	88 2f       	mov	r24, r24
     310:	90 e0       	ldi	r25, 0x00	; 0
     312:	82 30       	cpi	r24, 0x02	; 2
     314:	91 05       	cpc	r25, r1
     316:	a9 f1       	breq	.+106    	; 0x382 <.L26>
     318:	83 30       	cpi	r24, 0x03	; 3
     31a:	91 05       	cpc	r25, r1
     31c:	0c f0       	brlt	.+2      	; 0x320 <L0^A+0x2>

0000031e <L0^A>:
     31e:	47 c0       	rjmp	.+142    	; 0x3ae <.L27>
     320:	00 97       	sbiw	r24, 0x00	; 0
     322:	19 f0       	breq	.+6      	; 0x32a <.L28>
     324:	01 97       	sbiw	r24, 0x01	; 1
     326:	b9 f0       	breq	.+46     	; 0x356 <.L29>
     328:	42 c0       	rjmp	.+132    	; 0x3ae <.L27>

0000032a <.L28>:
     32a:	8b e3       	ldi	r24, 0x3B	; 59
     32c:	90 e0       	ldi	r25, 0x00	; 0
     32e:	fc 01       	movw	r30, r24
     330:	80 81       	ld	r24, Z
     332:	48 2f       	mov	r20, r24

00000334 <.LM63>:
     334:	8a 81       	ldd	r24, Y+2	; 0x02
     336:	28 2f       	mov	r18, r24
     338:	30 e0       	ldi	r19, 0x00	; 0
     33a:	81 e0       	ldi	r24, 0x01	; 1
     33c:	90 e0       	ldi	r25, 0x00	; 0
     33e:	02 c0       	rjmp	.+4      	; 0x344 <.L2^B9>

00000340 <.L1^B9>:
     340:	88 0f       	add	r24, r24
     342:	99 1f       	adc	r25, r25

00000344 <.L2^B9>:
     344:	2a 95       	dec	r18
     346:	e2 f7       	brpl	.-8      	; 0x340 <.L1^B9>

00000348 <.LM64>:
     348:	24 2f       	mov	r18, r20
     34a:	28 2b       	or	r18, r24
     34c:	8b e3       	ldi	r24, 0x3B	; 59
     34e:	90 e0       	ldi	r25, 0x00	; 0
     350:	fc 01       	movw	r30, r24
     352:	20 83       	st	Z, r18

00000354 <.LM65>:
     354:	b2 c0       	rjmp	.+356    	; 0x4ba <.L23>

00000356 <.L29>:
     356:	88 e3       	ldi	r24, 0x38	; 56
     358:	90 e0       	ldi	r25, 0x00	; 0
     35a:	fc 01       	movw	r30, r24
     35c:	80 81       	ld	r24, Z
     35e:	48 2f       	mov	r20, r24

00000360 <.LM67>:
     360:	8a 81       	ldd	r24, Y+2	; 0x02
     362:	28 2f       	mov	r18, r24
     364:	30 e0       	ldi	r19, 0x00	; 0
     366:	81 e0       	ldi	r24, 0x01	; 1
     368:	90 e0       	ldi	r25, 0x00	; 0
     36a:	02 c0       	rjmp	.+4      	; 0x370 <.L2^B10>

0000036c <.L1^B10>:
     36c:	88 0f       	add	r24, r24
     36e:	99 1f       	adc	r25, r25

00000370 <.L2^B10>:
     370:	2a 95       	dec	r18
     372:	e2 f7       	brpl	.-8      	; 0x36c <.L1^B10>

00000374 <.LM68>:
     374:	24 2f       	mov	r18, r20
     376:	28 2b       	or	r18, r24
     378:	88 e3       	ldi	r24, 0x38	; 56
     37a:	90 e0       	ldi	r25, 0x00	; 0
     37c:	fc 01       	movw	r30, r24
     37e:	20 83       	st	Z, r18

00000380 <.LM69>:
     380:	9c c0       	rjmp	.+312    	; 0x4ba <.L23>

00000382 <.L26>:
     382:	85 e3       	ldi	r24, 0x35	; 53
     384:	90 e0       	ldi	r25, 0x00	; 0
     386:	fc 01       	movw	r30, r24
     388:	80 81       	ld	r24, Z
     38a:	48 2f       	mov	r20, r24

0000038c <.LM71>:
     38c:	8a 81       	ldd	r24, Y+2	; 0x02
     38e:	28 2f       	mov	r18, r24
     390:	30 e0       	ldi	r19, 0x00	; 0
     392:	81 e0       	ldi	r24, 0x01	; 1
     394:	90 e0       	ldi	r25, 0x00	; 0
     396:	02 c0       	rjmp	.+4      	; 0x39c <.L2^B11>

00000398 <.L1^B11>:
     398:	88 0f       	add	r24, r24
     39a:	99 1f       	adc	r25, r25

0000039c <.L2^B11>:
     39c:	2a 95       	dec	r18
     39e:	e2 f7       	brpl	.-8      	; 0x398 <.L1^B11>

000003a0 <.LM72>:
     3a0:	24 2f       	mov	r18, r20
     3a2:	28 2b       	or	r18, r24
     3a4:	85 e3       	ldi	r24, 0x35	; 53
     3a6:	90 e0       	ldi	r25, 0x00	; 0
     3a8:	fc 01       	movw	r30, r24
     3aa:	20 83       	st	Z, r18

000003ac <.LM73>:
     3ac:	86 c0       	rjmp	.+268    	; 0x4ba <.L23>

000003ae <.L27>:
     3ae:	82 e3       	ldi	r24, 0x32	; 50
     3b0:	90 e0       	ldi	r25, 0x00	; 0
     3b2:	fc 01       	movw	r30, r24
     3b4:	80 81       	ld	r24, Z
     3b6:	48 2f       	mov	r20, r24

000003b8 <.LM75>:
     3b8:	8a 81       	ldd	r24, Y+2	; 0x02
     3ba:	28 2f       	mov	r18, r24
     3bc:	30 e0       	ldi	r19, 0x00	; 0
     3be:	81 e0       	ldi	r24, 0x01	; 1
     3c0:	90 e0       	ldi	r25, 0x00	; 0
     3c2:	02 c0       	rjmp	.+4      	; 0x3c8 <.L2^B12>

000003c4 <.L1^B12>:
     3c4:	88 0f       	add	r24, r24
     3c6:	99 1f       	adc	r25, r25

000003c8 <.L2^B12>:
     3c8:	2a 95       	dec	r18
     3ca:	e2 f7       	brpl	.-8      	; 0x3c4 <.L1^B12>

000003cc <.LM76>:
     3cc:	24 2f       	mov	r18, r20
     3ce:	28 2b       	or	r18, r24
     3d0:	82 e3       	ldi	r24, 0x32	; 50
     3d2:	90 e0       	ldi	r25, 0x00	; 0
     3d4:	fc 01       	movw	r30, r24
     3d6:	20 83       	st	Z, r18

000003d8 <.LM77>:
     3d8:	70 c0       	rjmp	.+224    	; 0x4ba <.L23>

000003da <.L25>:
     3da:	8b 81       	ldd	r24, Y+3	; 0x03
     3dc:	88 23       	and	r24, r24
     3de:	09 f0       	breq	.+2      	; 0x3e2 <.LM79>

000003e0 <L0^A>:
     3e0:	6b c0       	rjmp	.+214    	; 0x4b8 <.L35>

000003e2 <.LM79>:
     3e2:	89 81       	ldd	r24, Y+1	; 0x01
     3e4:	88 2f       	mov	r24, r24
     3e6:	90 e0       	ldi	r25, 0x00	; 0
     3e8:	82 30       	cpi	r24, 0x02	; 2
     3ea:	91 05       	cpc	r25, r1
     3ec:	b9 f1       	breq	.+110    	; 0x45c <.L31>
     3ee:	83 30       	cpi	r24, 0x03	; 3
     3f0:	91 05       	cpc	r25, r1
     3f2:	0c f0       	brlt	.+2      	; 0x3f6 <L0^A+0x2>

000003f4 <L0^A>:
     3f4:	4a c0       	rjmp	.+148    	; 0x48a <.L32>
     3f6:	00 97       	sbiw	r24, 0x00	; 0
     3f8:	19 f0       	breq	.+6      	; 0x400 <.L33>
     3fa:	01 97       	sbiw	r24, 0x01	; 1
     3fc:	c1 f0       	breq	.+48     	; 0x42e <.L34>
     3fe:	45 c0       	rjmp	.+138    	; 0x48a <.L32>

00000400 <.L33>:
     400:	8b e3       	ldi	r24, 0x3B	; 59
     402:	90 e0       	ldi	r25, 0x00	; 0
     404:	fc 01       	movw	r30, r24
     406:	80 81       	ld	r24, Z
     408:	48 2f       	mov	r20, r24

0000040a <.LM81>:
     40a:	8a 81       	ldd	r24, Y+2	; 0x02
     40c:	28 2f       	mov	r18, r24
     40e:	30 e0       	ldi	r19, 0x00	; 0
     410:	81 e0       	ldi	r24, 0x01	; 1
     412:	90 e0       	ldi	r25, 0x00	; 0
     414:	02 c0       	rjmp	.+4      	; 0x41a <.L2^B13>

00000416 <.L1^B13>:
     416:	88 0f       	add	r24, r24
     418:	99 1f       	adc	r25, r25

0000041a <.L2^B13>:
     41a:	2a 95       	dec	r18
     41c:	e2 f7       	brpl	.-8      	; 0x416 <.L1^B13>

0000041e <.LM82>:
     41e:	80 95       	com	r24
     420:	24 2f       	mov	r18, r20
     422:	28 23       	and	r18, r24
     424:	8b e3       	ldi	r24, 0x3B	; 59
     426:	90 e0       	ldi	r25, 0x00	; 0
     428:	fc 01       	movw	r30, r24
     42a:	20 83       	st	Z, r18

0000042c <.LM83>:
     42c:	46 c0       	rjmp	.+140    	; 0x4ba <.L23>

0000042e <.L34>:
     42e:	88 e3       	ldi	r24, 0x38	; 56
     430:	90 e0       	ldi	r25, 0x00	; 0
     432:	fc 01       	movw	r30, r24
     434:	80 81       	ld	r24, Z
     436:	48 2f       	mov	r20, r24

00000438 <.LM85>:
     438:	8a 81       	ldd	r24, Y+2	; 0x02
     43a:	28 2f       	mov	r18, r24
     43c:	30 e0       	ldi	r19, 0x00	; 0
     43e:	81 e0       	ldi	r24, 0x01	; 1
     440:	90 e0       	ldi	r25, 0x00	; 0
     442:	02 c0       	rjmp	.+4      	; 0x448 <.L2^B14>

00000444 <.L1^B14>:
     444:	88 0f       	add	r24, r24
     446:	99 1f       	adc	r25, r25

00000448 <.L2^B14>:
     448:	2a 95       	dec	r18
     44a:	e2 f7       	brpl	.-8      	; 0x444 <.L1^B14>

0000044c <.LM86>:
     44c:	80 95       	com	r24
     44e:	24 2f       	mov	r18, r20
     450:	28 23       	and	r18, r24
     452:	88 e3       	ldi	r24, 0x38	; 56
     454:	90 e0       	ldi	r25, 0x00	; 0
     456:	fc 01       	movw	r30, r24
     458:	20 83       	st	Z, r18

0000045a <.LM87>:
     45a:	2f c0       	rjmp	.+94     	; 0x4ba <.L23>

0000045c <.L31>:
     45c:	85 e3       	ldi	r24, 0x35	; 53
     45e:	90 e0       	ldi	r25, 0x00	; 0
     460:	fc 01       	movw	r30, r24
     462:	80 81       	ld	r24, Z
     464:	48 2f       	mov	r20, r24

00000466 <.LM89>:
     466:	8a 81       	ldd	r24, Y+2	; 0x02
     468:	28 2f       	mov	r18, r24
     46a:	30 e0       	ldi	r19, 0x00	; 0
     46c:	81 e0       	ldi	r24, 0x01	; 1
     46e:	90 e0       	ldi	r25, 0x00	; 0
     470:	02 c0       	rjmp	.+4      	; 0x476 <.L2^B15>

00000472 <.L1^B15>:
     472:	88 0f       	add	r24, r24
     474:	99 1f       	adc	r25, r25

00000476 <.L2^B15>:
     476:	2a 95       	dec	r18
     478:	e2 f7       	brpl	.-8      	; 0x472 <.L1^B15>

0000047a <.LM90>:
     47a:	80 95       	com	r24
     47c:	24 2f       	mov	r18, r20
     47e:	28 23       	and	r18, r24
     480:	85 e3       	ldi	r24, 0x35	; 53
     482:	90 e0       	ldi	r25, 0x00	; 0
     484:	fc 01       	movw	r30, r24
     486:	20 83       	st	Z, r18

00000488 <.LM91>:
     488:	18 c0       	rjmp	.+48     	; 0x4ba <.L23>

0000048a <.L32>:
     48a:	82 e3       	ldi	r24, 0x32	; 50
     48c:	90 e0       	ldi	r25, 0x00	; 0
     48e:	fc 01       	movw	r30, r24
     490:	80 81       	ld	r24, Z
     492:	48 2f       	mov	r20, r24

00000494 <.LM93>:
     494:	8a 81       	ldd	r24, Y+2	; 0x02
     496:	28 2f       	mov	r18, r24
     498:	30 e0       	ldi	r19, 0x00	; 0
     49a:	81 e0       	ldi	r24, 0x01	; 1
     49c:	90 e0       	ldi	r25, 0x00	; 0
     49e:	02 c0       	rjmp	.+4      	; 0x4a4 <.L2^B16>

000004a0 <.L1^B16>:
     4a0:	88 0f       	add	r24, r24
     4a2:	99 1f       	adc	r25, r25

000004a4 <.L2^B16>:
     4a4:	2a 95       	dec	r18
     4a6:	e2 f7       	brpl	.-8      	; 0x4a0 <.L1^B16>

000004a8 <.LM94>:
     4a8:	80 95       	com	r24
     4aa:	24 2f       	mov	r18, r20
     4ac:	28 23       	and	r18, r24
     4ae:	82 e3       	ldi	r24, 0x32	; 50
     4b0:	90 e0       	ldi	r25, 0x00	; 0
     4b2:	fc 01       	movw	r30, r24
     4b4:	20 83       	st	Z, r18

000004b6 <.LM95>:
     4b6:	01 c0       	rjmp	.+2      	; 0x4ba <.L23>

000004b8 <.L35>:
	...

000004ba <.L23>:
     4ba:	00 00       	nop
     4bc:	0f 90       	pop	r0
     4be:	0f 90       	pop	r0
     4c0:	0f 90       	pop	r0
     4c2:	df 91       	pop	r29
     4c4:	cf 91       	pop	r28
     4c6:	08 95       	ret

000004c8 <GPIO_writePort>:
     4c8:	cf 93       	push	r28
     4ca:	df 93       	push	r29
     4cc:	00 d0       	rcall	.+0      	; 0x4ce <L0^A>

000004ce <L0^A>:
     4ce:	cd b7       	in	r28, 0x3d	; 61
     4d0:	de b7       	in	r29, 0x3e	; 62
     4d2:	89 83       	std	Y+1, r24	; 0x01
     4d4:	6a 83       	std	Y+2, r22	; 0x02

000004d6 <.LM99>:
     4d6:	89 81       	ldd	r24, Y+1	; 0x01
     4d8:	84 30       	cpi	r24, 0x04	; 4
     4da:	30 f5       	brcc	.+76     	; 0x528 <.L37>

000004dc <.LM100>:
     4dc:	89 81       	ldd	r24, Y+1	; 0x01
     4de:	88 2f       	mov	r24, r24
     4e0:	90 e0       	ldi	r25, 0x00	; 0
     4e2:	82 30       	cpi	r24, 0x02	; 2
     4e4:	91 05       	cpc	r25, r1
     4e6:	a1 f0       	breq	.+40     	; 0x510 <.L38>
     4e8:	83 30       	cpi	r24, 0x03	; 3
     4ea:	91 05       	cpc	r25, r1
     4ec:	bc f4       	brge	.+46     	; 0x51c <.L39>
     4ee:	00 97       	sbiw	r24, 0x00	; 0
     4f0:	19 f0       	breq	.+6      	; 0x4f8 <.L40>
     4f2:	01 97       	sbiw	r24, 0x01	; 1
     4f4:	39 f0       	breq	.+14     	; 0x504 <.L41>
     4f6:	12 c0       	rjmp	.+36     	; 0x51c <.L39>

000004f8 <.L40>:
     4f8:	8b e3       	ldi	r24, 0x3B	; 59
     4fa:	90 e0       	ldi	r25, 0x00	; 0

000004fc <.LM102>:
     4fc:	2a 81       	ldd	r18, Y+2	; 0x02
     4fe:	fc 01       	movw	r30, r24
     500:	20 83       	st	Z, r18

00000502 <.LM103>:
     502:	12 c0       	rjmp	.+36     	; 0x528 <.L37>

00000504 <.L41>:
     504:	88 e3       	ldi	r24, 0x38	; 56
     506:	90 e0       	ldi	r25, 0x00	; 0

00000508 <.LM105>:
     508:	2a 81       	ldd	r18, Y+2	; 0x02
     50a:	fc 01       	movw	r30, r24
     50c:	20 83       	st	Z, r18

0000050e <.LM106>:
     50e:	0c c0       	rjmp	.+24     	; 0x528 <.L37>

00000510 <.L38>:
     510:	85 e3       	ldi	r24, 0x35	; 53
     512:	90 e0       	ldi	r25, 0x00	; 0

00000514 <.LM108>:
     514:	2a 81       	ldd	r18, Y+2	; 0x02
     516:	fc 01       	movw	r30, r24
     518:	20 83       	st	Z, r18

0000051a <.LM109>:
     51a:	06 c0       	rjmp	.+12     	; 0x528 <.L37>

0000051c <.L39>:
     51c:	82 e3       	ldi	r24, 0x32	; 50
     51e:	90 e0       	ldi	r25, 0x00	; 0

00000520 <.LM111>:
     520:	2a 81       	ldd	r18, Y+2	; 0x02
     522:	fc 01       	movw	r30, r24
     524:	20 83       	st	Z, r18

00000526 <.LM112>:
	...

00000528 <.L37>:
     528:	00 00       	nop
     52a:	0f 90       	pop	r0
     52c:	0f 90       	pop	r0
     52e:	df 91       	pop	r29
     530:	cf 91       	pop	r28
     532:	08 95       	ret

00000534 <GPIO_readPin>:
     534:	cf 93       	push	r28
     536:	df 93       	push	r29
     538:	00 d0       	rcall	.+0      	; 0x53a <L0^A>

0000053a <L0^A>:
     53a:	cd b7       	in	r28, 0x3d	; 61
     53c:	de b7       	in	r29, 0x3e	; 62
     53e:	89 83       	std	Y+1, r24	; 0x01
     540:	6a 83       	std	Y+2, r22	; 0x02

00000542 <.LM115>:
     542:	8a 81       	ldd	r24, Y+2	; 0x02
     544:	88 30       	cpi	r24, 0x08	; 8
     546:	10 f0       	brcs	.+4      	; 0x54c <.L44>

00000548 <.LM116>:
     548:	80 e0       	ldi	r24, 0x00	; 0
     54a:	4d c0       	rjmp	.+154    	; 0x5e6 <.L45>

0000054c <.L44>:
     54c:	89 81       	ldd	r24, Y+1	; 0x01
     54e:	88 2f       	mov	r24, r24
     550:	90 e0       	ldi	r25, 0x00	; 0
     552:	82 30       	cpi	r24, 0x02	; 2
     554:	91 05       	cpc	r25, r1
     556:	41 f1       	breq	.+80     	; 0x5a8 <.L46>
     558:	83 30       	cpi	r24, 0x03	; 3
     55a:	91 05       	cpc	r25, r1
     55c:	ac f5       	brge	.+106    	; 0x5c8 <.L47>
     55e:	00 97       	sbiw	r24, 0x00	; 0
     560:	19 f0       	breq	.+6      	; 0x568 <.L48>
     562:	01 97       	sbiw	r24, 0x01	; 1
     564:	89 f0       	breq	.+34     	; 0x588 <.L49>
     566:	30 c0       	rjmp	.+96     	; 0x5c8 <.L47>

00000568 <.L48>:
     568:	89 e3       	ldi	r24, 0x39	; 57
     56a:	90 e0       	ldi	r25, 0x00	; 0
     56c:	fc 01       	movw	r30, r24
     56e:	80 81       	ld	r24, Z
     570:	88 2f       	mov	r24, r24
     572:	90 e0       	ldi	r25, 0x00	; 0
     574:	2a 81       	ldd	r18, Y+2	; 0x02
     576:	22 2f       	mov	r18, r18
     578:	30 e0       	ldi	r19, 0x00	; 0
     57a:	02 c0       	rjmp	.+4      	; 0x580 <.L2^B17>

0000057c <.L1^B17>:
     57c:	95 95       	asr	r25
     57e:	87 95       	ror	r24

00000580 <.L2^B17>:
     580:	2a 95       	dec	r18
     582:	e2 f7       	brpl	.-8      	; 0x57c <.L1^B17>
     584:	81 70       	andi	r24, 0x01	; 1
     586:	2f c0       	rjmp	.+94     	; 0x5e6 <.L45>

00000588 <.L49>:
     588:	86 e3       	ldi	r24, 0x36	; 54
     58a:	90 e0       	ldi	r25, 0x00	; 0
     58c:	fc 01       	movw	r30, r24
     58e:	80 81       	ld	r24, Z
     590:	88 2f       	mov	r24, r24
     592:	90 e0       	ldi	r25, 0x00	; 0
     594:	2a 81       	ldd	r18, Y+2	; 0x02
     596:	22 2f       	mov	r18, r18
     598:	30 e0       	ldi	r19, 0x00	; 0
     59a:	02 c0       	rjmp	.+4      	; 0x5a0 <.L2^B18>

0000059c <.L1^B18>:
     59c:	95 95       	asr	r25
     59e:	87 95       	ror	r24

000005a0 <.L2^B18>:
     5a0:	2a 95       	dec	r18
     5a2:	e2 f7       	brpl	.-8      	; 0x59c <.L1^B18>
     5a4:	81 70       	andi	r24, 0x01	; 1
     5a6:	1f c0       	rjmp	.+62     	; 0x5e6 <.L45>

000005a8 <.L46>:
     5a8:	83 e3       	ldi	r24, 0x33	; 51
     5aa:	90 e0       	ldi	r25, 0x00	; 0
     5ac:	fc 01       	movw	r30, r24
     5ae:	80 81       	ld	r24, Z
     5b0:	88 2f       	mov	r24, r24
     5b2:	90 e0       	ldi	r25, 0x00	; 0
     5b4:	2a 81       	ldd	r18, Y+2	; 0x02
     5b6:	22 2f       	mov	r18, r18
     5b8:	30 e0       	ldi	r19, 0x00	; 0
     5ba:	02 c0       	rjmp	.+4      	; 0x5c0 <.L2^B19>

000005bc <.L1^B19>:
     5bc:	95 95       	asr	r25
     5be:	87 95       	ror	r24

000005c0 <.L2^B19>:
     5c0:	2a 95       	dec	r18
     5c2:	e2 f7       	brpl	.-8      	; 0x5bc <.L1^B19>
     5c4:	81 70       	andi	r24, 0x01	; 1
     5c6:	0f c0       	rjmp	.+30     	; 0x5e6 <.L45>

000005c8 <.L47>:
     5c8:	80 e3       	ldi	r24, 0x30	; 48
     5ca:	90 e0       	ldi	r25, 0x00	; 0
     5cc:	fc 01       	movw	r30, r24
     5ce:	80 81       	ld	r24, Z
     5d0:	88 2f       	mov	r24, r24
     5d2:	90 e0       	ldi	r25, 0x00	; 0
     5d4:	2a 81       	ldd	r18, Y+2	; 0x02
     5d6:	22 2f       	mov	r18, r18
     5d8:	30 e0       	ldi	r19, 0x00	; 0
     5da:	02 c0       	rjmp	.+4      	; 0x5e0 <.L2^B20>

000005dc <.L1^B20>:
     5dc:	95 95       	asr	r25
     5de:	87 95       	ror	r24

000005e0 <.L2^B20>:
     5e0:	2a 95       	dec	r18
     5e2:	e2 f7       	brpl	.-8      	; 0x5dc <.L1^B20>
     5e4:	81 70       	andi	r24, 0x01	; 1

000005e6 <.L45>:
     5e6:	0f 90       	pop	r0
     5e8:	0f 90       	pop	r0
     5ea:	df 91       	pop	r29
     5ec:	cf 91       	pop	r28
     5ee:	08 95       	ret

000005f0 <GPIO_readPort>:
     5f0:	cf 93       	push	r28
     5f2:	df 93       	push	r29
     5f4:	0f 92       	push	r0
     5f6:	cd b7       	in	r28, 0x3d	; 61
     5f8:	de b7       	in	r29, 0x3e	; 62
     5fa:	89 83       	std	Y+1, r24	; 0x01

000005fc <.LM124>:
     5fc:	89 81       	ldd	r24, Y+1	; 0x01
     5fe:	84 30       	cpi	r24, 0x04	; 4
     600:	10 f0       	brcs	.+4      	; 0x606 <.L51>

00000602 <.LM125>:
     602:	80 e0       	ldi	r24, 0x00	; 0
     604:	21 c0       	rjmp	.+66     	; 0x648 <.L52>

00000606 <.L51>:
     606:	89 81       	ldd	r24, Y+1	; 0x01
     608:	88 2f       	mov	r24, r24
     60a:	90 e0       	ldi	r25, 0x00	; 0
     60c:	82 30       	cpi	r24, 0x02	; 2
     60e:	91 05       	cpc	r25, r1
     610:	91 f0       	breq	.+36     	; 0x636 <.L53>
     612:	83 30       	cpi	r24, 0x03	; 3
     614:	91 05       	cpc	r25, r1
     616:	a4 f4       	brge	.+40     	; 0x640 <.L54>
     618:	00 97       	sbiw	r24, 0x00	; 0
     61a:	19 f0       	breq	.+6      	; 0x622 <.L55>
     61c:	01 97       	sbiw	r24, 0x01	; 1
     61e:	31 f0       	breq	.+12     	; 0x62c <.L56>
     620:	0f c0       	rjmp	.+30     	; 0x640 <.L54>

00000622 <.L55>:
     622:	89 e3       	ldi	r24, 0x39	; 57
     624:	90 e0       	ldi	r25, 0x00	; 0
     626:	fc 01       	movw	r30, r24
     628:	80 81       	ld	r24, Z
     62a:	0e c0       	rjmp	.+28     	; 0x648 <.L52>

0000062c <.L56>:
     62c:	86 e3       	ldi	r24, 0x36	; 54
     62e:	90 e0       	ldi	r25, 0x00	; 0
     630:	fc 01       	movw	r30, r24
     632:	80 81       	ld	r24, Z
     634:	09 c0       	rjmp	.+18     	; 0x648 <.L52>

00000636 <.L53>:
     636:	83 e3       	ldi	r24, 0x33	; 51
     638:	90 e0       	ldi	r25, 0x00	; 0
     63a:	fc 01       	movw	r30, r24
     63c:	80 81       	ld	r24, Z
     63e:	04 c0       	rjmp	.+8      	; 0x648 <.L52>

00000640 <.L54>:
     640:	83 e3       	ldi	r24, 0x33	; 51
     642:	90 e0       	ldi	r25, 0x00	; 0
     644:	fc 01       	movw	r30, r24
     646:	80 81       	ld	r24, Z

00000648 <.L52>:
     648:	0f 90       	pop	r0
     64a:	df 91       	pop	r29
     64c:	cf 91       	pop	r28
     64e:	08 95       	ret

00000650 <GRN_LED_init>:
     650:	cf 93       	push	r28
     652:	df 93       	push	r29
     654:	cd b7       	in	r28, 0x3d	; 61
     656:	de b7       	in	r29, 0x3e	; 62

00000658 <.LM1>:
     658:	41 e0       	ldi	r20, 0x01	; 1
     65a:	61 e0       	ldi	r22, 0x01	; 1
     65c:	82 e0       	ldi	r24, 0x02	; 2
     65e:	0e 94 49 00 	call	0x92	; 0x92 <GPIO_setupPinDirection>

00000662 <.LM2>:
     662:	40 e0       	ldi	r20, 0x00	; 0
     664:	61 e0       	ldi	r22, 0x01	; 1
     666:	82 e0       	ldi	r24, 0x02	; 2
     668:	0e 94 6e 01 	call	0x2dc	; 0x2dc <GPIO_writePin>

0000066c <.LM3>:
     66c:	00 00       	nop
     66e:	df 91       	pop	r29
     670:	cf 91       	pop	r28
     672:	08 95       	ret

00000674 <GRN_LED_on>:
     674:	cf 93       	push	r28
     676:	df 93       	push	r29
     678:	cd b7       	in	r28, 0x3d	; 61
     67a:	de b7       	in	r29, 0x3e	; 62

0000067c <.LM5>:
     67c:	41 e0       	ldi	r20, 0x01	; 1
     67e:	61 e0       	ldi	r22, 0x01	; 1
     680:	82 e0       	ldi	r24, 0x02	; 2
     682:	0e 94 6e 01 	call	0x2dc	; 0x2dc <GPIO_writePin>

00000686 <.LM6>:
     686:	00 00       	nop
     688:	df 91       	pop	r29
     68a:	cf 91       	pop	r28
     68c:	08 95       	ret

0000068e <GRN_LED_off>:
     68e:	cf 93       	push	r28
     690:	df 93       	push	r29
     692:	cd b7       	in	r28, 0x3d	; 61
     694:	de b7       	in	r29, 0x3e	; 62

00000696 <.LM8>:
     696:	40 e0       	ldi	r20, 0x00	; 0
     698:	61 e0       	ldi	r22, 0x01	; 1
     69a:	82 e0       	ldi	r24, 0x02	; 2
     69c:	0e 94 6e 01 	call	0x2dc	; 0x2dc <GPIO_writePin>

000006a0 <.LM9>:
     6a0:	00 00       	nop
     6a2:	df 91       	pop	r29
     6a4:	cf 91       	pop	r28
     6a6:	08 95       	ret

000006a8 <LCD_init>:
     6a8:	cf 93       	push	r28
     6aa:	df 93       	push	r29
     6ac:	cd b7       	in	r28, 0x3d	; 61
     6ae:	de b7       	in	r29, 0x3e	; 62
     6b0:	c4 54       	subi	r28, 0x44	; 68
     6b2:	d1 09       	sbc	r29, r1
     6b4:	0f b6       	in	r0, 0x3f	; 63
     6b6:	f8 94       	cli
     6b8:	de bf       	out	0x3e, r29	; 62
     6ba:	0f be       	out	0x3f, r0	; 63
     6bc:	cd bf       	out	0x3d, r28	; 61

000006be <.LM1>:
     6be:	41 e0       	ldi	r20, 0x01	; 1
     6c0:	61 e0       	ldi	r22, 0x01	; 1
     6c2:	80 e0       	ldi	r24, 0x00	; 0
     6c4:	0e 94 49 00 	call	0x92	; 0x92 <GPIO_setupPinDirection>

000006c8 <.LM2>:
     6c8:	41 e0       	ldi	r20, 0x01	; 1
     6ca:	62 e0       	ldi	r22, 0x02	; 2
     6cc:	80 e0       	ldi	r24, 0x00	; 0
     6ce:	0e 94 49 00 	call	0x92	; 0x92 <GPIO_setupPinDirection>
     6d2:	80 e0       	ldi	r24, 0x00	; 0
     6d4:	90 e0       	ldi	r25, 0x00	; 0
     6d6:	a0 ea       	ldi	r26, 0xA0	; 160
     6d8:	b1 e4       	ldi	r27, 0x41	; 65
     6da:	8f 87       	std	Y+15, r24	; 0x0f
     6dc:	98 8b       	std	Y+16, r25	; 0x10
     6de:	a9 8b       	std	Y+17, r26	; 0x11
     6e0:	ba 8b       	std	Y+18, r27	; 0x12

000006e2 <.LM3>:
     6e2:	20 e0       	ldi	r18, 0x00	; 0
     6e4:	30 e0       	ldi	r19, 0x00	; 0
     6e6:	4a e7       	ldi	r20, 0x7A	; 122
     6e8:	55 e4       	ldi	r21, 0x45	; 69
     6ea:	6f 85       	ldd	r22, Y+15	; 0x0f
     6ec:	78 89       	ldd	r23, Y+16	; 0x10
     6ee:	89 89       	ldd	r24, Y+17	; 0x11
     6f0:	9a 89       	ldd	r25, Y+18	; 0x12
     6f2:	0e 94 5f 29 	call	0x52be	; 0x52be <__mulsf3>
     6f6:	6d a3       	std	Y+37, r22	; 0x25
     6f8:	7e a3       	std	Y+38, r23	; 0x26
     6fa:	8f a3       	std	Y+39, r24	; 0x27
     6fc:	98 a7       	std	Y+40, r25	; 0x28
     6fe:	8d a1       	ldd	r24, Y+37	; 0x25
     700:	9e a1       	ldd	r25, Y+38	; 0x26
     702:	af a1       	ldd	r26, Y+39	; 0x27
     704:	b8 a5       	ldd	r27, Y+40	; 0x28
     706:	8b 8b       	std	Y+19, r24	; 0x13
     708:	9c 8b       	std	Y+20, r25	; 0x14
     70a:	ad 8b       	std	Y+21, r26	; 0x15
     70c:	be 8b       	std	Y+22, r27	; 0x16

0000070e <.LM4>:
     70e:	20 e0       	ldi	r18, 0x00	; 0
     710:	30 e0       	ldi	r19, 0x00	; 0
     712:	40 e8       	ldi	r20, 0x80	; 128
     714:	5f e3       	ldi	r21, 0x3F	; 63
     716:	6b 89       	ldd	r22, Y+19	; 0x13
     718:	7c 89       	ldd	r23, Y+20	; 0x14
     71a:	8d 89       	ldd	r24, Y+21	; 0x15
     71c:	9e 89       	ldd	r25, Y+22	; 0x16
     71e:	0e 94 3f 28 	call	0x507e	; 0x507e <__cmpsf2>
     722:	88 23       	and	r24, r24
     724:	2c f4       	brge	.+10     	; 0x730 <.L22>

00000726 <.LM5>:
     726:	81 e0       	ldi	r24, 0x01	; 1
     728:	90 e0       	ldi	r25, 0x00	; 0
     72a:	98 8f       	std	Y+24, r25	; 0x18
     72c:	8f 8b       	std	Y+23, r24	; 0x17
     72e:	54 c0       	rjmp	.+168    	; 0x7d8 <.L4>

00000730 <.L22>:
     730:	20 e0       	ldi	r18, 0x00	; 0
     732:	3f ef       	ldi	r19, 0xFF	; 255
     734:	4f e7       	ldi	r20, 0x7F	; 127
     736:	57 e4       	ldi	r21, 0x47	; 71
     738:	6b 89       	ldd	r22, Y+19	; 0x13
     73a:	7c 89       	ldd	r23, Y+20	; 0x14
     73c:	8d 89       	ldd	r24, Y+21	; 0x15
     73e:	9e 89       	ldd	r25, Y+22	; 0x16
     740:	0e 94 5a 29 	call	0x52b4	; 0x52b4 <__gesf2>
     744:	18 16       	cp	r1, r24
     746:	d4 f5       	brge	.+116    	; 0x7bc <.L23>

00000748 <.LM7>:
     748:	20 e0       	ldi	r18, 0x00	; 0
     74a:	30 e0       	ldi	r19, 0x00	; 0
     74c:	40 e2       	ldi	r20, 0x20	; 32
     74e:	51 e4       	ldi	r21, 0x41	; 65
     750:	6f 85       	ldd	r22, Y+15	; 0x0f
     752:	78 89       	ldd	r23, Y+16	; 0x10
     754:	89 89       	ldd	r24, Y+17	; 0x11
     756:	9a 89       	ldd	r25, Y+18	; 0x12
     758:	0e 94 5f 29 	call	0x52be	; 0x52be <__mulsf3>
     75c:	69 a7       	std	Y+41, r22	; 0x29
     75e:	7a a7       	std	Y+42, r23	; 0x2a
     760:	8b a7       	std	Y+43, r24	; 0x2b
     762:	9c a7       	std	Y+44, r25	; 0x2c
     764:	89 a5       	ldd	r24, Y+41	; 0x29
     766:	9a a5       	ldd	r25, Y+42	; 0x2a
     768:	ab a5       	ldd	r26, Y+43	; 0x2b
     76a:	bc a5       	ldd	r27, Y+44	; 0x2c
     76c:	89 a3       	std	Y+33, r24	; 0x21
     76e:	9a a3       	std	Y+34, r25	; 0x22
     770:	ab a3       	std	Y+35, r26	; 0x23
     772:	bc a3       	std	Y+36, r27	; 0x24

00000774 <.LM8>:
     774:	69 a1       	ldd	r22, Y+33	; 0x21
     776:	7a a1       	ldd	r23, Y+34	; 0x22
     778:	8b a1       	ldd	r24, Y+35	; 0x23
     77a:	9c a1       	ldd	r25, Y+36	; 0x24
     77c:	0e 94 b6 28 	call	0x516c	; 0x516c <__fixunssfsi>
     780:	6d a7       	std	Y+45, r22	; 0x2d
     782:	7e a7       	std	Y+46, r23	; 0x2e
     784:	8f a7       	std	Y+47, r24	; 0x2f
     786:	98 ab       	std	Y+48, r25	; 0x30
     788:	ad a5       	ldd	r26, Y+45	; 0x2d
     78a:	be a5       	ldd	r27, Y+46	; 0x2e
     78c:	b8 8f       	std	Y+24, r27	; 0x18
     78e:	af 8b       	std	Y+23, r26	; 0x17

00000790 <.LM9>:
     790:	10 c0       	rjmp	.+32     	; 0x7b2 <.L7>

00000792 <.L8>:
     792:	80 e9       	ldi	r24, 0x90	; 144
     794:	91 e0       	ldi	r25, 0x01	; 1
     796:	9a 8f       	std	Y+26, r25	; 0x1a
     798:	89 8f       	std	Y+25, r24	; 0x19

0000079a <.LM10>:
     79a:	89 8d       	ldd	r24, Y+25	; 0x19
     79c:	9a 8d       	ldd	r25, Y+26	; 0x1a

0000079e <.L1^B1>:
     79e:	01 97       	sbiw	r24, 0x01	; 1
     7a0:	f1 f7       	brne	.-4      	; 0x79e <.L1^B1>
     7a2:	9a 8f       	std	Y+26, r25	; 0x1a
     7a4:	89 8f       	std	Y+25, r24	; 0x19

000007a6 <.LM11>:
	...

000007a8 <.LM12>:
     7a8:	8f 89       	ldd	r24, Y+23	; 0x17
     7aa:	98 8d       	ldd	r25, Y+24	; 0x18
     7ac:	01 97       	sbiw	r24, 0x01	; 1
     7ae:	98 8f       	std	Y+24, r25	; 0x18
     7b0:	8f 8b       	std	Y+23, r24	; 0x17

000007b2 <.L7>:
     7b2:	8f 89       	ldd	r24, Y+23	; 0x17
     7b4:	98 8d       	ldd	r25, Y+24	; 0x18
     7b6:	89 2b       	or	r24, r25
     7b8:	61 f7       	brne	.-40     	; 0x792 <.L8>

000007ba <.LM14>:
     7ba:	19 c0       	rjmp	.+50     	; 0x7ee <.L9>

000007bc <.L23>:
     7bc:	6b 89       	ldd	r22, Y+19	; 0x13
     7be:	7c 89       	ldd	r23, Y+20	; 0x14
     7c0:	8d 89       	ldd	r24, Y+21	; 0x15
     7c2:	9e 89       	ldd	r25, Y+22	; 0x16
     7c4:	0e 94 b6 28 	call	0x516c	; 0x516c <__fixunssfsi>
     7c8:	69 ab       	std	Y+49, r22	; 0x31
     7ca:	7a ab       	std	Y+50, r23	; 0x32
     7cc:	8b ab       	std	Y+51, r24	; 0x33
     7ce:	9c ab       	std	Y+52, r25	; 0x34
     7d0:	89 a9       	ldd	r24, Y+49	; 0x31
     7d2:	9a a9       	ldd	r25, Y+50	; 0x32
     7d4:	98 8f       	std	Y+24, r25	; 0x18
     7d6:	8f 8b       	std	Y+23, r24	; 0x17

000007d8 <.L4>:
     7d8:	8f 89       	ldd	r24, Y+23	; 0x17
     7da:	98 8d       	ldd	r25, Y+24	; 0x18
     7dc:	9c 8f       	std	Y+28, r25	; 0x1c
     7de:	8b 8f       	std	Y+27, r24	; 0x1b

000007e0 <.LM16>:
     7e0:	8b 8d       	ldd	r24, Y+27	; 0x1b
     7e2:	9c 8d       	ldd	r25, Y+28	; 0x1c

000007e4 <.L1^B2>:
     7e4:	01 97       	sbiw	r24, 0x01	; 1
     7e6:	f1 f7       	brne	.-4      	; 0x7e4 <.L1^B2>
     7e8:	9c 8f       	std	Y+28, r25	; 0x1c
     7ea:	8b 8f       	std	Y+27, r24	; 0x1b

000007ec <.LM17>:
	...

000007ee <.L9>:
     7ee:	41 e0       	ldi	r20, 0x01	; 1
     7f0:	63 e0       	ldi	r22, 0x03	; 3
     7f2:	80 e0       	ldi	r24, 0x00	; 0
     7f4:	0e 94 49 00 	call	0x92	; 0x92 <GPIO_setupPinDirection>

000007f8 <.LM19>:
     7f8:	41 e0       	ldi	r20, 0x01	; 1
     7fa:	64 e0       	ldi	r22, 0x04	; 4
     7fc:	80 e0       	ldi	r24, 0x00	; 0
     7fe:	0e 94 49 00 	call	0x92	; 0x92 <GPIO_setupPinDirection>

00000802 <.LM20>:
     802:	41 e0       	ldi	r20, 0x01	; 1
     804:	65 e0       	ldi	r22, 0x05	; 5
     806:	80 e0       	ldi	r24, 0x00	; 0
     808:	0e 94 49 00 	call	0x92	; 0x92 <GPIO_setupPinDirection>

0000080c <.LM21>:
     80c:	41 e0       	ldi	r20, 0x01	; 1
     80e:	66 e0       	ldi	r22, 0x06	; 6
     810:	80 e0       	ldi	r24, 0x00	; 0
     812:	0e 94 49 00 	call	0x92	; 0x92 <GPIO_setupPinDirection>
     816:	80 e0       	ldi	r24, 0x00	; 0
     818:	90 e0       	ldi	r25, 0x00	; 0
     81a:	a0 ea       	ldi	r26, 0xA0	; 160
     81c:	b1 e4       	ldi	r27, 0x41	; 65
     81e:	89 83       	std	Y+1, r24	; 0x01
     820:	9a 83       	std	Y+2, r25	; 0x02
     822:	ab 83       	std	Y+3, r26	; 0x03
     824:	bc 83       	std	Y+4, r27	; 0x04

00000826 <.LM22>:
     826:	20 e0       	ldi	r18, 0x00	; 0
     828:	30 e0       	ldi	r19, 0x00	; 0
     82a:	4a e7       	ldi	r20, 0x7A	; 122
     82c:	55 e4       	ldi	r21, 0x45	; 69
     82e:	69 81       	ldd	r22, Y+1	; 0x01
     830:	7a 81       	ldd	r23, Y+2	; 0x02
     832:	8b 81       	ldd	r24, Y+3	; 0x03
     834:	9c 81       	ldd	r25, Y+4	; 0x04
     836:	0e 94 5f 29 	call	0x52be	; 0x52be <__mulsf3>
     83a:	6d ab       	std	Y+53, r22	; 0x35
     83c:	7e ab       	std	Y+54, r23	; 0x36
     83e:	8f ab       	std	Y+55, r24	; 0x37
     840:	98 af       	std	Y+56, r25	; 0x38
     842:	8d a9       	ldd	r24, Y+53	; 0x35
     844:	9e a9       	ldd	r25, Y+54	; 0x36
     846:	af a9       	ldd	r26, Y+55	; 0x37
     848:	b8 ad       	ldd	r27, Y+56	; 0x38
     84a:	8d 83       	std	Y+5, r24	; 0x05
     84c:	9e 83       	std	Y+6, r25	; 0x06
     84e:	af 83       	std	Y+7, r26	; 0x07
     850:	b8 87       	std	Y+8, r27	; 0x08

00000852 <.LM23>:
     852:	20 e0       	ldi	r18, 0x00	; 0
     854:	30 e0       	ldi	r19, 0x00	; 0
     856:	40 e8       	ldi	r20, 0x80	; 128
     858:	5f e3       	ldi	r21, 0x3F	; 63
     85a:	6d 81       	ldd	r22, Y+5	; 0x05
     85c:	7e 81       	ldd	r23, Y+6	; 0x06
     85e:	8f 81       	ldd	r24, Y+7	; 0x07
     860:	98 85       	ldd	r25, Y+8	; 0x08
     862:	0e 94 3f 28 	call	0x507e	; 0x507e <__cmpsf2>
     866:	88 23       	and	r24, r24
     868:	2c f4       	brge	.+10     	; 0x874 <.L24>

0000086a <.LM24>:
     86a:	81 e0       	ldi	r24, 0x01	; 1
     86c:	90 e0       	ldi	r25, 0x00	; 0
     86e:	9a 87       	std	Y+10, r25	; 0x0a
     870:	89 87       	std	Y+9, r24	; 0x09
     872:	5b c0       	rjmp	.+182    	; 0x92a <.L12>

00000874 <.L24>:
     874:	20 e0       	ldi	r18, 0x00	; 0
     876:	3f ef       	ldi	r19, 0xFF	; 255
     878:	4f e7       	ldi	r20, 0x7F	; 127
     87a:	57 e4       	ldi	r21, 0x47	; 71
     87c:	6d 81       	ldd	r22, Y+5	; 0x05
     87e:	7e 81       	ldd	r23, Y+6	; 0x06
     880:	8f 81       	ldd	r24, Y+7	; 0x07
     882:	98 85       	ldd	r25, Y+8	; 0x08
     884:	0e 94 5a 29 	call	0x52b4	; 0x52b4 <__gesf2>
     888:	18 16       	cp	r1, r24
     88a:	0c f0       	brlt	.+2      	; 0x88e <.LM26>

0000088c <L0^A>:
     88c:	3c c0       	rjmp	.+120    	; 0x906 <.L25>

0000088e <.LM26>:
     88e:	20 e0       	ldi	r18, 0x00	; 0
     890:	30 e0       	ldi	r19, 0x00	; 0
     892:	40 e2       	ldi	r20, 0x20	; 32
     894:	51 e4       	ldi	r21, 0x41	; 65
     896:	69 81       	ldd	r22, Y+1	; 0x01
     898:	7a 81       	ldd	r23, Y+2	; 0x02
     89a:	8b 81       	ldd	r24, Y+3	; 0x03
     89c:	9c 81       	ldd	r25, Y+4	; 0x04
     89e:	0e 94 5f 29 	call	0x52be	; 0x52be <__mulsf3>
     8a2:	69 af       	std	Y+57, r22	; 0x39
     8a4:	7a af       	std	Y+58, r23	; 0x3a
     8a6:	8b af       	std	Y+59, r24	; 0x3b
     8a8:	9c af       	std	Y+60, r25	; 0x3c
     8aa:	89 ad       	ldd	r24, Y+57	; 0x39
     8ac:	9a ad       	ldd	r25, Y+58	; 0x3a
     8ae:	ab ad       	ldd	r26, Y+59	; 0x3b
     8b0:	bc ad       	ldd	r27, Y+60	; 0x3c
     8b2:	8d 8f       	std	Y+29, r24	; 0x1d
     8b4:	9e 8f       	std	Y+30, r25	; 0x1e
     8b6:	af 8f       	std	Y+31, r26	; 0x1f
     8b8:	b8 a3       	std	Y+32, r27	; 0x20

000008ba <.LM27>:
     8ba:	6d 8d       	ldd	r22, Y+29	; 0x1d
     8bc:	7e 8d       	ldd	r23, Y+30	; 0x1e
     8be:	8f 8d       	ldd	r24, Y+31	; 0x1f
     8c0:	98 a1       	ldd	r25, Y+32	; 0x20
     8c2:	0e 94 b6 28 	call	0x516c	; 0x516c <__fixunssfsi>
     8c6:	21 96       	adiw	r28, 0x01	; 1
     8c8:	6c af       	std	Y+60, r22	; 0x3c
     8ca:	7d af       	std	Y+61, r23	; 0x3d
     8cc:	8e af       	std	Y+62, r24	; 0x3e
     8ce:	9f af       	std	Y+63, r25	; 0x3f
     8d0:	21 97       	sbiw	r28, 0x01	; 1
     8d2:	ad ad       	ldd	r26, Y+61	; 0x3d
     8d4:	be ad       	ldd	r27, Y+62	; 0x3e
     8d6:	ba 87       	std	Y+10, r27	; 0x0a
     8d8:	a9 87       	std	Y+9, r26	; 0x09

000008da <.LM28>:
     8da:	10 c0       	rjmp	.+32     	; 0x8fc <.L15>

000008dc <.L16>:
     8dc:	80 e9       	ldi	r24, 0x90	; 144
     8de:	91 e0       	ldi	r25, 0x01	; 1
     8e0:	9c 87       	std	Y+12, r25	; 0x0c
     8e2:	8b 87       	std	Y+11, r24	; 0x0b

000008e4 <.LM29>:
     8e4:	8b 85       	ldd	r24, Y+11	; 0x0b
     8e6:	9c 85       	ldd	r25, Y+12	; 0x0c

000008e8 <.L1^B3>:
     8e8:	01 97       	sbiw	r24, 0x01	; 1
     8ea:	f1 f7       	brne	.-4      	; 0x8e8 <.L1^B3>
     8ec:	9c 87       	std	Y+12, r25	; 0x0c
     8ee:	8b 87       	std	Y+11, r24	; 0x0b

000008f0 <.LM30>:
	...

000008f2 <.LM31>:
     8f2:	89 85       	ldd	r24, Y+9	; 0x09
     8f4:	9a 85       	ldd	r25, Y+10	; 0x0a
     8f6:	01 97       	sbiw	r24, 0x01	; 1
     8f8:	9a 87       	std	Y+10, r25	; 0x0a
     8fa:	89 87       	std	Y+9, r24	; 0x09

000008fc <.L15>:
     8fc:	89 85       	ldd	r24, Y+9	; 0x09
     8fe:	9a 85       	ldd	r25, Y+10	; 0x0a
     900:	89 2b       	or	r24, r25
     902:	61 f7       	brne	.-40     	; 0x8dc <.L16>

00000904 <.LM33>:
     904:	1d c0       	rjmp	.+58     	; 0x940 <.L17>

00000906 <.L25>:
     906:	6d 81       	ldd	r22, Y+5	; 0x05
     908:	7e 81       	ldd	r23, Y+6	; 0x06
     90a:	8f 81       	ldd	r24, Y+7	; 0x07
     90c:	98 85       	ldd	r25, Y+8	; 0x08
     90e:	0e 94 b6 28 	call	0x516c	; 0x516c <__fixunssfsi>
     912:	25 96       	adiw	r28, 0x05	; 5
     914:	6c af       	std	Y+60, r22	; 0x3c
     916:	7d af       	std	Y+61, r23	; 0x3d
     918:	8e af       	std	Y+62, r24	; 0x3e
     91a:	9f af       	std	Y+63, r25	; 0x3f
     91c:	25 97       	sbiw	r28, 0x05	; 5
     91e:	23 96       	adiw	r28, 0x03	; 3
     920:	8e ad       	ldd	r24, Y+62	; 0x3e
     922:	9f ad       	ldd	r25, Y+63	; 0x3f
     924:	23 97       	sbiw	r28, 0x03	; 3
     926:	9a 87       	std	Y+10, r25	; 0x0a
     928:	89 87       	std	Y+9, r24	; 0x09

0000092a <.L12>:
     92a:	89 85       	ldd	r24, Y+9	; 0x09
     92c:	9a 85       	ldd	r25, Y+10	; 0x0a
     92e:	9e 87       	std	Y+14, r25	; 0x0e
     930:	8d 87       	std	Y+13, r24	; 0x0d

00000932 <.LM35>:
     932:	8d 85       	ldd	r24, Y+13	; 0x0d
     934:	9e 85       	ldd	r25, Y+14	; 0x0e

00000936 <.L1^B4>:
     936:	01 97       	sbiw	r24, 0x01	; 1
     938:	f1 f7       	brne	.-4      	; 0x936 <.L1^B4>
     93a:	9e 87       	std	Y+14, r25	; 0x0e
     93c:	8d 87       	std	Y+13, r24	; 0x0d

0000093e <.LM36>:
	...

00000940 <.L17>:
     940:	83 e3       	ldi	r24, 0x33	; 51
     942:	0e 94 ba 04 	call	0x974	; 0x974 <LCD_sendCommand>

00000946 <.LM38>:
     946:	82 e3       	ldi	r24, 0x32	; 50
     948:	0e 94 ba 04 	call	0x974	; 0x974 <LCD_sendCommand>

0000094c <.LM39>:
     94c:	88 e2       	ldi	r24, 0x28	; 40
     94e:	0e 94 ba 04 	call	0x974	; 0x974 <LCD_sendCommand>

00000952 <.LM40>:
     952:	8c e0       	ldi	r24, 0x0C	; 12
     954:	0e 94 ba 04 	call	0x974	; 0x974 <LCD_sendCommand>

00000958 <.LM41>:
     958:	81 e0       	ldi	r24, 0x01	; 1
     95a:	0e 94 ba 04 	call	0x974	; 0x974 <LCD_sendCommand>

0000095e <.LM42>:
     95e:	00 00       	nop
     960:	cc 5b       	subi	r28, 0xBC	; 188
     962:	df 4f       	sbci	r29, 0xFF	; 255
     964:	0f b6       	in	r0, 0x3f	; 63
     966:	f8 94       	cli
     968:	de bf       	out	0x3e, r29	; 62
     96a:	0f be       	out	0x3f, r0	; 63
     96c:	cd bf       	out	0x3d, r28	; 61
     96e:	df 91       	pop	r29
     970:	cf 91       	pop	r28
     972:	08 95       	ret

00000974 <LCD_sendCommand>:
     974:	0f 93       	push	r16
     976:	1f 93       	push	r17
     978:	cf 93       	push	r28
     97a:	df 93       	push	r29
     97c:	cd b7       	in	r28, 0x3d	; 61
     97e:	de b7       	in	r29, 0x3e	; 62
     980:	cd 5a       	subi	r28, 0xAD	; 173
     982:	d1 40       	sbci	r29, 0x01	; 1
     984:	0f b6       	in	r0, 0x3f	; 63
     986:	f8 94       	cli
     988:	de bf       	out	0x3e, r29	; 62
     98a:	0f be       	out	0x3f, r0	; 63
     98c:	cd bf       	out	0x3d, r28	; 61
     98e:	9e 01       	movw	r18, r28
     990:	23 54       	subi	r18, 0x43	; 67
     992:	3f 4f       	sbci	r19, 0xFF	; 255
     994:	d9 01       	movw	r26, r18
     996:	8c 93       	st	X, r24

00000998 <.LM44>:
     998:	40 e0       	ldi	r20, 0x00	; 0
     99a:	61 e0       	ldi	r22, 0x01	; 1
     99c:	80 e0       	ldi	r24, 0x00	; 0
     99e:	0e 94 6e 01 	call	0x2dc	; 0x2dc <GPIO_writePin>
     9a2:	9e 01       	movw	r18, r28
     9a4:	23 56       	subi	r18, 0x63	; 99
     9a6:	3f 4f       	sbci	r19, 0xFF	; 255
     9a8:	80 e0       	ldi	r24, 0x00	; 0
     9aa:	90 e0       	ldi	r25, 0x00	; 0
     9ac:	a0 e8       	ldi	r26, 0x80	; 128
     9ae:	bf e3       	ldi	r27, 0x3F	; 63
     9b0:	f9 01       	movw	r30, r18
     9b2:	80 83       	st	Z, r24
     9b4:	91 83       	std	Z+1, r25	; 0x01
     9b6:	a2 83       	std	Z+2, r26	; 0x02
     9b8:	b3 83       	std	Z+3, r27	; 0x03

000009ba <.LM45>:
     9ba:	8e 01       	movw	r16, r28
     9bc:	0f 55       	subi	r16, 0x5F	; 95
     9be:	1f 4f       	sbci	r17, 0xFF	; 255
     9c0:	ce 01       	movw	r24, r28
     9c2:	83 56       	subi	r24, 0x63	; 99
     9c4:	9f 4f       	sbci	r25, 0xFF	; 255
     9c6:	2b ea       	ldi	r18, 0xAB	; 171
     9c8:	3a ea       	ldi	r19, 0xAA	; 170
     9ca:	4a ea       	ldi	r20, 0xAA	; 170
     9cc:	50 e4       	ldi	r21, 0x40	; 64
     9ce:	dc 01       	movw	r26, r24
     9d0:	6d 91       	ld	r22, X+
     9d2:	7d 91       	ld	r23, X+
     9d4:	8d 91       	ld	r24, X+
     9d6:	9c 91       	ld	r25, X
     9d8:	0e 94 5f 29 	call	0x52be	; 0x52be <__mulsf3>
     9dc:	c6 52       	subi	r28, 0x26	; 38
     9de:	df 4f       	sbci	r29, 0xFF	; 255
     9e0:	68 83       	st	Y, r22
     9e2:	79 83       	std	Y+1, r23	; 0x01
     9e4:	8a 83       	std	Y+2, r24	; 0x02
     9e6:	9b 83       	std	Y+3, r25	; 0x03
     9e8:	ca 5d       	subi	r28, 0xDA	; 218
     9ea:	d0 40       	sbci	r29, 0x00	; 0
     9ec:	c6 52       	subi	r28, 0x26	; 38
     9ee:	df 4f       	sbci	r29, 0xFF	; 255
     9f0:	88 81       	ld	r24, Y
     9f2:	99 81       	ldd	r25, Y+1	; 0x01
     9f4:	aa 81       	ldd	r26, Y+2	; 0x02
     9f6:	bb 81       	ldd	r27, Y+3	; 0x03
     9f8:	ca 5d       	subi	r28, 0xDA	; 218
     9fa:	d0 40       	sbci	r29, 0x00	; 0
     9fc:	f8 01       	movw	r30, r16
     9fe:	80 83       	st	Z, r24
     a00:	91 83       	std	Z+1, r25	; 0x01
     a02:	a2 83       	std	Z+2, r26	; 0x02
     a04:	b3 83       	std	Z+3, r27	; 0x03

00000a06 <.LM46>:
     a06:	8e 01       	movw	r16, r28
     a08:	0b 55       	subi	r16, 0x5B	; 91
     a0a:	1f 4f       	sbci	r17, 0xFF	; 255
     a0c:	ce 01       	movw	r24, r28
     a0e:	83 56       	subi	r24, 0x63	; 99
     a10:	9f 4f       	sbci	r25, 0xFF	; 255
     a12:	20 e0       	ldi	r18, 0x00	; 0
     a14:	30 e0       	ldi	r19, 0x00	; 0
     a16:	40 e8       	ldi	r20, 0x80	; 128
     a18:	50 e4       	ldi	r21, 0x40	; 64
     a1a:	dc 01       	movw	r26, r24
     a1c:	6d 91       	ld	r22, X+
     a1e:	7d 91       	ld	r23, X+
     a20:	8d 91       	ld	r24, X+
     a22:	9c 91       	ld	r25, X
     a24:	0e 94 5f 29 	call	0x52be	; 0x52be <__mulsf3>
     a28:	c2 52       	subi	r28, 0x22	; 34
     a2a:	df 4f       	sbci	r29, 0xFF	; 255
     a2c:	68 83       	st	Y, r22
     a2e:	79 83       	std	Y+1, r23	; 0x01
     a30:	8a 83       	std	Y+2, r24	; 0x02
     a32:	9b 83       	std	Y+3, r25	; 0x03
     a34:	ce 5d       	subi	r28, 0xDE	; 222
     a36:	d0 40       	sbci	r29, 0x00	; 0
     a38:	c2 52       	subi	r28, 0x22	; 34
     a3a:	df 4f       	sbci	r29, 0xFF	; 255
     a3c:	88 81       	ld	r24, Y
     a3e:	99 81       	ldd	r25, Y+1	; 0x01
     a40:	aa 81       	ldd	r26, Y+2	; 0x02
     a42:	bb 81       	ldd	r27, Y+3	; 0x03
     a44:	ce 5d       	subi	r28, 0xDE	; 222
     a46:	d0 40       	sbci	r29, 0x00	; 0
     a48:	f8 01       	movw	r30, r16
     a4a:	80 83       	st	Z, r24
     a4c:	91 83       	std	Z+1, r25	; 0x01
     a4e:	a2 83       	std	Z+2, r26	; 0x02
     a50:	b3 83       	std	Z+3, r27	; 0x03

00000a52 <.LM47>:
     a52:	ce 01       	movw	r24, r28
     a54:	8f 55       	subi	r24, 0x5F	; 95
     a56:	9f 4f       	sbci	r25, 0xFF	; 255
     a58:	20 e0       	ldi	r18, 0x00	; 0
     a5a:	30 e0       	ldi	r19, 0x00	; 0
     a5c:	40 e8       	ldi	r20, 0x80	; 128
     a5e:	5f e3       	ldi	r21, 0x3F	; 63
     a60:	dc 01       	movw	r26, r24
     a62:	6d 91       	ld	r22, X+
     a64:	7d 91       	ld	r23, X+
     a66:	8d 91       	ld	r24, X+
     a68:	9c 91       	ld	r25, X
     a6a:	0e 94 3f 28 	call	0x507e	; 0x507e <__cmpsf2>
     a6e:	88 23       	and	r24, r24
     a70:	3c f4       	brge	.+14     	; 0xa80 <.L152>

00000a72 <.LM48>:
     a72:	ce 01       	movw	r24, r28
     a74:	87 55       	subi	r24, 0x57	; 87
     a76:	9f 4f       	sbci	r25, 0xFF	; 255
     a78:	21 e0       	ldi	r18, 0x01	; 1
     a7a:	fc 01       	movw	r30, r24
     a7c:	20 83       	st	Z, r18
     a7e:	9a c1       	rjmp	.+820    	; 0xdb4 <.L29>

00000a80 <.L152>:
     a80:	ce 01       	movw	r24, r28
     a82:	8b 55       	subi	r24, 0x5B	; 91
     a84:	9f 4f       	sbci	r25, 0xFF	; 255
     a86:	20 e0       	ldi	r18, 0x00	; 0
     a88:	3f ef       	ldi	r19, 0xFF	; 255
     a8a:	4f e7       	ldi	r20, 0x7F	; 127
     a8c:	57 e4       	ldi	r21, 0x47	; 71
     a8e:	dc 01       	movw	r26, r24
     a90:	6d 91       	ld	r22, X+
     a92:	7d 91       	ld	r23, X+
     a94:	8d 91       	ld	r24, X+
     a96:	9c 91       	ld	r25, X
     a98:	0e 94 5a 29 	call	0x52b4	; 0x52b4 <__gesf2>
     a9c:	18 16       	cp	r1, r24
     a9e:	0c f0       	brlt	.+2      	; 0xaa2 <.LM50>

00000aa0 <L0^A>:
     aa0:	23 c1       	rjmp	.+582    	; 0xce8 <.L153>

00000aa2 <.LM50>:
     aa2:	ce 01       	movw	r24, r28
     aa4:	83 56       	subi	r24, 0x63	; 99
     aa6:	9f 4f       	sbci	r25, 0xFF	; 255
     aa8:	20 e0       	ldi	r18, 0x00	; 0
     aaa:	30 e0       	ldi	r19, 0x00	; 0
     aac:	4a e7       	ldi	r20, 0x7A	; 122
     aae:	54 e4       	ldi	r21, 0x44	; 68
     ab0:	fc 01       	movw	r30, r24
     ab2:	60 81       	ld	r22, Z
     ab4:	71 81       	ldd	r23, Z+1	; 0x01
     ab6:	82 81       	ldd	r24, Z+2	; 0x02
     ab8:	93 81       	ldd	r25, Z+3	; 0x03
     aba:	0e 94 44 28 	call	0x5088	; 0x5088 <__divsf3>
     abe:	ce 51       	subi	r28, 0x1E	; 30
     ac0:	df 4f       	sbci	r29, 0xFF	; 255
     ac2:	68 83       	st	Y, r22
     ac4:	79 83       	std	Y+1, r23	; 0x01
     ac6:	8a 83       	std	Y+2, r24	; 0x02
     ac8:	9b 83       	std	Y+3, r25	; 0x03
     aca:	c2 5e       	subi	r28, 0xE2	; 226
     acc:	d0 40       	sbci	r29, 0x00	; 0
     ace:	ce 51       	subi	r28, 0x1E	; 30
     ad0:	df 4f       	sbci	r29, 0xFF	; 255
     ad2:	88 81       	ld	r24, Y
     ad4:	99 81       	ldd	r25, Y+1	; 0x01
     ad6:	aa 81       	ldd	r26, Y+2	; 0x02
     ad8:	bb 81       	ldd	r27, Y+3	; 0x03
     ada:	c2 5e       	subi	r28, 0xE2	; 226
     adc:	d0 40       	sbci	r29, 0x00	; 0
     ade:	9e 01       	movw	r18, r28
     ae0:	26 55       	subi	r18, 0x56	; 86
     ae2:	3f 4f       	sbci	r19, 0xFF	; 255
     ae4:	f9 01       	movw	r30, r18
     ae6:	80 83       	st	Z, r24
     ae8:	91 83       	std	Z+1, r25	; 0x01
     aea:	a2 83       	std	Z+2, r26	; 0x02
     aec:	b3 83       	std	Z+3, r27	; 0x03

00000aee <.LM51>:
     aee:	8e 01       	movw	r16, r28
     af0:	02 55       	subi	r16, 0x52	; 82
     af2:	1f 4f       	sbci	r17, 0xFF	; 255
     af4:	ce 01       	movw	r24, r28
     af6:	86 55       	subi	r24, 0x56	; 86
     af8:	9f 4f       	sbci	r25, 0xFF	; 255
     afa:	20 e0       	ldi	r18, 0x00	; 0
     afc:	30 e0       	ldi	r19, 0x00	; 0
     afe:	4a e7       	ldi	r20, 0x7A	; 122
     b00:	55 e4       	ldi	r21, 0x45	; 69
     b02:	dc 01       	movw	r26, r24
     b04:	6d 91       	ld	r22, X+
     b06:	7d 91       	ld	r23, X+
     b08:	8d 91       	ld	r24, X+
     b0a:	9c 91       	ld	r25, X
     b0c:	0e 94 5f 29 	call	0x52be	; 0x52be <__mulsf3>
     b10:	ca 51       	subi	r28, 0x1A	; 26
     b12:	df 4f       	sbci	r29, 0xFF	; 255
     b14:	68 83       	st	Y, r22
     b16:	79 83       	std	Y+1, r23	; 0x01
     b18:	8a 83       	std	Y+2, r24	; 0x02
     b1a:	9b 83       	std	Y+3, r25	; 0x03
     b1c:	c6 5e       	subi	r28, 0xE6	; 230
     b1e:	d0 40       	sbci	r29, 0x00	; 0
     b20:	ca 51       	subi	r28, 0x1A	; 26
     b22:	df 4f       	sbci	r29, 0xFF	; 255
     b24:	88 81       	ld	r24, Y
     b26:	99 81       	ldd	r25, Y+1	; 0x01
     b28:	aa 81       	ldd	r26, Y+2	; 0x02
     b2a:	bb 81       	ldd	r27, Y+3	; 0x03
     b2c:	c6 5e       	subi	r28, 0xE6	; 230
     b2e:	d0 40       	sbci	r29, 0x00	; 0
     b30:	f8 01       	movw	r30, r16
     b32:	80 83       	st	Z, r24
     b34:	91 83       	std	Z+1, r25	; 0x01
     b36:	a2 83       	std	Z+2, r26	; 0x02
     b38:	b3 83       	std	Z+3, r27	; 0x03

00000b3a <.LM52>:
     b3a:	ce 01       	movw	r24, r28
     b3c:	82 55       	subi	r24, 0x52	; 82
     b3e:	9f 4f       	sbci	r25, 0xFF	; 255
     b40:	20 e0       	ldi	r18, 0x00	; 0
     b42:	30 e0       	ldi	r19, 0x00	; 0
     b44:	40 e8       	ldi	r20, 0x80	; 128
     b46:	5f e3       	ldi	r21, 0x3F	; 63
     b48:	dc 01       	movw	r26, r24
     b4a:	6d 91       	ld	r22, X+
     b4c:	7d 91       	ld	r23, X+
     b4e:	8d 91       	ld	r24, X+
     b50:	9c 91       	ld	r25, X
     b52:	0e 94 3f 28 	call	0x507e	; 0x507e <__cmpsf2>
     b56:	88 23       	and	r24, r24
     b58:	4c f4       	brge	.+18     	; 0xb6c <.L154>

00000b5a <.LM53>:
     b5a:	ce 01       	movw	r24, r28
     b5c:	8e 54       	subi	r24, 0x4E	; 78
     b5e:	9f 4f       	sbci	r25, 0xFF	; 255
     b60:	21 e0       	ldi	r18, 0x01	; 1
     b62:	30 e0       	ldi	r19, 0x00	; 0
     b64:	fc 01       	movw	r30, r24
     b66:	31 83       	std	Z+1, r19	; 0x01
     b68:	20 83       	st	Z, r18
     b6a:	a2 c0       	rjmp	.+324    	; 0xcb0 <.L34>

00000b6c <.L154>:
     b6c:	ce 01       	movw	r24, r28
     b6e:	82 55       	subi	r24, 0x52	; 82
     b70:	9f 4f       	sbci	r25, 0xFF	; 255
     b72:	20 e0       	ldi	r18, 0x00	; 0
     b74:	3f ef       	ldi	r19, 0xFF	; 255
     b76:	4f e7       	ldi	r20, 0x7F	; 127
     b78:	57 e4       	ldi	r21, 0x47	; 71
     b7a:	dc 01       	movw	r26, r24
     b7c:	6d 91       	ld	r22, X+
     b7e:	7d 91       	ld	r23, X+
     b80:	8d 91       	ld	r24, X+
     b82:	9c 91       	ld	r25, X
     b84:	0e 94 5a 29 	call	0x52b4	; 0x52b4 <__gesf2>
     b88:	18 16       	cp	r1, r24
     b8a:	0c f0       	brlt	.+2      	; 0xb8e <.LM55>

00000b8c <L0^A>:
     b8c:	73 c0       	rjmp	.+230    	; 0xc74 <.L155>

00000b8e <.LM55>:
     b8e:	ce 01       	movw	r24, r28
     b90:	86 55       	subi	r24, 0x56	; 86
     b92:	9f 4f       	sbci	r25, 0xFF	; 255
     b94:	20 e0       	ldi	r18, 0x00	; 0
     b96:	30 e0       	ldi	r19, 0x00	; 0
     b98:	40 e2       	ldi	r20, 0x20	; 32
     b9a:	51 e4       	ldi	r21, 0x41	; 65
     b9c:	fc 01       	movw	r30, r24
     b9e:	60 81       	ld	r22, Z
     ba0:	71 81       	ldd	r23, Z+1	; 0x01
     ba2:	82 81       	ldd	r24, Z+2	; 0x02
     ba4:	93 81       	ldd	r25, Z+3	; 0x03
     ba6:	0e 94 5f 29 	call	0x52be	; 0x52be <__mulsf3>
     baa:	c6 51       	subi	r28, 0x16	; 22
     bac:	df 4f       	sbci	r29, 0xFF	; 255
     bae:	68 83       	st	Y, r22
     bb0:	79 83       	std	Y+1, r23	; 0x01
     bb2:	8a 83       	std	Y+2, r24	; 0x02
     bb4:	9b 83       	std	Y+3, r25	; 0x03
     bb6:	ca 5e       	subi	r28, 0xEA	; 234
     bb8:	d0 40       	sbci	r29, 0x00	; 0
     bba:	c6 51       	subi	r28, 0x16	; 22
     bbc:	df 4f       	sbci	r29, 0xFF	; 255
     bbe:	88 81       	ld	r24, Y
     bc0:	99 81       	ldd	r25, Y+1	; 0x01
     bc2:	aa 81       	ldd	r26, Y+2	; 0x02
     bc4:	bb 81       	ldd	r27, Y+3	; 0x03
     bc6:	ca 5e       	subi	r28, 0xEA	; 234
     bc8:	d0 40       	sbci	r29, 0x00	; 0
     bca:	ca 52       	subi	r28, 0x2A	; 42
     bcc:	df 4f       	sbci	r29, 0xFF	; 255
     bce:	88 83       	st	Y, r24
     bd0:	99 83       	std	Y+1, r25	; 0x01
     bd2:	aa 83       	std	Y+2, r26	; 0x02
     bd4:	bb 83       	std	Y+3, r27	; 0x03
     bd6:	c6 5d       	subi	r28, 0xD6	; 214
     bd8:	d0 40       	sbci	r29, 0x00	; 0

00000bda <.LM56>:
     bda:	8e 01       	movw	r16, r28
     bdc:	0e 54       	subi	r16, 0x4E	; 78
     bde:	1f 4f       	sbci	r17, 0xFF	; 255
     be0:	ca 52       	subi	r28, 0x2A	; 42
     be2:	df 4f       	sbci	r29, 0xFF	; 255
     be4:	68 81       	ld	r22, Y
     be6:	79 81       	ldd	r23, Y+1	; 0x01
     be8:	8a 81       	ldd	r24, Y+2	; 0x02
     bea:	9b 81       	ldd	r25, Y+3	; 0x03
     bec:	c6 5d       	subi	r28, 0xD6	; 214
     bee:	d0 40       	sbci	r29, 0x00	; 0
     bf0:	0e 94 b6 28 	call	0x516c	; 0x516c <__fixunssfsi>
     bf4:	c2 51       	subi	r28, 0x12	; 18
     bf6:	df 4f       	sbci	r29, 0xFF	; 255
     bf8:	68 83       	st	Y, r22
     bfa:	79 83       	std	Y+1, r23	; 0x01
     bfc:	8a 83       	std	Y+2, r24	; 0x02
     bfe:	9b 83       	std	Y+3, r25	; 0x03
     c00:	ce 5e       	subi	r28, 0xEE	; 238
     c02:	d0 40       	sbci	r29, 0x00	; 0
     c04:	c2 51       	subi	r28, 0x12	; 18
     c06:	df 4f       	sbci	r29, 0xFF	; 255
     c08:	e8 81       	ld	r30, Y
     c0a:	f9 81       	ldd	r31, Y+1	; 0x01
     c0c:	ce 5e       	subi	r28, 0xEE	; 238
     c0e:	d0 40       	sbci	r29, 0x00	; 0
     c10:	d8 01       	movw	r26, r16
     c12:	ed 93       	st	X+, r30
     c14:	fc 93       	st	X, r31

00000c16 <.LM57>:
     c16:	25 c0       	rjmp	.+74     	; 0xc62 <.L37>

00000c18 <.L38>:
     c18:	ce 01       	movw	r24, r28
     c1a:	8c 54       	subi	r24, 0x4C	; 76
     c1c:	9f 4f       	sbci	r25, 0xFF	; 255
     c1e:	20 e9       	ldi	r18, 0x90	; 144
     c20:	31 e0       	ldi	r19, 0x01	; 1
     c22:	dc 01       	movw	r26, r24
     c24:	2d 93       	st	X+, r18
     c26:	3c 93       	st	X, r19

00000c28 <.LM58>:
     c28:	ce 01       	movw	r24, r28
     c2a:	8c 54       	subi	r24, 0x4C	; 76
     c2c:	9f 4f       	sbci	r25, 0xFF	; 255
     c2e:	fc 01       	movw	r30, r24
     c30:	80 81       	ld	r24, Z
     c32:	91 81       	ldd	r25, Z+1	; 0x01

00000c34 <.L1^B5>:
     c34:	01 97       	sbiw	r24, 0x01	; 1
     c36:	f1 f7       	brne	.-4      	; 0xc34 <.L1^B5>
     c38:	9e 01       	movw	r18, r28
     c3a:	2c 54       	subi	r18, 0x4C	; 76
     c3c:	3f 4f       	sbci	r19, 0xFF	; 255
     c3e:	d9 01       	movw	r26, r18
     c40:	8d 93       	st	X+, r24
     c42:	9c 93       	st	X, r25

00000c44 <.LM59>:
	...

00000c46 <.LM60>:
     c46:	ce 01       	movw	r24, r28
     c48:	8e 54       	subi	r24, 0x4E	; 78
     c4a:	9f 4f       	sbci	r25, 0xFF	; 255
     c4c:	9e 01       	movw	r18, r28
     c4e:	2e 54       	subi	r18, 0x4E	; 78
     c50:	3f 4f       	sbci	r19, 0xFF	; 255
     c52:	f9 01       	movw	r30, r18
     c54:	20 81       	ld	r18, Z
     c56:	31 81       	ldd	r19, Z+1	; 0x01
     c58:	21 50       	subi	r18, 0x01	; 1
     c5a:	31 09       	sbc	r19, r1
     c5c:	dc 01       	movw	r26, r24
     c5e:	2d 93       	st	X+, r18
     c60:	3c 93       	st	X, r19

00000c62 <.L37>:
     c62:	ce 01       	movw	r24, r28
     c64:	8e 54       	subi	r24, 0x4E	; 78
     c66:	9f 4f       	sbci	r25, 0xFF	; 255
     c68:	fc 01       	movw	r30, r24
     c6a:	80 81       	ld	r24, Z
     c6c:	91 81       	ldd	r25, Z+1	; 0x01
     c6e:	89 2b       	or	r24, r25
     c70:	99 f6       	brne	.-90     	; 0xc18 <.L38>

00000c72 <.LM62>:
     c72:	39 c0       	rjmp	.+114    	; 0xce6 <.L39>

00000c74 <.L155>:
     c74:	8e 01       	movw	r16, r28
     c76:	0e 54       	subi	r16, 0x4E	; 78
     c78:	1f 4f       	sbci	r17, 0xFF	; 255
     c7a:	ce 01       	movw	r24, r28
     c7c:	82 55       	subi	r24, 0x52	; 82
     c7e:	9f 4f       	sbci	r25, 0xFF	; 255
     c80:	dc 01       	movw	r26, r24
     c82:	6d 91       	ld	r22, X+
     c84:	7d 91       	ld	r23, X+
     c86:	8d 91       	ld	r24, X+
     c88:	9c 91       	ld	r25, X
     c8a:	0e 94 b6 28 	call	0x516c	; 0x516c <__fixunssfsi>
     c8e:	ce 50       	subi	r28, 0x0E	; 14
     c90:	df 4f       	sbci	r29, 0xFF	; 255
     c92:	68 83       	st	Y, r22
     c94:	79 83       	std	Y+1, r23	; 0x01
     c96:	8a 83       	std	Y+2, r24	; 0x02
     c98:	9b 83       	std	Y+3, r25	; 0x03
     c9a:	c2 5f       	subi	r28, 0xF2	; 242
     c9c:	d0 40       	sbci	r29, 0x00	; 0
     c9e:	ce 50       	subi	r28, 0x0E	; 14
     ca0:	df 4f       	sbci	r29, 0xFF	; 255
     ca2:	88 81       	ld	r24, Y
     ca4:	99 81       	ldd	r25, Y+1	; 0x01
     ca6:	c2 5f       	subi	r28, 0xF2	; 242
     ca8:	d0 40       	sbci	r29, 0x00	; 0
     caa:	f8 01       	movw	r30, r16
     cac:	91 83       	std	Z+1, r25	; 0x01
     cae:	80 83       	st	Z, r24

00000cb0 <.L34>:
     cb0:	ce 01       	movw	r24, r28
     cb2:	8a 54       	subi	r24, 0x4A	; 74
     cb4:	9f 4f       	sbci	r25, 0xFF	; 255
     cb6:	9e 01       	movw	r18, r28
     cb8:	2e 54       	subi	r18, 0x4E	; 78
     cba:	3f 4f       	sbci	r19, 0xFF	; 255
     cbc:	d9 01       	movw	r26, r18
     cbe:	2d 91       	ld	r18, X+
     cc0:	3c 91       	ld	r19, X
     cc2:	fc 01       	movw	r30, r24
     cc4:	31 83       	std	Z+1, r19	; 0x01
     cc6:	20 83       	st	Z, r18

00000cc8 <.LM64>:
     cc8:	ce 01       	movw	r24, r28
     cca:	8a 54       	subi	r24, 0x4A	; 74
     ccc:	9f 4f       	sbci	r25, 0xFF	; 255
     cce:	dc 01       	movw	r26, r24
     cd0:	8d 91       	ld	r24, X+
     cd2:	9c 91       	ld	r25, X

00000cd4 <.L1^B6>:
     cd4:	01 97       	sbiw	r24, 0x01	; 1
     cd6:	f1 f7       	brne	.-4      	; 0xcd4 <.L1^B6>
     cd8:	9e 01       	movw	r18, r28
     cda:	2a 54       	subi	r18, 0x4A	; 74
     cdc:	3f 4f       	sbci	r19, 0xFF	; 255
     cde:	f9 01       	movw	r30, r18
     ce0:	91 83       	std	Z+1, r25	; 0x01
     ce2:	80 83       	st	Z, r24

00000ce4 <.LM65>:
	...

00000ce6 <.L39>:
     ce6:	7e c0       	rjmp	.+252    	; 0xde4 <.L40>

00000ce8 <.L153>:
     ce8:	ce 01       	movw	r24, r28
     cea:	8f 55       	subi	r24, 0x5F	; 95
     cec:	9f 4f       	sbci	r25, 0xFF	; 255
     cee:	20 e0       	ldi	r18, 0x00	; 0
     cf0:	30 e0       	ldi	r19, 0x00	; 0
     cf2:	4f e7       	ldi	r20, 0x7F	; 127
     cf4:	53 e4       	ldi	r21, 0x43	; 67
     cf6:	dc 01       	movw	r26, r24
     cf8:	6d 91       	ld	r22, X+
     cfa:	7d 91       	ld	r23, X+
     cfc:	8d 91       	ld	r24, X+
     cfe:	9c 91       	ld	r25, X
     d00:	0e 94 5a 29 	call	0x52b4	; 0x52b4 <__gesf2>
     d04:	18 16       	cp	r1, r24
     d06:	d4 f5       	brge	.+116    	; 0xd7c <.L156>

00000d08 <.LM68>:
     d08:	8e 01       	movw	r16, r28
     d0a:	08 54       	subi	r16, 0x48	; 72
     d0c:	1f 4f       	sbci	r17, 0xFF	; 255
     d0e:	ce 01       	movw	r24, r28
     d10:	8b 55       	subi	r24, 0x5B	; 91
     d12:	9f 4f       	sbci	r25, 0xFF	; 255
     d14:	fc 01       	movw	r30, r24
     d16:	60 81       	ld	r22, Z
     d18:	71 81       	ldd	r23, Z+1	; 0x01
     d1a:	82 81       	ldd	r24, Z+2	; 0x02
     d1c:	93 81       	ldd	r25, Z+3	; 0x03
     d1e:	0e 94 b6 28 	call	0x516c	; 0x516c <__fixunssfsi>
     d22:	ca 50       	subi	r28, 0x0A	; 10
     d24:	df 4f       	sbci	r29, 0xFF	; 255
     d26:	68 83       	st	Y, r22
     d28:	79 83       	std	Y+1, r23	; 0x01
     d2a:	8a 83       	std	Y+2, r24	; 0x02
     d2c:	9b 83       	std	Y+3, r25	; 0x03
     d2e:	c6 5f       	subi	r28, 0xF6	; 246
     d30:	d0 40       	sbci	r29, 0x00	; 0
     d32:	ca 50       	subi	r28, 0x0A	; 10
     d34:	df 4f       	sbci	r29, 0xFF	; 255
     d36:	e8 81       	ld	r30, Y
     d38:	f9 81       	ldd	r31, Y+1	; 0x01
     d3a:	c6 5f       	subi	r28, 0xF6	; 246
     d3c:	d0 40       	sbci	r29, 0x00	; 0
     d3e:	d8 01       	movw	r26, r16
     d40:	ed 93       	st	X+, r30
     d42:	fc 93       	st	X, r31
     d44:	ce 01       	movw	r24, r28
     d46:	86 54       	subi	r24, 0x46	; 70
     d48:	9f 4f       	sbci	r25, 0xFF	; 255
     d4a:	9e 01       	movw	r18, r28
     d4c:	28 54       	subi	r18, 0x48	; 72
     d4e:	3f 4f       	sbci	r19, 0xFF	; 255
     d50:	d9 01       	movw	r26, r18
     d52:	2d 91       	ld	r18, X+
     d54:	3c 91       	ld	r19, X
     d56:	fc 01       	movw	r30, r24
     d58:	31 83       	std	Z+1, r19	; 0x01
     d5a:	20 83       	st	Z, r18

00000d5c <.LM69>:
     d5c:	ce 01       	movw	r24, r28
     d5e:	86 54       	subi	r24, 0x46	; 70
     d60:	9f 4f       	sbci	r25, 0xFF	; 255
     d62:	dc 01       	movw	r26, r24
     d64:	8d 91       	ld	r24, X+
     d66:	9c 91       	ld	r25, X

00000d68 <.L1^B7>:
     d68:	01 97       	sbiw	r24, 0x01	; 1
     d6a:	f1 f7       	brne	.-4      	; 0xd68 <.L1^B7>
     d6c:	9e 01       	movw	r18, r28
     d6e:	26 54       	subi	r18, 0x46	; 70
     d70:	3f 4f       	sbci	r19, 0xFF	; 255
     d72:	f9 01       	movw	r30, r18
     d74:	91 83       	std	Z+1, r25	; 0x01
     d76:	80 83       	st	Z, r24

00000d78 <.LM70>:
	...

00000d7a <.LM71>:
     d7a:	34 c0       	rjmp	.+104    	; 0xde4 <.L40>

00000d7c <.L156>:
     d7c:	8e 01       	movw	r16, r28
     d7e:	07 55       	subi	r16, 0x57	; 87
     d80:	1f 4f       	sbci	r17, 0xFF	; 255
     d82:	ce 01       	movw	r24, r28
     d84:	8f 55       	subi	r24, 0x5F	; 95
     d86:	9f 4f       	sbci	r25, 0xFF	; 255
     d88:	dc 01       	movw	r26, r24
     d8a:	6d 91       	ld	r22, X+
     d8c:	7d 91       	ld	r23, X+
     d8e:	8d 91       	ld	r24, X+
     d90:	9c 91       	ld	r25, X
     d92:	0e 94 b6 28 	call	0x516c	; 0x516c <__fixunssfsi>
     d96:	c6 50       	subi	r28, 0x06	; 6
     d98:	df 4f       	sbci	r29, 0xFF	; 255
     d9a:	68 83       	st	Y, r22
     d9c:	79 83       	std	Y+1, r23	; 0x01
     d9e:	8a 83       	std	Y+2, r24	; 0x02
     da0:	9b 83       	std	Y+3, r25	; 0x03
     da2:	ca 5f       	subi	r28, 0xFA	; 250
     da4:	d0 40       	sbci	r29, 0x00	; 0
     da6:	c6 50       	subi	r28, 0x06	; 6
     da8:	df 4f       	sbci	r29, 0xFF	; 255
     daa:	88 81       	ld	r24, Y
     dac:	ca 5f       	subi	r28, 0xFA	; 250
     dae:	d0 40       	sbci	r29, 0x00	; 0
     db0:	f8 01       	movw	r30, r16
     db2:	80 83       	st	Z, r24

00000db4 <.L29>:
     db4:	ce 01       	movw	r24, r28
     db6:	84 54       	subi	r24, 0x44	; 68
     db8:	9f 4f       	sbci	r25, 0xFF	; 255
     dba:	9e 01       	movw	r18, r28
     dbc:	27 55       	subi	r18, 0x57	; 87
     dbe:	3f 4f       	sbci	r19, 0xFF	; 255
     dc0:	d9 01       	movw	r26, r18
     dc2:	2c 91       	ld	r18, X
     dc4:	fc 01       	movw	r30, r24
     dc6:	20 83       	st	Z, r18

00000dc8 <.LM73>:
     dc8:	ce 01       	movw	r24, r28
     dca:	84 54       	subi	r24, 0x44	; 68
     dcc:	9f 4f       	sbci	r25, 0xFF	; 255
     dce:	dc 01       	movw	r26, r24
     dd0:	8c 91       	ld	r24, X
     dd2:	28 2f       	mov	r18, r24

00000dd4 <.L1^B8>:
     dd4:	2a 95       	dec	r18
     dd6:	f1 f7       	brne	.-4      	; 0xdd4 <.L1^B8>
     dd8:	ce 01       	movw	r24, r28
     dda:	84 54       	subi	r24, 0x44	; 68
     ddc:	9f 4f       	sbci	r25, 0xFF	; 255
     dde:	fc 01       	movw	r30, r24
     de0:	20 83       	st	Z, r18

00000de2 <.LM74>:
	...

00000de4 <.L40>:
     de4:	41 e0       	ldi	r20, 0x01	; 1
     de6:	62 e0       	ldi	r22, 0x02	; 2
     de8:	80 e0       	ldi	r24, 0x00	; 0
     dea:	0e 94 6e 01 	call	0x2dc	; 0x2dc <GPIO_writePin>
     dee:	9e 01       	movw	r18, r28
     df0:	23 58       	subi	r18, 0x83	; 131
     df2:	3f 4f       	sbci	r19, 0xFF	; 255
     df4:	80 e0       	ldi	r24, 0x00	; 0
     df6:	90 e0       	ldi	r25, 0x00	; 0
     df8:	a0 e8       	ldi	r26, 0x80	; 128
     dfa:	bf e3       	ldi	r27, 0x3F	; 63
     dfc:	f9 01       	movw	r30, r18
     dfe:	80 83       	st	Z, r24
     e00:	91 83       	std	Z+1, r25	; 0x01
     e02:	a2 83       	std	Z+2, r26	; 0x02
     e04:	b3 83       	std	Z+3, r27	; 0x03

00000e06 <.LM76>:
     e06:	8e 01       	movw	r16, r28
     e08:	0f 57       	subi	r16, 0x7F	; 127
     e0a:	1f 4f       	sbci	r17, 0xFF	; 255
     e0c:	ce 01       	movw	r24, r28
     e0e:	83 58       	subi	r24, 0x83	; 131
     e10:	9f 4f       	sbci	r25, 0xFF	; 255
     e12:	2b ea       	ldi	r18, 0xAB	; 171
     e14:	3a ea       	ldi	r19, 0xAA	; 170
     e16:	4a ea       	ldi	r20, 0xAA	; 170
     e18:	50 e4       	ldi	r21, 0x40	; 64
     e1a:	dc 01       	movw	r26, r24
     e1c:	6d 91       	ld	r22, X+
     e1e:	7d 91       	ld	r23, X+
     e20:	8d 91       	ld	r24, X+
     e22:	9c 91       	ld	r25, X
     e24:	0e 94 5f 29 	call	0x52be	; 0x52be <__mulsf3>
     e28:	c2 50       	subi	r28, 0x02	; 2
     e2a:	df 4f       	sbci	r29, 0xFF	; 255
     e2c:	68 83       	st	Y, r22
     e2e:	79 83       	std	Y+1, r23	; 0x01
     e30:	8a 83       	std	Y+2, r24	; 0x02
     e32:	9b 83       	std	Y+3, r25	; 0x03
     e34:	ce 5f       	subi	r28, 0xFE	; 254
     e36:	d0 40       	sbci	r29, 0x00	; 0
     e38:	c2 50       	subi	r28, 0x02	; 2
     e3a:	df 4f       	sbci	r29, 0xFF	; 255
     e3c:	88 81       	ld	r24, Y
     e3e:	99 81       	ldd	r25, Y+1	; 0x01
     e40:	aa 81       	ldd	r26, Y+2	; 0x02
     e42:	bb 81       	ldd	r27, Y+3	; 0x03
     e44:	ce 5f       	subi	r28, 0xFE	; 254
     e46:	d0 40       	sbci	r29, 0x00	; 0
     e48:	f8 01       	movw	r30, r16
     e4a:	80 83       	st	Z, r24
     e4c:	91 83       	std	Z+1, r25	; 0x01
     e4e:	a2 83       	std	Z+2, r26	; 0x02
     e50:	b3 83       	std	Z+3, r27	; 0x03

00000e52 <.LM77>:
     e52:	8e 01       	movw	r16, r28
     e54:	0b 57       	subi	r16, 0x7B	; 123
     e56:	1f 4f       	sbci	r17, 0xFF	; 255
     e58:	ce 01       	movw	r24, r28
     e5a:	83 58       	subi	r24, 0x83	; 131
     e5c:	9f 4f       	sbci	r25, 0xFF	; 255
     e5e:	20 e0       	ldi	r18, 0x00	; 0
     e60:	30 e0       	ldi	r19, 0x00	; 0
     e62:	40 e8       	ldi	r20, 0x80	; 128
     e64:	50 e4       	ldi	r21, 0x40	; 64
     e66:	dc 01       	movw	r26, r24
     e68:	6d 91       	ld	r22, X+
     e6a:	7d 91       	ld	r23, X+
     e6c:	8d 91       	ld	r24, X+
     e6e:	9c 91       	ld	r25, X
     e70:	0e 94 5f 29 	call	0x52be	; 0x52be <__mulsf3>
     e74:	ce 5f       	subi	r28, 0xFE	; 254
     e76:	de 4f       	sbci	r29, 0xFE	; 254
     e78:	68 83       	st	Y, r22
     e7a:	79 83       	std	Y+1, r23	; 0x01
     e7c:	8a 83       	std	Y+2, r24	; 0x02
     e7e:	9b 83       	std	Y+3, r25	; 0x03
     e80:	c2 50       	subi	r28, 0x02	; 2
     e82:	d1 40       	sbci	r29, 0x01	; 1
     e84:	ce 5f       	subi	r28, 0xFE	; 254
     e86:	de 4f       	sbci	r29, 0xFE	; 254
     e88:	88 81       	ld	r24, Y
     e8a:	99 81       	ldd	r25, Y+1	; 0x01
     e8c:	aa 81       	ldd	r26, Y+2	; 0x02
     e8e:	bb 81       	ldd	r27, Y+3	; 0x03
     e90:	c2 50       	subi	r28, 0x02	; 2
     e92:	d1 40       	sbci	r29, 0x01	; 1
     e94:	f8 01       	movw	r30, r16
     e96:	80 83       	st	Z, r24
     e98:	91 83       	std	Z+1, r25	; 0x01
     e9a:	a2 83       	std	Z+2, r26	; 0x02
     e9c:	b3 83       	std	Z+3, r27	; 0x03

00000e9e <.LM78>:
     e9e:	ce 01       	movw	r24, r28
     ea0:	8f 57       	subi	r24, 0x7F	; 127
     ea2:	9f 4f       	sbci	r25, 0xFF	; 255
     ea4:	20 e0       	ldi	r18, 0x00	; 0
     ea6:	30 e0       	ldi	r19, 0x00	; 0
     ea8:	40 e8       	ldi	r20, 0x80	; 128
     eaa:	5f e3       	ldi	r21, 0x3F	; 63
     eac:	dc 01       	movw	r26, r24
     eae:	6d 91       	ld	r22, X+
     eb0:	7d 91       	ld	r23, X+
     eb2:	8d 91       	ld	r24, X+
     eb4:	9c 91       	ld	r25, X
     eb6:	0e 94 3f 28 	call	0x507e	; 0x507e <__cmpsf2>
     eba:	88 23       	and	r24, r24
     ebc:	3c f4       	brge	.+14     	; 0xecc <.L157>

00000ebe <.LM79>:
     ebe:	ce 01       	movw	r24, r28
     ec0:	87 57       	subi	r24, 0x77	; 119
     ec2:	9f 4f       	sbci	r25, 0xFF	; 255
     ec4:	21 e0       	ldi	r18, 0x01	; 1
     ec6:	fc 01       	movw	r30, r24
     ec8:	20 83       	st	Z, r18
     eca:	9a c1       	rjmp	.+820    	; 0x1200 <.L45>

00000ecc <.L157>:
     ecc:	ce 01       	movw	r24, r28
     ece:	8b 57       	subi	r24, 0x7B	; 123
     ed0:	9f 4f       	sbci	r25, 0xFF	; 255
     ed2:	20 e0       	ldi	r18, 0x00	; 0
     ed4:	3f ef       	ldi	r19, 0xFF	; 255
     ed6:	4f e7       	ldi	r20, 0x7F	; 127
     ed8:	57 e4       	ldi	r21, 0x47	; 71
     eda:	dc 01       	movw	r26, r24
     edc:	6d 91       	ld	r22, X+
     ede:	7d 91       	ld	r23, X+
     ee0:	8d 91       	ld	r24, X+
     ee2:	9c 91       	ld	r25, X
     ee4:	0e 94 5a 29 	call	0x52b4	; 0x52b4 <__gesf2>
     ee8:	18 16       	cp	r1, r24
     eea:	0c f0       	brlt	.+2      	; 0xeee <.LM81>

00000eec <L0^A>:
     eec:	23 c1       	rjmp	.+582    	; 0x1134 <.L158>

00000eee <.LM81>:
     eee:	ce 01       	movw	r24, r28
     ef0:	83 58       	subi	r24, 0x83	; 131
     ef2:	9f 4f       	sbci	r25, 0xFF	; 255
     ef4:	20 e0       	ldi	r18, 0x00	; 0
     ef6:	30 e0       	ldi	r19, 0x00	; 0
     ef8:	4a e7       	ldi	r20, 0x7A	; 122
     efa:	54 e4       	ldi	r21, 0x44	; 68
     efc:	fc 01       	movw	r30, r24
     efe:	60 81       	ld	r22, Z
     f00:	71 81       	ldd	r23, Z+1	; 0x01
     f02:	82 81       	ldd	r24, Z+2	; 0x02
     f04:	93 81       	ldd	r25, Z+3	; 0x03
     f06:	0e 94 44 28 	call	0x5088	; 0x5088 <__divsf3>
     f0a:	ca 5f       	subi	r28, 0xFA	; 250
     f0c:	de 4f       	sbci	r29, 0xFE	; 254
     f0e:	68 83       	st	Y, r22
     f10:	79 83       	std	Y+1, r23	; 0x01
     f12:	8a 83       	std	Y+2, r24	; 0x02
     f14:	9b 83       	std	Y+3, r25	; 0x03
     f16:	c6 50       	subi	r28, 0x06	; 6
     f18:	d1 40       	sbci	r29, 0x01	; 1
     f1a:	ca 5f       	subi	r28, 0xFA	; 250
     f1c:	de 4f       	sbci	r29, 0xFE	; 254
     f1e:	88 81       	ld	r24, Y
     f20:	99 81       	ldd	r25, Y+1	; 0x01
     f22:	aa 81       	ldd	r26, Y+2	; 0x02
     f24:	bb 81       	ldd	r27, Y+3	; 0x03
     f26:	c6 50       	subi	r28, 0x06	; 6
     f28:	d1 40       	sbci	r29, 0x01	; 1
     f2a:	9e 01       	movw	r18, r28
     f2c:	26 57       	subi	r18, 0x76	; 118
     f2e:	3f 4f       	sbci	r19, 0xFF	; 255
     f30:	f9 01       	movw	r30, r18
     f32:	80 83       	st	Z, r24
     f34:	91 83       	std	Z+1, r25	; 0x01
     f36:	a2 83       	std	Z+2, r26	; 0x02
     f38:	b3 83       	std	Z+3, r27	; 0x03

00000f3a <.LM82>:
     f3a:	8e 01       	movw	r16, r28
     f3c:	02 57       	subi	r16, 0x72	; 114
     f3e:	1f 4f       	sbci	r17, 0xFF	; 255
     f40:	ce 01       	movw	r24, r28
     f42:	86 57       	subi	r24, 0x76	; 118
     f44:	9f 4f       	sbci	r25, 0xFF	; 255
     f46:	20 e0       	ldi	r18, 0x00	; 0
     f48:	30 e0       	ldi	r19, 0x00	; 0
     f4a:	4a e7       	ldi	r20, 0x7A	; 122
     f4c:	55 e4       	ldi	r21, 0x45	; 69
     f4e:	dc 01       	movw	r26, r24
     f50:	6d 91       	ld	r22, X+
     f52:	7d 91       	ld	r23, X+
     f54:	8d 91       	ld	r24, X+
     f56:	9c 91       	ld	r25, X
     f58:	0e 94 5f 29 	call	0x52be	; 0x52be <__mulsf3>
     f5c:	c6 5f       	subi	r28, 0xF6	; 246
     f5e:	de 4f       	sbci	r29, 0xFE	; 254
     f60:	68 83       	st	Y, r22
     f62:	79 83       	std	Y+1, r23	; 0x01
     f64:	8a 83       	std	Y+2, r24	; 0x02
     f66:	9b 83       	std	Y+3, r25	; 0x03
     f68:	ca 50       	subi	r28, 0x0A	; 10
     f6a:	d1 40       	sbci	r29, 0x01	; 1
     f6c:	c6 5f       	subi	r28, 0xF6	; 246
     f6e:	de 4f       	sbci	r29, 0xFE	; 254
     f70:	88 81       	ld	r24, Y
     f72:	99 81       	ldd	r25, Y+1	; 0x01
     f74:	aa 81       	ldd	r26, Y+2	; 0x02
     f76:	bb 81       	ldd	r27, Y+3	; 0x03
     f78:	ca 50       	subi	r28, 0x0A	; 10
     f7a:	d1 40       	sbci	r29, 0x01	; 1
     f7c:	f8 01       	movw	r30, r16
     f7e:	80 83       	st	Z, r24
     f80:	91 83       	std	Z+1, r25	; 0x01
     f82:	a2 83       	std	Z+2, r26	; 0x02
     f84:	b3 83       	std	Z+3, r27	; 0x03

00000f86 <.LM83>:
     f86:	ce 01       	movw	r24, r28
     f88:	82 57       	subi	r24, 0x72	; 114
     f8a:	9f 4f       	sbci	r25, 0xFF	; 255
     f8c:	20 e0       	ldi	r18, 0x00	; 0
     f8e:	30 e0       	ldi	r19, 0x00	; 0
     f90:	40 e8       	ldi	r20, 0x80	; 128
     f92:	5f e3       	ldi	r21, 0x3F	; 63
     f94:	dc 01       	movw	r26, r24
     f96:	6d 91       	ld	r22, X+
     f98:	7d 91       	ld	r23, X+
     f9a:	8d 91       	ld	r24, X+
     f9c:	9c 91       	ld	r25, X
     f9e:	0e 94 3f 28 	call	0x507e	; 0x507e <__cmpsf2>
     fa2:	88 23       	and	r24, r24
     fa4:	4c f4       	brge	.+18     	; 0xfb8 <.L159>

00000fa6 <.LM84>:
     fa6:	ce 01       	movw	r24, r28
     fa8:	8e 56       	subi	r24, 0x6E	; 110
     faa:	9f 4f       	sbci	r25, 0xFF	; 255
     fac:	21 e0       	ldi	r18, 0x01	; 1
     fae:	30 e0       	ldi	r19, 0x00	; 0
     fb0:	fc 01       	movw	r30, r24
     fb2:	31 83       	std	Z+1, r19	; 0x01
     fb4:	20 83       	st	Z, r18
     fb6:	a2 c0       	rjmp	.+324    	; 0x10fc <.L50>

00000fb8 <.L159>:
     fb8:	ce 01       	movw	r24, r28
     fba:	82 57       	subi	r24, 0x72	; 114
     fbc:	9f 4f       	sbci	r25, 0xFF	; 255
     fbe:	20 e0       	ldi	r18, 0x00	; 0
     fc0:	3f ef       	ldi	r19, 0xFF	; 255
     fc2:	4f e7       	ldi	r20, 0x7F	; 127
     fc4:	57 e4       	ldi	r21, 0x47	; 71
     fc6:	dc 01       	movw	r26, r24
     fc8:	6d 91       	ld	r22, X+
     fca:	7d 91       	ld	r23, X+
     fcc:	8d 91       	ld	r24, X+
     fce:	9c 91       	ld	r25, X
     fd0:	0e 94 5a 29 	call	0x52b4	; 0x52b4 <__gesf2>
     fd4:	18 16       	cp	r1, r24
     fd6:	0c f0       	brlt	.+2      	; 0xfda <.LM86>

00000fd8 <L0^A>:
     fd8:	73 c0       	rjmp	.+230    	; 0x10c0 <.L160>

00000fda <.LM86>:
     fda:	ce 01       	movw	r24, r28
     fdc:	86 57       	subi	r24, 0x76	; 118
     fde:	9f 4f       	sbci	r25, 0xFF	; 255
     fe0:	20 e0       	ldi	r18, 0x00	; 0
     fe2:	30 e0       	ldi	r19, 0x00	; 0
     fe4:	40 e2       	ldi	r20, 0x20	; 32
     fe6:	51 e4       	ldi	r21, 0x41	; 65
     fe8:	fc 01       	movw	r30, r24
     fea:	60 81       	ld	r22, Z
     fec:	71 81       	ldd	r23, Z+1	; 0x01
     fee:	82 81       	ldd	r24, Z+2	; 0x02
     ff0:	93 81       	ldd	r25, Z+3	; 0x03
     ff2:	0e 94 5f 29 	call	0x52be	; 0x52be <__mulsf3>
     ff6:	c2 5f       	subi	r28, 0xF2	; 242
     ff8:	de 4f       	sbci	r29, 0xFE	; 254
     ffa:	68 83       	st	Y, r22
     ffc:	79 83       	std	Y+1, r23	; 0x01
     ffe:	8a 83       	std	Y+2, r24	; 0x02
    1000:	9b 83       	std	Y+3, r25	; 0x03
    1002:	ce 50       	subi	r28, 0x0E	; 14
    1004:	d1 40       	sbci	r29, 0x01	; 1
    1006:	c2 5f       	subi	r28, 0xF2	; 242
    1008:	de 4f       	sbci	r29, 0xFE	; 254
    100a:	88 81       	ld	r24, Y
    100c:	99 81       	ldd	r25, Y+1	; 0x01
    100e:	aa 81       	ldd	r26, Y+2	; 0x02
    1010:	bb 81       	ldd	r27, Y+3	; 0x03
    1012:	ce 50       	subi	r28, 0x0E	; 14
    1014:	d1 40       	sbci	r29, 0x01	; 1
    1016:	ce 52       	subi	r28, 0x2E	; 46
    1018:	df 4f       	sbci	r29, 0xFF	; 255
    101a:	88 83       	st	Y, r24
    101c:	99 83       	std	Y+1, r25	; 0x01
    101e:	aa 83       	std	Y+2, r26	; 0x02
    1020:	bb 83       	std	Y+3, r27	; 0x03
    1022:	c2 5d       	subi	r28, 0xD2	; 210
    1024:	d0 40       	sbci	r29, 0x00	; 0

00001026 <.LM87>:
    1026:	8e 01       	movw	r16, r28
    1028:	0e 56       	subi	r16, 0x6E	; 110
    102a:	1f 4f       	sbci	r17, 0xFF	; 255
    102c:	ce 52       	subi	r28, 0x2E	; 46
    102e:	df 4f       	sbci	r29, 0xFF	; 255
    1030:	68 81       	ld	r22, Y
    1032:	79 81       	ldd	r23, Y+1	; 0x01
    1034:	8a 81       	ldd	r24, Y+2	; 0x02
    1036:	9b 81       	ldd	r25, Y+3	; 0x03
    1038:	c2 5d       	subi	r28, 0xD2	; 210
    103a:	d0 40       	sbci	r29, 0x00	; 0
    103c:	0e 94 b6 28 	call	0x516c	; 0x516c <__fixunssfsi>
    1040:	ce 5e       	subi	r28, 0xEE	; 238
    1042:	de 4f       	sbci	r29, 0xFE	; 254
    1044:	68 83       	st	Y, r22
    1046:	79 83       	std	Y+1, r23	; 0x01
    1048:	8a 83       	std	Y+2, r24	; 0x02
    104a:	9b 83       	std	Y+3, r25	; 0x03
    104c:	c2 51       	subi	r28, 0x12	; 18
    104e:	d1 40       	sbci	r29, 0x01	; 1
    1050:	ce 5e       	subi	r28, 0xEE	; 238
    1052:	de 4f       	sbci	r29, 0xFE	; 254
    1054:	e8 81       	ld	r30, Y
    1056:	f9 81       	ldd	r31, Y+1	; 0x01
    1058:	c2 51       	subi	r28, 0x12	; 18
    105a:	d1 40       	sbci	r29, 0x01	; 1
    105c:	d8 01       	movw	r26, r16
    105e:	ed 93       	st	X+, r30
    1060:	fc 93       	st	X, r31

00001062 <.LM88>:
    1062:	25 c0       	rjmp	.+74     	; 0x10ae <.L53>

00001064 <.L54>:
    1064:	ce 01       	movw	r24, r28
    1066:	8c 56       	subi	r24, 0x6C	; 108
    1068:	9f 4f       	sbci	r25, 0xFF	; 255
    106a:	20 e9       	ldi	r18, 0x90	; 144
    106c:	31 e0       	ldi	r19, 0x01	; 1
    106e:	dc 01       	movw	r26, r24
    1070:	2d 93       	st	X+, r18
    1072:	3c 93       	st	X, r19

00001074 <.LM89>:
    1074:	ce 01       	movw	r24, r28
    1076:	8c 56       	subi	r24, 0x6C	; 108
    1078:	9f 4f       	sbci	r25, 0xFF	; 255
    107a:	fc 01       	movw	r30, r24
    107c:	80 81       	ld	r24, Z
    107e:	91 81       	ldd	r25, Z+1	; 0x01

00001080 <.L1^B9>:
    1080:	01 97       	sbiw	r24, 0x01	; 1
    1082:	f1 f7       	brne	.-4      	; 0x1080 <.L1^B9>
    1084:	9e 01       	movw	r18, r28
    1086:	2c 56       	subi	r18, 0x6C	; 108
    1088:	3f 4f       	sbci	r19, 0xFF	; 255
    108a:	d9 01       	movw	r26, r18
    108c:	8d 93       	st	X+, r24
    108e:	9c 93       	st	X, r25

00001090 <.LM90>:
	...

00001092 <.LM91>:
    1092:	ce 01       	movw	r24, r28
    1094:	8e 56       	subi	r24, 0x6E	; 110
    1096:	9f 4f       	sbci	r25, 0xFF	; 255
    1098:	9e 01       	movw	r18, r28
    109a:	2e 56       	subi	r18, 0x6E	; 110
    109c:	3f 4f       	sbci	r19, 0xFF	; 255
    109e:	f9 01       	movw	r30, r18
    10a0:	20 81       	ld	r18, Z
    10a2:	31 81       	ldd	r19, Z+1	; 0x01
    10a4:	21 50       	subi	r18, 0x01	; 1
    10a6:	31 09       	sbc	r19, r1
    10a8:	dc 01       	movw	r26, r24
    10aa:	2d 93       	st	X+, r18
    10ac:	3c 93       	st	X, r19

000010ae <.L53>:
    10ae:	ce 01       	movw	r24, r28
    10b0:	8e 56       	subi	r24, 0x6E	; 110
    10b2:	9f 4f       	sbci	r25, 0xFF	; 255
    10b4:	fc 01       	movw	r30, r24
    10b6:	80 81       	ld	r24, Z
    10b8:	91 81       	ldd	r25, Z+1	; 0x01
    10ba:	89 2b       	or	r24, r25
    10bc:	99 f6       	brne	.-90     	; 0x1064 <.L54>

000010be <.LM93>:
    10be:	39 c0       	rjmp	.+114    	; 0x1132 <.L55>

000010c0 <.L160>:
    10c0:	8e 01       	movw	r16, r28
    10c2:	0e 56       	subi	r16, 0x6E	; 110
    10c4:	1f 4f       	sbci	r17, 0xFF	; 255
    10c6:	ce 01       	movw	r24, r28
    10c8:	82 57       	subi	r24, 0x72	; 114
    10ca:	9f 4f       	sbci	r25, 0xFF	; 255
    10cc:	dc 01       	movw	r26, r24
    10ce:	6d 91       	ld	r22, X+
    10d0:	7d 91       	ld	r23, X+
    10d2:	8d 91       	ld	r24, X+
    10d4:	9c 91       	ld	r25, X
    10d6:	0e 94 b6 28 	call	0x516c	; 0x516c <__fixunssfsi>
    10da:	ca 5e       	subi	r28, 0xEA	; 234
    10dc:	de 4f       	sbci	r29, 0xFE	; 254
    10de:	68 83       	st	Y, r22
    10e0:	79 83       	std	Y+1, r23	; 0x01
    10e2:	8a 83       	std	Y+2, r24	; 0x02
    10e4:	9b 83       	std	Y+3, r25	; 0x03
    10e6:	c6 51       	subi	r28, 0x16	; 22
    10e8:	d1 40       	sbci	r29, 0x01	; 1
    10ea:	ca 5e       	subi	r28, 0xEA	; 234
    10ec:	de 4f       	sbci	r29, 0xFE	; 254
    10ee:	88 81       	ld	r24, Y
    10f0:	99 81       	ldd	r25, Y+1	; 0x01
    10f2:	c6 51       	subi	r28, 0x16	; 22
    10f4:	d1 40       	sbci	r29, 0x01	; 1
    10f6:	f8 01       	movw	r30, r16
    10f8:	91 83       	std	Z+1, r25	; 0x01
    10fa:	80 83       	st	Z, r24

000010fc <.L50>:
    10fc:	ce 01       	movw	r24, r28
    10fe:	8a 56       	subi	r24, 0x6A	; 106
    1100:	9f 4f       	sbci	r25, 0xFF	; 255
    1102:	9e 01       	movw	r18, r28
    1104:	2e 56       	subi	r18, 0x6E	; 110
    1106:	3f 4f       	sbci	r19, 0xFF	; 255
    1108:	d9 01       	movw	r26, r18
    110a:	2d 91       	ld	r18, X+
    110c:	3c 91       	ld	r19, X
    110e:	fc 01       	movw	r30, r24
    1110:	31 83       	std	Z+1, r19	; 0x01
    1112:	20 83       	st	Z, r18

00001114 <.LM95>:
    1114:	ce 01       	movw	r24, r28
    1116:	8a 56       	subi	r24, 0x6A	; 106
    1118:	9f 4f       	sbci	r25, 0xFF	; 255
    111a:	dc 01       	movw	r26, r24
    111c:	8d 91       	ld	r24, X+
    111e:	9c 91       	ld	r25, X

00001120 <.L1^B10>:
    1120:	01 97       	sbiw	r24, 0x01	; 1
    1122:	f1 f7       	brne	.-4      	; 0x1120 <.L1^B10>
    1124:	9e 01       	movw	r18, r28
    1126:	2a 56       	subi	r18, 0x6A	; 106
    1128:	3f 4f       	sbci	r19, 0xFF	; 255
    112a:	f9 01       	movw	r30, r18
    112c:	91 83       	std	Z+1, r25	; 0x01
    112e:	80 83       	st	Z, r24

00001130 <.LM96>:
	...

00001132 <.L55>:
    1132:	7e c0       	rjmp	.+252    	; 0x1230 <.L56>

00001134 <.L158>:
    1134:	ce 01       	movw	r24, r28
    1136:	8f 57       	subi	r24, 0x7F	; 127
    1138:	9f 4f       	sbci	r25, 0xFF	; 255
    113a:	20 e0       	ldi	r18, 0x00	; 0
    113c:	30 e0       	ldi	r19, 0x00	; 0
    113e:	4f e7       	ldi	r20, 0x7F	; 127
    1140:	53 e4       	ldi	r21, 0x43	; 67
    1142:	dc 01       	movw	r26, r24
    1144:	6d 91       	ld	r22, X+
    1146:	7d 91       	ld	r23, X+
    1148:	8d 91       	ld	r24, X+
    114a:	9c 91       	ld	r25, X
    114c:	0e 94 5a 29 	call	0x52b4	; 0x52b4 <__gesf2>
    1150:	18 16       	cp	r1, r24
    1152:	d4 f5       	brge	.+116    	; 0x11c8 <.L161>

00001154 <.LM99>:
    1154:	8e 01       	movw	r16, r28
    1156:	08 56       	subi	r16, 0x68	; 104
    1158:	1f 4f       	sbci	r17, 0xFF	; 255
    115a:	ce 01       	movw	r24, r28
    115c:	8b 57       	subi	r24, 0x7B	; 123
    115e:	9f 4f       	sbci	r25, 0xFF	; 255
    1160:	fc 01       	movw	r30, r24
    1162:	60 81       	ld	r22, Z
    1164:	71 81       	ldd	r23, Z+1	; 0x01
    1166:	82 81       	ldd	r24, Z+2	; 0x02
    1168:	93 81       	ldd	r25, Z+3	; 0x03
    116a:	0e 94 b6 28 	call	0x516c	; 0x516c <__fixunssfsi>
    116e:	c6 5e       	subi	r28, 0xE6	; 230
    1170:	de 4f       	sbci	r29, 0xFE	; 254
    1172:	68 83       	st	Y, r22
    1174:	79 83       	std	Y+1, r23	; 0x01
    1176:	8a 83       	std	Y+2, r24	; 0x02
    1178:	9b 83       	std	Y+3, r25	; 0x03
    117a:	ca 51       	subi	r28, 0x1A	; 26
    117c:	d1 40       	sbci	r29, 0x01	; 1
    117e:	c6 5e       	subi	r28, 0xE6	; 230
    1180:	de 4f       	sbci	r29, 0xFE	; 254
    1182:	e8 81       	ld	r30, Y
    1184:	f9 81       	ldd	r31, Y+1	; 0x01
    1186:	ca 51       	subi	r28, 0x1A	; 26
    1188:	d1 40       	sbci	r29, 0x01	; 1
    118a:	d8 01       	movw	r26, r16
    118c:	ed 93       	st	X+, r30
    118e:	fc 93       	st	X, r31
    1190:	ce 01       	movw	r24, r28
    1192:	86 56       	subi	r24, 0x66	; 102
    1194:	9f 4f       	sbci	r25, 0xFF	; 255
    1196:	9e 01       	movw	r18, r28
    1198:	28 56       	subi	r18, 0x68	; 104
    119a:	3f 4f       	sbci	r19, 0xFF	; 255
    119c:	d9 01       	movw	r26, r18
    119e:	2d 91       	ld	r18, X+
    11a0:	3c 91       	ld	r19, X
    11a2:	fc 01       	movw	r30, r24
    11a4:	31 83       	std	Z+1, r19	; 0x01
    11a6:	20 83       	st	Z, r18

000011a8 <.LM100>:
    11a8:	ce 01       	movw	r24, r28
    11aa:	86 56       	subi	r24, 0x66	; 102
    11ac:	9f 4f       	sbci	r25, 0xFF	; 255
    11ae:	dc 01       	movw	r26, r24
    11b0:	8d 91       	ld	r24, X+
    11b2:	9c 91       	ld	r25, X

000011b4 <.L1^B11>:
    11b4:	01 97       	sbiw	r24, 0x01	; 1
    11b6:	f1 f7       	brne	.-4      	; 0x11b4 <.L1^B11>
    11b8:	9e 01       	movw	r18, r28
    11ba:	26 56       	subi	r18, 0x66	; 102
    11bc:	3f 4f       	sbci	r19, 0xFF	; 255
    11be:	f9 01       	movw	r30, r18
    11c0:	91 83       	std	Z+1, r25	; 0x01
    11c2:	80 83       	st	Z, r24

000011c4 <.LM101>:
	...

000011c6 <.LM102>:
    11c6:	34 c0       	rjmp	.+104    	; 0x1230 <.L56>

000011c8 <.L161>:
    11c8:	8e 01       	movw	r16, r28
    11ca:	07 57       	subi	r16, 0x77	; 119
    11cc:	1f 4f       	sbci	r17, 0xFF	; 255
    11ce:	ce 01       	movw	r24, r28
    11d0:	8f 57       	subi	r24, 0x7F	; 127
    11d2:	9f 4f       	sbci	r25, 0xFF	; 255
    11d4:	dc 01       	movw	r26, r24
    11d6:	6d 91       	ld	r22, X+
    11d8:	7d 91       	ld	r23, X+
    11da:	8d 91       	ld	r24, X+
    11dc:	9c 91       	ld	r25, X
    11de:	0e 94 b6 28 	call	0x516c	; 0x516c <__fixunssfsi>
    11e2:	c2 5e       	subi	r28, 0xE2	; 226
    11e4:	de 4f       	sbci	r29, 0xFE	; 254
    11e6:	68 83       	st	Y, r22
    11e8:	79 83       	std	Y+1, r23	; 0x01
    11ea:	8a 83       	std	Y+2, r24	; 0x02
    11ec:	9b 83       	std	Y+3, r25	; 0x03
    11ee:	ce 51       	subi	r28, 0x1E	; 30
    11f0:	d1 40       	sbci	r29, 0x01	; 1
    11f2:	c2 5e       	subi	r28, 0xE2	; 226
    11f4:	de 4f       	sbci	r29, 0xFE	; 254
    11f6:	88 81       	ld	r24, Y
    11f8:	ce 51       	subi	r28, 0x1E	; 30
    11fa:	d1 40       	sbci	r29, 0x01	; 1
    11fc:	f8 01       	movw	r30, r16
    11fe:	80 83       	st	Z, r24

00001200 <.L45>:
    1200:	ce 01       	movw	r24, r28
    1202:	84 56       	subi	r24, 0x64	; 100
    1204:	9f 4f       	sbci	r25, 0xFF	; 255
    1206:	9e 01       	movw	r18, r28
    1208:	27 57       	subi	r18, 0x77	; 119
    120a:	3f 4f       	sbci	r19, 0xFF	; 255
    120c:	d9 01       	movw	r26, r18
    120e:	2c 91       	ld	r18, X
    1210:	fc 01       	movw	r30, r24
    1212:	20 83       	st	Z, r18

00001214 <.LM104>:
    1214:	ce 01       	movw	r24, r28
    1216:	84 56       	subi	r24, 0x64	; 100
    1218:	9f 4f       	sbci	r25, 0xFF	; 255
    121a:	dc 01       	movw	r26, r24
    121c:	8c 91       	ld	r24, X
    121e:	28 2f       	mov	r18, r24

00001220 <.L1^B12>:
    1220:	2a 95       	dec	r18
    1222:	f1 f7       	brne	.-4      	; 0x1220 <.L1^B12>
    1224:	ce 01       	movw	r24, r28
    1226:	84 56       	subi	r24, 0x64	; 100
    1228:	9f 4f       	sbci	r25, 0xFF	; 255
    122a:	fc 01       	movw	r30, r24
    122c:	20 83       	st	Z, r18

0000122e <.LM105>:
	...

00001230 <.L56>:
    1230:	ce 01       	movw	r24, r28
    1232:	83 54       	subi	r24, 0x43	; 67
    1234:	9f 4f       	sbci	r25, 0xFF	; 255
    1236:	dc 01       	movw	r26, r24
    1238:	8c 91       	ld	r24, X
    123a:	82 95       	swap	r24
    123c:	8f 70       	andi	r24, 0x0F	; 15

0000123e <.LM107>:
    123e:	81 70       	andi	r24, 0x01	; 1
    1240:	48 2f       	mov	r20, r24
    1242:	63 e0       	ldi	r22, 0x03	; 3
    1244:	80 e0       	ldi	r24, 0x00	; 0
    1246:	0e 94 6e 01 	call	0x2dc	; 0x2dc <GPIO_writePin>

0000124a <.LM108>:
    124a:	ce 01       	movw	r24, r28
    124c:	83 54       	subi	r24, 0x43	; 67
    124e:	9f 4f       	sbci	r25, 0xFF	; 255
    1250:	fc 01       	movw	r30, r24
    1252:	80 81       	ld	r24, Z
    1254:	82 95       	swap	r24
    1256:	86 95       	lsr	r24
    1258:	87 70       	andi	r24, 0x07	; 7

0000125a <.LM109>:
    125a:	81 70       	andi	r24, 0x01	; 1
    125c:	48 2f       	mov	r20, r24
    125e:	64 e0       	ldi	r22, 0x04	; 4
    1260:	80 e0       	ldi	r24, 0x00	; 0
    1262:	0e 94 6e 01 	call	0x2dc	; 0x2dc <GPIO_writePin>

00001266 <.LM110>:
    1266:	ce 01       	movw	r24, r28
    1268:	83 54       	subi	r24, 0x43	; 67
    126a:	9f 4f       	sbci	r25, 0xFF	; 255
    126c:	dc 01       	movw	r26, r24
    126e:	8c 91       	ld	r24, X
    1270:	82 95       	swap	r24
    1272:	86 95       	lsr	r24
    1274:	86 95       	lsr	r24
    1276:	83 70       	andi	r24, 0x03	; 3

00001278 <.LM111>:
    1278:	81 70       	andi	r24, 0x01	; 1
    127a:	48 2f       	mov	r20, r24
    127c:	65 e0       	ldi	r22, 0x05	; 5
    127e:	80 e0       	ldi	r24, 0x00	; 0
    1280:	0e 94 6e 01 	call	0x2dc	; 0x2dc <GPIO_writePin>

00001284 <.LM112>:
    1284:	ce 01       	movw	r24, r28
    1286:	83 54       	subi	r24, 0x43	; 67
    1288:	9f 4f       	sbci	r25, 0xFF	; 255
    128a:	fc 01       	movw	r30, r24
    128c:	80 81       	ld	r24, Z
    128e:	88 1f       	adc	r24, r24
    1290:	88 27       	eor	r24, r24
    1292:	88 1f       	adc	r24, r24
    1294:	48 2f       	mov	r20, r24
    1296:	66 e0       	ldi	r22, 0x06	; 6
    1298:	80 e0       	ldi	r24, 0x00	; 0
    129a:	0e 94 6e 01 	call	0x2dc	; 0x2dc <GPIO_writePin>
    129e:	9e 01       	movw	r18, r28
    12a0:	21 59       	subi	r18, 0x91	; 145
    12a2:	3f 4f       	sbci	r19, 0xFF	; 255
    12a4:	80 e0       	ldi	r24, 0x00	; 0
    12a6:	90 e0       	ldi	r25, 0x00	; 0
    12a8:	a0 e8       	ldi	r26, 0x80	; 128
    12aa:	bf e3       	ldi	r27, 0x3F	; 63
    12ac:	f9 01       	movw	r30, r18
    12ae:	80 83       	st	Z, r24
    12b0:	91 83       	std	Z+1, r25	; 0x01
    12b2:	a2 83       	std	Z+2, r26	; 0x02
    12b4:	b3 83       	std	Z+3, r27	; 0x03

000012b6 <.LM113>:
    12b6:	8e 01       	movw	r16, r28
    12b8:	0d 58       	subi	r16, 0x8D	; 141
    12ba:	1f 4f       	sbci	r17, 0xFF	; 255
    12bc:	ce 01       	movw	r24, r28
    12be:	81 59       	subi	r24, 0x91	; 145
    12c0:	9f 4f       	sbci	r25, 0xFF	; 255
    12c2:	20 e0       	ldi	r18, 0x00	; 0
    12c4:	30 e0       	ldi	r19, 0x00	; 0
    12c6:	4a e7       	ldi	r20, 0x7A	; 122
    12c8:	55 e4       	ldi	r21, 0x45	; 69
    12ca:	dc 01       	movw	r26, r24
    12cc:	6d 91       	ld	r22, X+
    12ce:	7d 91       	ld	r23, X+
    12d0:	8d 91       	ld	r24, X+
    12d2:	9c 91       	ld	r25, X
    12d4:	0e 94 5f 29 	call	0x52be	; 0x52be <__mulsf3>
    12d8:	ce 5d       	subi	r28, 0xDE	; 222
    12da:	de 4f       	sbci	r29, 0xFE	; 254
    12dc:	68 83       	st	Y, r22
    12de:	79 83       	std	Y+1, r23	; 0x01
    12e0:	8a 83       	std	Y+2, r24	; 0x02
    12e2:	9b 83       	std	Y+3, r25	; 0x03
    12e4:	c2 52       	subi	r28, 0x22	; 34
    12e6:	d1 40       	sbci	r29, 0x01	; 1
    12e8:	ce 5d       	subi	r28, 0xDE	; 222
    12ea:	de 4f       	sbci	r29, 0xFE	; 254
    12ec:	88 81       	ld	r24, Y
    12ee:	99 81       	ldd	r25, Y+1	; 0x01
    12f0:	aa 81       	ldd	r26, Y+2	; 0x02
    12f2:	bb 81       	ldd	r27, Y+3	; 0x03
    12f4:	c2 52       	subi	r28, 0x22	; 34
    12f6:	d1 40       	sbci	r29, 0x01	; 1
    12f8:	f8 01       	movw	r30, r16
    12fa:	80 83       	st	Z, r24
    12fc:	91 83       	std	Z+1, r25	; 0x01
    12fe:	a2 83       	std	Z+2, r26	; 0x02
    1300:	b3 83       	std	Z+3, r27	; 0x03

00001302 <.LM114>:
    1302:	ce 01       	movw	r24, r28
    1304:	8d 58       	subi	r24, 0x8D	; 141
    1306:	9f 4f       	sbci	r25, 0xFF	; 255
    1308:	20 e0       	ldi	r18, 0x00	; 0
    130a:	30 e0       	ldi	r19, 0x00	; 0
    130c:	40 e8       	ldi	r20, 0x80	; 128
    130e:	5f e3       	ldi	r21, 0x3F	; 63
    1310:	dc 01       	movw	r26, r24
    1312:	6d 91       	ld	r22, X+
    1314:	7d 91       	ld	r23, X+
    1316:	8d 91       	ld	r24, X+
    1318:	9c 91       	ld	r25, X
    131a:	0e 94 3f 28 	call	0x507e	; 0x507e <__cmpsf2>
    131e:	88 23       	and	r24, r24
    1320:	4c f4       	brge	.+18     	; 0x1334 <.L162>

00001322 <.LM115>:
    1322:	ce 01       	movw	r24, r28
    1324:	89 58       	subi	r24, 0x89	; 137
    1326:	9f 4f       	sbci	r25, 0xFF	; 255
    1328:	21 e0       	ldi	r18, 0x01	; 1
    132a:	30 e0       	ldi	r19, 0x00	; 0
    132c:	fc 01       	movw	r30, r24
    132e:	31 83       	std	Z+1, r19	; 0x01
    1330:	20 83       	st	Z, r18
    1332:	a2 c0       	rjmp	.+324    	; 0x1478 <.L61>

00001334 <.L162>:
    1334:	ce 01       	movw	r24, r28
    1336:	8d 58       	subi	r24, 0x8D	; 141
    1338:	9f 4f       	sbci	r25, 0xFF	; 255
    133a:	20 e0       	ldi	r18, 0x00	; 0
    133c:	3f ef       	ldi	r19, 0xFF	; 255
    133e:	4f e7       	ldi	r20, 0x7F	; 127
    1340:	57 e4       	ldi	r21, 0x47	; 71
    1342:	dc 01       	movw	r26, r24
    1344:	6d 91       	ld	r22, X+
    1346:	7d 91       	ld	r23, X+
    1348:	8d 91       	ld	r24, X+
    134a:	9c 91       	ld	r25, X
    134c:	0e 94 5a 29 	call	0x52b4	; 0x52b4 <__gesf2>
    1350:	18 16       	cp	r1, r24
    1352:	0c f0       	brlt	.+2      	; 0x1356 <.LM117>

00001354 <L0^A>:
    1354:	73 c0       	rjmp	.+230    	; 0x143c <.L163>

00001356 <.LM117>:
    1356:	ce 01       	movw	r24, r28
    1358:	81 59       	subi	r24, 0x91	; 145
    135a:	9f 4f       	sbci	r25, 0xFF	; 255
    135c:	20 e0       	ldi	r18, 0x00	; 0
    135e:	30 e0       	ldi	r19, 0x00	; 0
    1360:	40 e2       	ldi	r20, 0x20	; 32
    1362:	51 e4       	ldi	r21, 0x41	; 65
    1364:	fc 01       	movw	r30, r24
    1366:	60 81       	ld	r22, Z
    1368:	71 81       	ldd	r23, Z+1	; 0x01
    136a:	82 81       	ldd	r24, Z+2	; 0x02
    136c:	93 81       	ldd	r25, Z+3	; 0x03
    136e:	0e 94 5f 29 	call	0x52be	; 0x52be <__mulsf3>
    1372:	ca 5d       	subi	r28, 0xDA	; 218
    1374:	de 4f       	sbci	r29, 0xFE	; 254
    1376:	68 83       	st	Y, r22
    1378:	79 83       	std	Y+1, r23	; 0x01
    137a:	8a 83       	std	Y+2, r24	; 0x02
    137c:	9b 83       	std	Y+3, r25	; 0x03
    137e:	c6 52       	subi	r28, 0x26	; 38
    1380:	d1 40       	sbci	r29, 0x01	; 1
    1382:	ca 5d       	subi	r28, 0xDA	; 218
    1384:	de 4f       	sbci	r29, 0xFE	; 254
    1386:	88 81       	ld	r24, Y
    1388:	99 81       	ldd	r25, Y+1	; 0x01
    138a:	aa 81       	ldd	r26, Y+2	; 0x02
    138c:	bb 81       	ldd	r27, Y+3	; 0x03
    138e:	c6 52       	subi	r28, 0x26	; 38
    1390:	d1 40       	sbci	r29, 0x01	; 1
    1392:	c2 53       	subi	r28, 0x32	; 50
    1394:	df 4f       	sbci	r29, 0xFF	; 255
    1396:	88 83       	st	Y, r24
    1398:	99 83       	std	Y+1, r25	; 0x01
    139a:	aa 83       	std	Y+2, r26	; 0x02
    139c:	bb 83       	std	Y+3, r27	; 0x03
    139e:	ce 5c       	subi	r28, 0xCE	; 206
    13a0:	d0 40       	sbci	r29, 0x00	; 0

000013a2 <.LM118>:
    13a2:	8e 01       	movw	r16, r28
    13a4:	09 58       	subi	r16, 0x89	; 137
    13a6:	1f 4f       	sbci	r17, 0xFF	; 255
    13a8:	c2 53       	subi	r28, 0x32	; 50
    13aa:	df 4f       	sbci	r29, 0xFF	; 255
    13ac:	68 81       	ld	r22, Y
    13ae:	79 81       	ldd	r23, Y+1	; 0x01
    13b0:	8a 81       	ldd	r24, Y+2	; 0x02
    13b2:	9b 81       	ldd	r25, Y+3	; 0x03
    13b4:	ce 5c       	subi	r28, 0xCE	; 206
    13b6:	d0 40       	sbci	r29, 0x00	; 0
    13b8:	0e 94 b6 28 	call	0x516c	; 0x516c <__fixunssfsi>
    13bc:	c6 5d       	subi	r28, 0xD6	; 214
    13be:	de 4f       	sbci	r29, 0xFE	; 254
    13c0:	68 83       	st	Y, r22
    13c2:	79 83       	std	Y+1, r23	; 0x01
    13c4:	8a 83       	std	Y+2, r24	; 0x02
    13c6:	9b 83       	std	Y+3, r25	; 0x03
    13c8:	ca 52       	subi	r28, 0x2A	; 42
    13ca:	d1 40       	sbci	r29, 0x01	; 1
    13cc:	c6 5d       	subi	r28, 0xD6	; 214
    13ce:	de 4f       	sbci	r29, 0xFE	; 254
    13d0:	e8 81       	ld	r30, Y
    13d2:	f9 81       	ldd	r31, Y+1	; 0x01
    13d4:	ca 52       	subi	r28, 0x2A	; 42
    13d6:	d1 40       	sbci	r29, 0x01	; 1
    13d8:	d8 01       	movw	r26, r16
    13da:	ed 93       	st	X+, r30
    13dc:	fc 93       	st	X, r31

000013de <.LM119>:
    13de:	25 c0       	rjmp	.+74     	; 0x142a <.L64>

000013e0 <.L65>:
    13e0:	ce 01       	movw	r24, r28
    13e2:	87 58       	subi	r24, 0x87	; 135
    13e4:	9f 4f       	sbci	r25, 0xFF	; 255
    13e6:	20 e9       	ldi	r18, 0x90	; 144
    13e8:	31 e0       	ldi	r19, 0x01	; 1
    13ea:	dc 01       	movw	r26, r24
    13ec:	2d 93       	st	X+, r18
    13ee:	3c 93       	st	X, r19

000013f0 <.LM120>:
    13f0:	ce 01       	movw	r24, r28
    13f2:	87 58       	subi	r24, 0x87	; 135
    13f4:	9f 4f       	sbci	r25, 0xFF	; 255
    13f6:	fc 01       	movw	r30, r24
    13f8:	80 81       	ld	r24, Z
    13fa:	91 81       	ldd	r25, Z+1	; 0x01

000013fc <.L1^B13>:
    13fc:	01 97       	sbiw	r24, 0x01	; 1
    13fe:	f1 f7       	brne	.-4      	; 0x13fc <.L1^B13>
    1400:	9e 01       	movw	r18, r28
    1402:	27 58       	subi	r18, 0x87	; 135
    1404:	3f 4f       	sbci	r19, 0xFF	; 255
    1406:	d9 01       	movw	r26, r18
    1408:	8d 93       	st	X+, r24
    140a:	9c 93       	st	X, r25

0000140c <.LM121>:
	...

0000140e <.LM122>:
    140e:	ce 01       	movw	r24, r28
    1410:	89 58       	subi	r24, 0x89	; 137
    1412:	9f 4f       	sbci	r25, 0xFF	; 255
    1414:	9e 01       	movw	r18, r28
    1416:	29 58       	subi	r18, 0x89	; 137
    1418:	3f 4f       	sbci	r19, 0xFF	; 255
    141a:	f9 01       	movw	r30, r18
    141c:	20 81       	ld	r18, Z
    141e:	31 81       	ldd	r19, Z+1	; 0x01
    1420:	21 50       	subi	r18, 0x01	; 1
    1422:	31 09       	sbc	r19, r1
    1424:	dc 01       	movw	r26, r24
    1426:	2d 93       	st	X+, r18
    1428:	3c 93       	st	X, r19

0000142a <.L64>:
    142a:	ce 01       	movw	r24, r28
    142c:	89 58       	subi	r24, 0x89	; 137
    142e:	9f 4f       	sbci	r25, 0xFF	; 255
    1430:	fc 01       	movw	r30, r24
    1432:	80 81       	ld	r24, Z
    1434:	91 81       	ldd	r25, Z+1	; 0x01
    1436:	89 2b       	or	r24, r25
    1438:	99 f6       	brne	.-90     	; 0x13e0 <.L65>

0000143a <.LM124>:
    143a:	39 c0       	rjmp	.+114    	; 0x14ae <.L66>

0000143c <.L163>:
    143c:	8e 01       	movw	r16, r28
    143e:	09 58       	subi	r16, 0x89	; 137
    1440:	1f 4f       	sbci	r17, 0xFF	; 255
    1442:	ce 01       	movw	r24, r28
    1444:	8d 58       	subi	r24, 0x8D	; 141
    1446:	9f 4f       	sbci	r25, 0xFF	; 255
    1448:	dc 01       	movw	r26, r24
    144a:	6d 91       	ld	r22, X+
    144c:	7d 91       	ld	r23, X+
    144e:	8d 91       	ld	r24, X+
    1450:	9c 91       	ld	r25, X
    1452:	0e 94 b6 28 	call	0x516c	; 0x516c <__fixunssfsi>
    1456:	c2 5d       	subi	r28, 0xD2	; 210
    1458:	de 4f       	sbci	r29, 0xFE	; 254
    145a:	68 83       	st	Y, r22
    145c:	79 83       	std	Y+1, r23	; 0x01
    145e:	8a 83       	std	Y+2, r24	; 0x02
    1460:	9b 83       	std	Y+3, r25	; 0x03
    1462:	ce 52       	subi	r28, 0x2E	; 46
    1464:	d1 40       	sbci	r29, 0x01	; 1
    1466:	c2 5d       	subi	r28, 0xD2	; 210
    1468:	de 4f       	sbci	r29, 0xFE	; 254
    146a:	88 81       	ld	r24, Y
    146c:	99 81       	ldd	r25, Y+1	; 0x01
    146e:	ce 52       	subi	r28, 0x2E	; 46
    1470:	d1 40       	sbci	r29, 0x01	; 1
    1472:	f8 01       	movw	r30, r16
    1474:	91 83       	std	Z+1, r25	; 0x01
    1476:	80 83       	st	Z, r24

00001478 <.L61>:
    1478:	ce 01       	movw	r24, r28
    147a:	85 58       	subi	r24, 0x85	; 133
    147c:	9f 4f       	sbci	r25, 0xFF	; 255
    147e:	9e 01       	movw	r18, r28
    1480:	29 58       	subi	r18, 0x89	; 137
    1482:	3f 4f       	sbci	r19, 0xFF	; 255
    1484:	d9 01       	movw	r26, r18
    1486:	2d 91       	ld	r18, X+
    1488:	3c 91       	ld	r19, X
    148a:	fc 01       	movw	r30, r24
    148c:	31 83       	std	Z+1, r19	; 0x01
    148e:	20 83       	st	Z, r18

00001490 <.LM126>:
    1490:	ce 01       	movw	r24, r28
    1492:	85 58       	subi	r24, 0x85	; 133
    1494:	9f 4f       	sbci	r25, 0xFF	; 255
    1496:	dc 01       	movw	r26, r24
    1498:	8d 91       	ld	r24, X+
    149a:	9c 91       	ld	r25, X

0000149c <.L1^B14>:
    149c:	01 97       	sbiw	r24, 0x01	; 1
    149e:	f1 f7       	brne	.-4      	; 0x149c <.L1^B14>
    14a0:	9e 01       	movw	r18, r28
    14a2:	25 58       	subi	r18, 0x85	; 133
    14a4:	3f 4f       	sbci	r19, 0xFF	; 255
    14a6:	f9 01       	movw	r30, r18
    14a8:	91 83       	std	Z+1, r25	; 0x01
    14aa:	80 83       	st	Z, r24

000014ac <.LM127>:
	...

000014ae <.L66>:
    14ae:	40 e0       	ldi	r20, 0x00	; 0
    14b0:	62 e0       	ldi	r22, 0x02	; 2
    14b2:	80 e0       	ldi	r24, 0x00	; 0
    14b4:	0e 94 6e 01 	call	0x2dc	; 0x2dc <GPIO_writePin>
    14b8:	9e 01       	movw	r18, r28
    14ba:	21 5b       	subi	r18, 0xB1	; 177
    14bc:	3f 4f       	sbci	r19, 0xFF	; 255
    14be:	80 e0       	ldi	r24, 0x00	; 0
    14c0:	90 e0       	ldi	r25, 0x00	; 0
    14c2:	a0 e8       	ldi	r26, 0x80	; 128
    14c4:	bf e3       	ldi	r27, 0x3F	; 63
    14c6:	f9 01       	movw	r30, r18
    14c8:	80 83       	st	Z, r24
    14ca:	91 83       	std	Z+1, r25	; 0x01
    14cc:	a2 83       	std	Z+2, r26	; 0x02
    14ce:	b3 83       	std	Z+3, r27	; 0x03

000014d0 <.LM129>:
    14d0:	8e 01       	movw	r16, r28
    14d2:	0d 5a       	subi	r16, 0xAD	; 173
    14d4:	1f 4f       	sbci	r17, 0xFF	; 255
    14d6:	ce 01       	movw	r24, r28
    14d8:	81 5b       	subi	r24, 0xB1	; 177
    14da:	9f 4f       	sbci	r25, 0xFF	; 255
    14dc:	2b ea       	ldi	r18, 0xAB	; 171
    14de:	3a ea       	ldi	r19, 0xAA	; 170
    14e0:	4a ea       	ldi	r20, 0xAA	; 170
    14e2:	50 e4       	ldi	r21, 0x40	; 64
    14e4:	dc 01       	movw	r26, r24
    14e6:	6d 91       	ld	r22, X+
    14e8:	7d 91       	ld	r23, X+
    14ea:	8d 91       	ld	r24, X+
    14ec:	9c 91       	ld	r25, X
    14ee:	0e 94 5f 29 	call	0x52be	; 0x52be <__mulsf3>
    14f2:	ce 5c       	subi	r28, 0xCE	; 206
    14f4:	de 4f       	sbci	r29, 0xFE	; 254
    14f6:	68 83       	st	Y, r22
    14f8:	79 83       	std	Y+1, r23	; 0x01
    14fa:	8a 83       	std	Y+2, r24	; 0x02
    14fc:	9b 83       	std	Y+3, r25	; 0x03
    14fe:	c2 53       	subi	r28, 0x32	; 50
    1500:	d1 40       	sbci	r29, 0x01	; 1
    1502:	ce 5c       	subi	r28, 0xCE	; 206
    1504:	de 4f       	sbci	r29, 0xFE	; 254
    1506:	88 81       	ld	r24, Y
    1508:	99 81       	ldd	r25, Y+1	; 0x01
    150a:	aa 81       	ldd	r26, Y+2	; 0x02
    150c:	bb 81       	ldd	r27, Y+3	; 0x03
    150e:	c2 53       	subi	r28, 0x32	; 50
    1510:	d1 40       	sbci	r29, 0x01	; 1
    1512:	f8 01       	movw	r30, r16
    1514:	80 83       	st	Z, r24
    1516:	91 83       	std	Z+1, r25	; 0x01
    1518:	a2 83       	std	Z+2, r26	; 0x02
    151a:	b3 83       	std	Z+3, r27	; 0x03

0000151c <.LM130>:
    151c:	8e 01       	movw	r16, r28
    151e:	09 5a       	subi	r16, 0xA9	; 169
    1520:	1f 4f       	sbci	r17, 0xFF	; 255
    1522:	ce 01       	movw	r24, r28
    1524:	81 5b       	subi	r24, 0xB1	; 177
    1526:	9f 4f       	sbci	r25, 0xFF	; 255
    1528:	20 e0       	ldi	r18, 0x00	; 0
    152a:	30 e0       	ldi	r19, 0x00	; 0
    152c:	40 e8       	ldi	r20, 0x80	; 128
    152e:	50 e4       	ldi	r21, 0x40	; 64
    1530:	dc 01       	movw	r26, r24
    1532:	6d 91       	ld	r22, X+
    1534:	7d 91       	ld	r23, X+
    1536:	8d 91       	ld	r24, X+
    1538:	9c 91       	ld	r25, X
    153a:	0e 94 5f 29 	call	0x52be	; 0x52be <__mulsf3>
    153e:	ca 5c       	subi	r28, 0xCA	; 202
    1540:	de 4f       	sbci	r29, 0xFE	; 254
    1542:	68 83       	st	Y, r22
    1544:	79 83       	std	Y+1, r23	; 0x01
    1546:	8a 83       	std	Y+2, r24	; 0x02
    1548:	9b 83       	std	Y+3, r25	; 0x03
    154a:	c6 53       	subi	r28, 0x36	; 54
    154c:	d1 40       	sbci	r29, 0x01	; 1
    154e:	ca 5c       	subi	r28, 0xCA	; 202
    1550:	de 4f       	sbci	r29, 0xFE	; 254
    1552:	88 81       	ld	r24, Y
    1554:	99 81       	ldd	r25, Y+1	; 0x01
    1556:	aa 81       	ldd	r26, Y+2	; 0x02
    1558:	bb 81       	ldd	r27, Y+3	; 0x03
    155a:	c6 53       	subi	r28, 0x36	; 54
    155c:	d1 40       	sbci	r29, 0x01	; 1
    155e:	f8 01       	movw	r30, r16
    1560:	80 83       	st	Z, r24
    1562:	91 83       	std	Z+1, r25	; 0x01
    1564:	a2 83       	std	Z+2, r26	; 0x02
    1566:	b3 83       	std	Z+3, r27	; 0x03

00001568 <.LM131>:
    1568:	ce 01       	movw	r24, r28
    156a:	8d 5a       	subi	r24, 0xAD	; 173
    156c:	9f 4f       	sbci	r25, 0xFF	; 255
    156e:	20 e0       	ldi	r18, 0x00	; 0
    1570:	30 e0       	ldi	r19, 0x00	; 0
    1572:	40 e8       	ldi	r20, 0x80	; 128
    1574:	5f e3       	ldi	r21, 0x3F	; 63
    1576:	dc 01       	movw	r26, r24
    1578:	6d 91       	ld	r22, X+
    157a:	7d 91       	ld	r23, X+
    157c:	8d 91       	ld	r24, X+
    157e:	9c 91       	ld	r25, X
    1580:	0e 94 3f 28 	call	0x507e	; 0x507e <__cmpsf2>
    1584:	88 23       	and	r24, r24
    1586:	3c f4       	brge	.+14     	; 0x1596 <.L164>

00001588 <.LM132>:
    1588:	ce 01       	movw	r24, r28
    158a:	85 5a       	subi	r24, 0xA5	; 165
    158c:	9f 4f       	sbci	r25, 0xFF	; 255
    158e:	21 e0       	ldi	r18, 0x01	; 1
    1590:	fc 01       	movw	r30, r24
    1592:	20 83       	st	Z, r18
    1594:	9a c1       	rjmp	.+820    	; 0x18ca <.L69>

00001596 <.L164>:
    1596:	ce 01       	movw	r24, r28
    1598:	89 5a       	subi	r24, 0xA9	; 169
    159a:	9f 4f       	sbci	r25, 0xFF	; 255
    159c:	20 e0       	ldi	r18, 0x00	; 0
    159e:	3f ef       	ldi	r19, 0xFF	; 255
    15a0:	4f e7       	ldi	r20, 0x7F	; 127
    15a2:	57 e4       	ldi	r21, 0x47	; 71
    15a4:	dc 01       	movw	r26, r24
    15a6:	6d 91       	ld	r22, X+
    15a8:	7d 91       	ld	r23, X+
    15aa:	8d 91       	ld	r24, X+
    15ac:	9c 91       	ld	r25, X
    15ae:	0e 94 5a 29 	call	0x52b4	; 0x52b4 <__gesf2>
    15b2:	18 16       	cp	r1, r24
    15b4:	0c f0       	brlt	.+2      	; 0x15b8 <.LM134>

000015b6 <L0^A>:
    15b6:	23 c1       	rjmp	.+582    	; 0x17fe <.L165>

000015b8 <.LM134>:
    15b8:	ce 01       	movw	r24, r28
    15ba:	81 5b       	subi	r24, 0xB1	; 177
    15bc:	9f 4f       	sbci	r25, 0xFF	; 255
    15be:	20 e0       	ldi	r18, 0x00	; 0
    15c0:	30 e0       	ldi	r19, 0x00	; 0
    15c2:	4a e7       	ldi	r20, 0x7A	; 122
    15c4:	54 e4       	ldi	r21, 0x44	; 68
    15c6:	fc 01       	movw	r30, r24
    15c8:	60 81       	ld	r22, Z
    15ca:	71 81       	ldd	r23, Z+1	; 0x01
    15cc:	82 81       	ldd	r24, Z+2	; 0x02
    15ce:	93 81       	ldd	r25, Z+3	; 0x03
    15d0:	0e 94 44 28 	call	0x5088	; 0x5088 <__divsf3>
    15d4:	c6 5c       	subi	r28, 0xC6	; 198
    15d6:	de 4f       	sbci	r29, 0xFE	; 254
    15d8:	68 83       	st	Y, r22
    15da:	79 83       	std	Y+1, r23	; 0x01
    15dc:	8a 83       	std	Y+2, r24	; 0x02
    15de:	9b 83       	std	Y+3, r25	; 0x03
    15e0:	ca 53       	subi	r28, 0x3A	; 58
    15e2:	d1 40       	sbci	r29, 0x01	; 1
    15e4:	c6 5c       	subi	r28, 0xC6	; 198
    15e6:	de 4f       	sbci	r29, 0xFE	; 254
    15e8:	88 81       	ld	r24, Y
    15ea:	99 81       	ldd	r25, Y+1	; 0x01
    15ec:	aa 81       	ldd	r26, Y+2	; 0x02
    15ee:	bb 81       	ldd	r27, Y+3	; 0x03
    15f0:	ca 53       	subi	r28, 0x3A	; 58
    15f2:	d1 40       	sbci	r29, 0x01	; 1
    15f4:	9e 01       	movw	r18, r28
    15f6:	24 5a       	subi	r18, 0xA4	; 164
    15f8:	3f 4f       	sbci	r19, 0xFF	; 255
    15fa:	f9 01       	movw	r30, r18
    15fc:	80 83       	st	Z, r24
    15fe:	91 83       	std	Z+1, r25	; 0x01
    1600:	a2 83       	std	Z+2, r26	; 0x02
    1602:	b3 83       	std	Z+3, r27	; 0x03

00001604 <.LM135>:
    1604:	8e 01       	movw	r16, r28
    1606:	00 5a       	subi	r16, 0xA0	; 160
    1608:	1f 4f       	sbci	r17, 0xFF	; 255
    160a:	ce 01       	movw	r24, r28
    160c:	84 5a       	subi	r24, 0xA4	; 164
    160e:	9f 4f       	sbci	r25, 0xFF	; 255
    1610:	20 e0       	ldi	r18, 0x00	; 0
    1612:	30 e0       	ldi	r19, 0x00	; 0
    1614:	4a e7       	ldi	r20, 0x7A	; 122
    1616:	55 e4       	ldi	r21, 0x45	; 69
    1618:	dc 01       	movw	r26, r24
    161a:	6d 91       	ld	r22, X+
    161c:	7d 91       	ld	r23, X+
    161e:	8d 91       	ld	r24, X+
    1620:	9c 91       	ld	r25, X
    1622:	0e 94 5f 29 	call	0x52be	; 0x52be <__mulsf3>
    1626:	c2 5c       	subi	r28, 0xC2	; 194
    1628:	de 4f       	sbci	r29, 0xFE	; 254
    162a:	68 83       	st	Y, r22
    162c:	79 83       	std	Y+1, r23	; 0x01
    162e:	8a 83       	std	Y+2, r24	; 0x02
    1630:	9b 83       	std	Y+3, r25	; 0x03
    1632:	ce 53       	subi	r28, 0x3E	; 62
    1634:	d1 40       	sbci	r29, 0x01	; 1
    1636:	c2 5c       	subi	r28, 0xC2	; 194
    1638:	de 4f       	sbci	r29, 0xFE	; 254
    163a:	88 81       	ld	r24, Y
    163c:	99 81       	ldd	r25, Y+1	; 0x01
    163e:	aa 81       	ldd	r26, Y+2	; 0x02
    1640:	bb 81       	ldd	r27, Y+3	; 0x03
    1642:	ce 53       	subi	r28, 0x3E	; 62
    1644:	d1 40       	sbci	r29, 0x01	; 1
    1646:	f8 01       	movw	r30, r16
    1648:	80 83       	st	Z, r24
    164a:	91 83       	std	Z+1, r25	; 0x01
    164c:	a2 83       	std	Z+2, r26	; 0x02
    164e:	b3 83       	std	Z+3, r27	; 0x03

00001650 <.LM136>:
    1650:	ce 01       	movw	r24, r28
    1652:	80 5a       	subi	r24, 0xA0	; 160
    1654:	9f 4f       	sbci	r25, 0xFF	; 255
    1656:	20 e0       	ldi	r18, 0x00	; 0
    1658:	30 e0       	ldi	r19, 0x00	; 0
    165a:	40 e8       	ldi	r20, 0x80	; 128
    165c:	5f e3       	ldi	r21, 0x3F	; 63
    165e:	dc 01       	movw	r26, r24
    1660:	6d 91       	ld	r22, X+
    1662:	7d 91       	ld	r23, X+
    1664:	8d 91       	ld	r24, X+
    1666:	9c 91       	ld	r25, X
    1668:	0e 94 3f 28 	call	0x507e	; 0x507e <__cmpsf2>
    166c:	88 23       	and	r24, r24
    166e:	4c f4       	brge	.+18     	; 0x1682 <.L166>

00001670 <.LM137>:
    1670:	ce 01       	movw	r24, r28
    1672:	8c 59       	subi	r24, 0x9C	; 156
    1674:	9f 4f       	sbci	r25, 0xFF	; 255
    1676:	21 e0       	ldi	r18, 0x01	; 1
    1678:	30 e0       	ldi	r19, 0x00	; 0
    167a:	fc 01       	movw	r30, r24
    167c:	31 83       	std	Z+1, r19	; 0x01
    167e:	20 83       	st	Z, r18
    1680:	a2 c0       	rjmp	.+324    	; 0x17c6 <.L74>

00001682 <.L166>:
    1682:	ce 01       	movw	r24, r28
    1684:	80 5a       	subi	r24, 0xA0	; 160
    1686:	9f 4f       	sbci	r25, 0xFF	; 255
    1688:	20 e0       	ldi	r18, 0x00	; 0
    168a:	3f ef       	ldi	r19, 0xFF	; 255
    168c:	4f e7       	ldi	r20, 0x7F	; 127
    168e:	57 e4       	ldi	r21, 0x47	; 71
    1690:	dc 01       	movw	r26, r24
    1692:	6d 91       	ld	r22, X+
    1694:	7d 91       	ld	r23, X+
    1696:	8d 91       	ld	r24, X+
    1698:	9c 91       	ld	r25, X
    169a:	0e 94 5a 29 	call	0x52b4	; 0x52b4 <__gesf2>
    169e:	18 16       	cp	r1, r24
    16a0:	0c f0       	brlt	.+2      	; 0x16a4 <.LM139>

000016a2 <L0^A>:
    16a2:	73 c0       	rjmp	.+230    	; 0x178a <.L167>

000016a4 <.LM139>:
    16a4:	ce 01       	movw	r24, r28
    16a6:	84 5a       	subi	r24, 0xA4	; 164
    16a8:	9f 4f       	sbci	r25, 0xFF	; 255
    16aa:	20 e0       	ldi	r18, 0x00	; 0
    16ac:	30 e0       	ldi	r19, 0x00	; 0
    16ae:	40 e2       	ldi	r20, 0x20	; 32
    16b0:	51 e4       	ldi	r21, 0x41	; 65
    16b2:	fc 01       	movw	r30, r24
    16b4:	60 81       	ld	r22, Z
    16b6:	71 81       	ldd	r23, Z+1	; 0x01
    16b8:	82 81       	ldd	r24, Z+2	; 0x02
    16ba:	93 81       	ldd	r25, Z+3	; 0x03
    16bc:	0e 94 5f 29 	call	0x52be	; 0x52be <__mulsf3>
    16c0:	ce 5b       	subi	r28, 0xBE	; 190
    16c2:	de 4f       	sbci	r29, 0xFE	; 254
    16c4:	68 83       	st	Y, r22
    16c6:	79 83       	std	Y+1, r23	; 0x01
    16c8:	8a 83       	std	Y+2, r24	; 0x02
    16ca:	9b 83       	std	Y+3, r25	; 0x03
    16cc:	c2 54       	subi	r28, 0x42	; 66
    16ce:	d1 40       	sbci	r29, 0x01	; 1
    16d0:	ce 5b       	subi	r28, 0xBE	; 190
    16d2:	de 4f       	sbci	r29, 0xFE	; 254
    16d4:	88 81       	ld	r24, Y
    16d6:	99 81       	ldd	r25, Y+1	; 0x01
    16d8:	aa 81       	ldd	r26, Y+2	; 0x02
    16da:	bb 81       	ldd	r27, Y+3	; 0x03
    16dc:	c2 54       	subi	r28, 0x42	; 66
    16de:	d1 40       	sbci	r29, 0x01	; 1
    16e0:	c6 53       	subi	r28, 0x36	; 54
    16e2:	df 4f       	sbci	r29, 0xFF	; 255
    16e4:	88 83       	st	Y, r24
    16e6:	99 83       	std	Y+1, r25	; 0x01
    16e8:	aa 83       	std	Y+2, r26	; 0x02
    16ea:	bb 83       	std	Y+3, r27	; 0x03
    16ec:	ca 5c       	subi	r28, 0xCA	; 202
    16ee:	d0 40       	sbci	r29, 0x00	; 0

000016f0 <.LM140>:
    16f0:	8e 01       	movw	r16, r28
    16f2:	0c 59       	subi	r16, 0x9C	; 156
    16f4:	1f 4f       	sbci	r17, 0xFF	; 255
    16f6:	c6 53       	subi	r28, 0x36	; 54
    16f8:	df 4f       	sbci	r29, 0xFF	; 255
    16fa:	68 81       	ld	r22, Y
    16fc:	79 81       	ldd	r23, Y+1	; 0x01
    16fe:	8a 81       	ldd	r24, Y+2	; 0x02
    1700:	9b 81       	ldd	r25, Y+3	; 0x03
    1702:	ca 5c       	subi	r28, 0xCA	; 202
    1704:	d0 40       	sbci	r29, 0x00	; 0
    1706:	0e 94 b6 28 	call	0x516c	; 0x516c <__fixunssfsi>
    170a:	ca 5b       	subi	r28, 0xBA	; 186
    170c:	de 4f       	sbci	r29, 0xFE	; 254
    170e:	68 83       	st	Y, r22
    1710:	79 83       	std	Y+1, r23	; 0x01
    1712:	8a 83       	std	Y+2, r24	; 0x02
    1714:	9b 83       	std	Y+3, r25	; 0x03
    1716:	c6 54       	subi	r28, 0x46	; 70
    1718:	d1 40       	sbci	r29, 0x01	; 1
    171a:	ca 5b       	subi	r28, 0xBA	; 186
    171c:	de 4f       	sbci	r29, 0xFE	; 254
    171e:	e8 81       	ld	r30, Y
    1720:	f9 81       	ldd	r31, Y+1	; 0x01
    1722:	c6 54       	subi	r28, 0x46	; 70
    1724:	d1 40       	sbci	r29, 0x01	; 1
    1726:	d8 01       	movw	r26, r16
    1728:	ed 93       	st	X+, r30
    172a:	fc 93       	st	X, r31

0000172c <.LM141>:
    172c:	25 c0       	rjmp	.+74     	; 0x1778 <.L77>

0000172e <.L78>:
    172e:	ce 01       	movw	r24, r28
    1730:	8a 59       	subi	r24, 0x9A	; 154
    1732:	9f 4f       	sbci	r25, 0xFF	; 255
    1734:	20 e9       	ldi	r18, 0x90	; 144
    1736:	31 e0       	ldi	r19, 0x01	; 1
    1738:	dc 01       	movw	r26, r24
    173a:	2d 93       	st	X+, r18
    173c:	3c 93       	st	X, r19

0000173e <.LM142>:
    173e:	ce 01       	movw	r24, r28
    1740:	8a 59       	subi	r24, 0x9A	; 154
    1742:	9f 4f       	sbci	r25, 0xFF	; 255
    1744:	fc 01       	movw	r30, r24
    1746:	80 81       	ld	r24, Z
    1748:	91 81       	ldd	r25, Z+1	; 0x01

0000174a <.L1^B15>:
    174a:	01 97       	sbiw	r24, 0x01	; 1
    174c:	f1 f7       	brne	.-4      	; 0x174a <.L1^B15>
    174e:	9e 01       	movw	r18, r28
    1750:	2a 59       	subi	r18, 0x9A	; 154
    1752:	3f 4f       	sbci	r19, 0xFF	; 255
    1754:	d9 01       	movw	r26, r18
    1756:	8d 93       	st	X+, r24
    1758:	9c 93       	st	X, r25

0000175a <.LM143>:
	...

0000175c <.LM144>:
    175c:	ce 01       	movw	r24, r28
    175e:	8c 59       	subi	r24, 0x9C	; 156
    1760:	9f 4f       	sbci	r25, 0xFF	; 255
    1762:	9e 01       	movw	r18, r28
    1764:	2c 59       	subi	r18, 0x9C	; 156
    1766:	3f 4f       	sbci	r19, 0xFF	; 255
    1768:	f9 01       	movw	r30, r18
    176a:	20 81       	ld	r18, Z
    176c:	31 81       	ldd	r19, Z+1	; 0x01
    176e:	21 50       	subi	r18, 0x01	; 1
    1770:	31 09       	sbc	r19, r1
    1772:	dc 01       	movw	r26, r24
    1774:	2d 93       	st	X+, r18
    1776:	3c 93       	st	X, r19

00001778 <.L77>:
    1778:	ce 01       	movw	r24, r28
    177a:	8c 59       	subi	r24, 0x9C	; 156
    177c:	9f 4f       	sbci	r25, 0xFF	; 255
    177e:	fc 01       	movw	r30, r24
    1780:	80 81       	ld	r24, Z
    1782:	91 81       	ldd	r25, Z+1	; 0x01
    1784:	89 2b       	or	r24, r25
    1786:	99 f6       	brne	.-90     	; 0x172e <.L78>

00001788 <.LM146>:
    1788:	39 c0       	rjmp	.+114    	; 0x17fc <.L79>

0000178a <.L167>:
    178a:	8e 01       	movw	r16, r28
    178c:	0c 59       	subi	r16, 0x9C	; 156
    178e:	1f 4f       	sbci	r17, 0xFF	; 255
    1790:	ce 01       	movw	r24, r28
    1792:	80 5a       	subi	r24, 0xA0	; 160
    1794:	9f 4f       	sbci	r25, 0xFF	; 255
    1796:	dc 01       	movw	r26, r24
    1798:	6d 91       	ld	r22, X+
    179a:	7d 91       	ld	r23, X+
    179c:	8d 91       	ld	r24, X+
    179e:	9c 91       	ld	r25, X
    17a0:	0e 94 b6 28 	call	0x516c	; 0x516c <__fixunssfsi>
    17a4:	c6 5b       	subi	r28, 0xB6	; 182
    17a6:	de 4f       	sbci	r29, 0xFE	; 254
    17a8:	68 83       	st	Y, r22
    17aa:	79 83       	std	Y+1, r23	; 0x01
    17ac:	8a 83       	std	Y+2, r24	; 0x02
    17ae:	9b 83       	std	Y+3, r25	; 0x03
    17b0:	ca 54       	subi	r28, 0x4A	; 74
    17b2:	d1 40       	sbci	r29, 0x01	; 1
    17b4:	c6 5b       	subi	r28, 0xB6	; 182
    17b6:	de 4f       	sbci	r29, 0xFE	; 254
    17b8:	88 81       	ld	r24, Y
    17ba:	99 81       	ldd	r25, Y+1	; 0x01
    17bc:	ca 54       	subi	r28, 0x4A	; 74
    17be:	d1 40       	sbci	r29, 0x01	; 1
    17c0:	f8 01       	movw	r30, r16
    17c2:	91 83       	std	Z+1, r25	; 0x01
    17c4:	80 83       	st	Z, r24

000017c6 <.L74>:
    17c6:	ce 01       	movw	r24, r28
    17c8:	88 59       	subi	r24, 0x98	; 152
    17ca:	9f 4f       	sbci	r25, 0xFF	; 255
    17cc:	9e 01       	movw	r18, r28
    17ce:	2c 59       	subi	r18, 0x9C	; 156
    17d0:	3f 4f       	sbci	r19, 0xFF	; 255
    17d2:	d9 01       	movw	r26, r18
    17d4:	2d 91       	ld	r18, X+
    17d6:	3c 91       	ld	r19, X
    17d8:	fc 01       	movw	r30, r24
    17da:	31 83       	std	Z+1, r19	; 0x01
    17dc:	20 83       	st	Z, r18

000017de <.LM148>:
    17de:	ce 01       	movw	r24, r28
    17e0:	88 59       	subi	r24, 0x98	; 152
    17e2:	9f 4f       	sbci	r25, 0xFF	; 255
    17e4:	dc 01       	movw	r26, r24
    17e6:	8d 91       	ld	r24, X+
    17e8:	9c 91       	ld	r25, X

000017ea <.L1^B16>:
    17ea:	01 97       	sbiw	r24, 0x01	; 1
    17ec:	f1 f7       	brne	.-4      	; 0x17ea <.L1^B16>
    17ee:	9e 01       	movw	r18, r28
    17f0:	28 59       	subi	r18, 0x98	; 152
    17f2:	3f 4f       	sbci	r19, 0xFF	; 255
    17f4:	f9 01       	movw	r30, r18
    17f6:	91 83       	std	Z+1, r25	; 0x01
    17f8:	80 83       	st	Z, r24

000017fa <.LM149>:
	...

000017fc <.L79>:
    17fc:	7e c0       	rjmp	.+252    	; 0x18fa <.L80>

000017fe <.L165>:
    17fe:	ce 01       	movw	r24, r28
    1800:	8d 5a       	subi	r24, 0xAD	; 173
    1802:	9f 4f       	sbci	r25, 0xFF	; 255
    1804:	20 e0       	ldi	r18, 0x00	; 0
    1806:	30 e0       	ldi	r19, 0x00	; 0
    1808:	4f e7       	ldi	r20, 0x7F	; 127
    180a:	53 e4       	ldi	r21, 0x43	; 67
    180c:	dc 01       	movw	r26, r24
    180e:	6d 91       	ld	r22, X+
    1810:	7d 91       	ld	r23, X+
    1812:	8d 91       	ld	r24, X+
    1814:	9c 91       	ld	r25, X
    1816:	0e 94 5a 29 	call	0x52b4	; 0x52b4 <__gesf2>
    181a:	18 16       	cp	r1, r24
    181c:	d4 f5       	brge	.+116    	; 0x1892 <.L168>

0000181e <.LM152>:
    181e:	8e 01       	movw	r16, r28
    1820:	06 59       	subi	r16, 0x96	; 150
    1822:	1f 4f       	sbci	r17, 0xFF	; 255
    1824:	ce 01       	movw	r24, r28
    1826:	89 5a       	subi	r24, 0xA9	; 169
    1828:	9f 4f       	sbci	r25, 0xFF	; 255
    182a:	fc 01       	movw	r30, r24
    182c:	60 81       	ld	r22, Z
    182e:	71 81       	ldd	r23, Z+1	; 0x01
    1830:	82 81       	ldd	r24, Z+2	; 0x02
    1832:	93 81       	ldd	r25, Z+3	; 0x03
    1834:	0e 94 b6 28 	call	0x516c	; 0x516c <__fixunssfsi>
    1838:	c2 5b       	subi	r28, 0xB2	; 178
    183a:	de 4f       	sbci	r29, 0xFE	; 254
    183c:	68 83       	st	Y, r22
    183e:	79 83       	std	Y+1, r23	; 0x01
    1840:	8a 83       	std	Y+2, r24	; 0x02
    1842:	9b 83       	std	Y+3, r25	; 0x03
    1844:	ce 54       	subi	r28, 0x4E	; 78
    1846:	d1 40       	sbci	r29, 0x01	; 1
    1848:	c2 5b       	subi	r28, 0xB2	; 178
    184a:	de 4f       	sbci	r29, 0xFE	; 254
    184c:	e8 81       	ld	r30, Y
    184e:	f9 81       	ldd	r31, Y+1	; 0x01
    1850:	ce 54       	subi	r28, 0x4E	; 78
    1852:	d1 40       	sbci	r29, 0x01	; 1
    1854:	d8 01       	movw	r26, r16
    1856:	ed 93       	st	X+, r30
    1858:	fc 93       	st	X, r31
    185a:	ce 01       	movw	r24, r28
    185c:	84 59       	subi	r24, 0x94	; 148
    185e:	9f 4f       	sbci	r25, 0xFF	; 255
    1860:	9e 01       	movw	r18, r28
    1862:	26 59       	subi	r18, 0x96	; 150
    1864:	3f 4f       	sbci	r19, 0xFF	; 255
    1866:	d9 01       	movw	r26, r18
    1868:	2d 91       	ld	r18, X+
    186a:	3c 91       	ld	r19, X
    186c:	fc 01       	movw	r30, r24
    186e:	31 83       	std	Z+1, r19	; 0x01
    1870:	20 83       	st	Z, r18

00001872 <.LM153>:
    1872:	ce 01       	movw	r24, r28
    1874:	84 59       	subi	r24, 0x94	; 148
    1876:	9f 4f       	sbci	r25, 0xFF	; 255
    1878:	dc 01       	movw	r26, r24
    187a:	8d 91       	ld	r24, X+
    187c:	9c 91       	ld	r25, X

0000187e <.L1^B17>:
    187e:	01 97       	sbiw	r24, 0x01	; 1
    1880:	f1 f7       	brne	.-4      	; 0x187e <.L1^B17>
    1882:	9e 01       	movw	r18, r28
    1884:	24 59       	subi	r18, 0x94	; 148
    1886:	3f 4f       	sbci	r19, 0xFF	; 255
    1888:	f9 01       	movw	r30, r18
    188a:	91 83       	std	Z+1, r25	; 0x01
    188c:	80 83       	st	Z, r24

0000188e <.LM154>:
	...

00001890 <.LM155>:
    1890:	34 c0       	rjmp	.+104    	; 0x18fa <.L80>

00001892 <.L168>:
    1892:	8e 01       	movw	r16, r28
    1894:	05 5a       	subi	r16, 0xA5	; 165
    1896:	1f 4f       	sbci	r17, 0xFF	; 255
    1898:	ce 01       	movw	r24, r28
    189a:	8d 5a       	subi	r24, 0xAD	; 173
    189c:	9f 4f       	sbci	r25, 0xFF	; 255
    189e:	dc 01       	movw	r26, r24
    18a0:	6d 91       	ld	r22, X+
    18a2:	7d 91       	ld	r23, X+
    18a4:	8d 91       	ld	r24, X+
    18a6:	9c 91       	ld	r25, X
    18a8:	0e 94 b6 28 	call	0x516c	; 0x516c <__fixunssfsi>
    18ac:	ce 5a       	subi	r28, 0xAE	; 174
    18ae:	de 4f       	sbci	r29, 0xFE	; 254
    18b0:	68 83       	st	Y, r22
    18b2:	79 83       	std	Y+1, r23	; 0x01
    18b4:	8a 83       	std	Y+2, r24	; 0x02
    18b6:	9b 83       	std	Y+3, r25	; 0x03
    18b8:	c2 55       	subi	r28, 0x52	; 82
    18ba:	d1 40       	sbci	r29, 0x01	; 1
    18bc:	ce 5a       	subi	r28, 0xAE	; 174
    18be:	de 4f       	sbci	r29, 0xFE	; 254
    18c0:	88 81       	ld	r24, Y
    18c2:	c2 55       	subi	r28, 0x52	; 82
    18c4:	d1 40       	sbci	r29, 0x01	; 1
    18c6:	f8 01       	movw	r30, r16
    18c8:	80 83       	st	Z, r24

000018ca <.L69>:
    18ca:	ce 01       	movw	r24, r28
    18cc:	82 59       	subi	r24, 0x92	; 146
    18ce:	9f 4f       	sbci	r25, 0xFF	; 255
    18d0:	9e 01       	movw	r18, r28
    18d2:	25 5a       	subi	r18, 0xA5	; 165
    18d4:	3f 4f       	sbci	r19, 0xFF	; 255
    18d6:	d9 01       	movw	r26, r18
    18d8:	2c 91       	ld	r18, X
    18da:	fc 01       	movw	r30, r24
    18dc:	20 83       	st	Z, r18

000018de <.LM157>:
    18de:	ce 01       	movw	r24, r28
    18e0:	82 59       	subi	r24, 0x92	; 146
    18e2:	9f 4f       	sbci	r25, 0xFF	; 255
    18e4:	dc 01       	movw	r26, r24
    18e6:	8c 91       	ld	r24, X
    18e8:	28 2f       	mov	r18, r24

000018ea <.L1^B18>:
    18ea:	2a 95       	dec	r18
    18ec:	f1 f7       	brne	.-4      	; 0x18ea <.L1^B18>
    18ee:	ce 01       	movw	r24, r28
    18f0:	82 59       	subi	r24, 0x92	; 146
    18f2:	9f 4f       	sbci	r25, 0xFF	; 255
    18f4:	fc 01       	movw	r30, r24
    18f6:	20 83       	st	Z, r18

000018f8 <.LM158>:
	...

000018fa <.L80>:
    18fa:	41 e0       	ldi	r20, 0x01	; 1
    18fc:	62 e0       	ldi	r22, 0x02	; 2
    18fe:	80 e0       	ldi	r24, 0x00	; 0
    1900:	0e 94 6e 01 	call	0x2dc	; 0x2dc <GPIO_writePin>
    1904:	80 e0       	ldi	r24, 0x00	; 0
    1906:	90 e0       	ldi	r25, 0x00	; 0
    1908:	a0 e8       	ldi	r26, 0x80	; 128
    190a:	bf e3       	ldi	r27, 0x3F	; 63
    190c:	8f a7       	std	Y+47, r24	; 0x2f
    190e:	98 ab       	std	Y+48, r25	; 0x30
    1910:	a9 ab       	std	Y+49, r26	; 0x31
    1912:	ba ab       	std	Y+50, r27	; 0x32

00001914 <.LM160>:
    1914:	2b ea       	ldi	r18, 0xAB	; 171
    1916:	3a ea       	ldi	r19, 0xAA	; 170
    1918:	4a ea       	ldi	r20, 0xAA	; 170
    191a:	50 e4       	ldi	r21, 0x40	; 64
    191c:	6f a5       	ldd	r22, Y+47	; 0x2f
    191e:	78 a9       	ldd	r23, Y+48	; 0x30
    1920:	89 a9       	ldd	r24, Y+49	; 0x31
    1922:	9a a9       	ldd	r25, Y+50	; 0x32
    1924:	0e 94 5f 29 	call	0x52be	; 0x52be <__mulsf3>
    1928:	ca 5a       	subi	r28, 0xAA	; 170
    192a:	de 4f       	sbci	r29, 0xFE	; 254
    192c:	68 83       	st	Y, r22
    192e:	79 83       	std	Y+1, r23	; 0x01
    1930:	8a 83       	std	Y+2, r24	; 0x02
    1932:	9b 83       	std	Y+3, r25	; 0x03
    1934:	c6 55       	subi	r28, 0x56	; 86
    1936:	d1 40       	sbci	r29, 0x01	; 1
    1938:	ca 5a       	subi	r28, 0xAA	; 170
    193a:	de 4f       	sbci	r29, 0xFE	; 254
    193c:	88 81       	ld	r24, Y
    193e:	99 81       	ldd	r25, Y+1	; 0x01
    1940:	aa 81       	ldd	r26, Y+2	; 0x02
    1942:	bb 81       	ldd	r27, Y+3	; 0x03
    1944:	c6 55       	subi	r28, 0x56	; 86
    1946:	d1 40       	sbci	r29, 0x01	; 1
    1948:	8b ab       	std	Y+51, r24	; 0x33
    194a:	9c ab       	std	Y+52, r25	; 0x34
    194c:	ad ab       	std	Y+53, r26	; 0x35
    194e:	be ab       	std	Y+54, r27	; 0x36

00001950 <.LM161>:
    1950:	20 e0       	ldi	r18, 0x00	; 0
    1952:	30 e0       	ldi	r19, 0x00	; 0
    1954:	40 e8       	ldi	r20, 0x80	; 128
    1956:	50 e4       	ldi	r21, 0x40	; 64
    1958:	6f a5       	ldd	r22, Y+47	; 0x2f
    195a:	78 a9       	ldd	r23, Y+48	; 0x30
    195c:	89 a9       	ldd	r24, Y+49	; 0x31
    195e:	9a a9       	ldd	r25, Y+50	; 0x32
    1960:	0e 94 5f 29 	call	0x52be	; 0x52be <__mulsf3>
    1964:	c6 5a       	subi	r28, 0xA6	; 166
    1966:	de 4f       	sbci	r29, 0xFE	; 254
    1968:	68 83       	st	Y, r22
    196a:	79 83       	std	Y+1, r23	; 0x01
    196c:	8a 83       	std	Y+2, r24	; 0x02
    196e:	9b 83       	std	Y+3, r25	; 0x03
    1970:	ca 55       	subi	r28, 0x5A	; 90
    1972:	d1 40       	sbci	r29, 0x01	; 1
    1974:	c6 5a       	subi	r28, 0xA6	; 166
    1976:	de 4f       	sbci	r29, 0xFE	; 254
    1978:	88 81       	ld	r24, Y
    197a:	99 81       	ldd	r25, Y+1	; 0x01
    197c:	aa 81       	ldd	r26, Y+2	; 0x02
    197e:	bb 81       	ldd	r27, Y+3	; 0x03
    1980:	ca 55       	subi	r28, 0x5A	; 90
    1982:	d1 40       	sbci	r29, 0x01	; 1
    1984:	8f ab       	std	Y+55, r24	; 0x37
    1986:	98 af       	std	Y+56, r25	; 0x38
    1988:	a9 af       	std	Y+57, r26	; 0x39
    198a:	ba af       	std	Y+58, r27	; 0x3a

0000198c <.LM162>:
    198c:	20 e0       	ldi	r18, 0x00	; 0
    198e:	30 e0       	ldi	r19, 0x00	; 0
    1990:	40 e8       	ldi	r20, 0x80	; 128
    1992:	5f e3       	ldi	r21, 0x3F	; 63
    1994:	6b a9       	ldd	r22, Y+51	; 0x33
    1996:	7c a9       	ldd	r23, Y+52	; 0x34
    1998:	8d a9       	ldd	r24, Y+53	; 0x35
    199a:	9e a9       	ldd	r25, Y+54	; 0x36
    199c:	0e 94 3f 28 	call	0x507e	; 0x507e <__cmpsf2>
    19a0:	88 23       	and	r24, r24
    19a2:	1c f4       	brge	.+6      	; 0x19aa <.L169>

000019a4 <.LM163>:
    19a4:	81 e0       	ldi	r24, 0x01	; 1
    19a6:	8b af       	std	Y+59, r24	; 0x3b
    19a8:	76 c1       	rjmp	.+748    	; 0x1c96 <.L85>

000019aa <.L169>:
    19aa:	20 e0       	ldi	r18, 0x00	; 0
    19ac:	3f ef       	ldi	r19, 0xFF	; 255
    19ae:	4f e7       	ldi	r20, 0x7F	; 127
    19b0:	57 e4       	ldi	r21, 0x47	; 71
    19b2:	6f a9       	ldd	r22, Y+55	; 0x37
    19b4:	78 ad       	ldd	r23, Y+56	; 0x38
    19b6:	89 ad       	ldd	r24, Y+57	; 0x39
    19b8:	9a ad       	ldd	r25, Y+58	; 0x3a
    19ba:	0e 94 5a 29 	call	0x52b4	; 0x52b4 <__gesf2>
    19be:	18 16       	cp	r1, r24
    19c0:	0c f0       	brlt	.+2      	; 0x19c4 <.LM165>

000019c2 <L0^A>:
    19c2:	13 c1       	rjmp	.+550    	; 0x1bea <.L170>

000019c4 <.LM165>:
    19c4:	20 e0       	ldi	r18, 0x00	; 0
    19c6:	30 e0       	ldi	r19, 0x00	; 0
    19c8:	4a e7       	ldi	r20, 0x7A	; 122
    19ca:	54 e4       	ldi	r21, 0x44	; 68
    19cc:	6f a5       	ldd	r22, Y+47	; 0x2f
    19ce:	78 a9       	ldd	r23, Y+48	; 0x30
    19d0:	89 a9       	ldd	r24, Y+49	; 0x31
    19d2:	9a a9       	ldd	r25, Y+50	; 0x32
    19d4:	0e 94 44 28 	call	0x5088	; 0x5088 <__divsf3>
    19d8:	c2 5a       	subi	r28, 0xA2	; 162
    19da:	de 4f       	sbci	r29, 0xFE	; 254
    19dc:	68 83       	st	Y, r22
    19de:	79 83       	std	Y+1, r23	; 0x01
    19e0:	8a 83       	std	Y+2, r24	; 0x02
    19e2:	9b 83       	std	Y+3, r25	; 0x03
    19e4:	ce 55       	subi	r28, 0x5E	; 94
    19e6:	d1 40       	sbci	r29, 0x01	; 1
    19e8:	c2 5a       	subi	r28, 0xA2	; 162
    19ea:	de 4f       	sbci	r29, 0xFE	; 254
    19ec:	88 81       	ld	r24, Y
    19ee:	99 81       	ldd	r25, Y+1	; 0x01
    19f0:	aa 81       	ldd	r26, Y+2	; 0x02
    19f2:	bb 81       	ldd	r27, Y+3	; 0x03
    19f4:	ce 55       	subi	r28, 0x5E	; 94
    19f6:	d1 40       	sbci	r29, 0x01	; 1
    19f8:	8c af       	std	Y+60, r24	; 0x3c
    19fa:	9d af       	std	Y+61, r25	; 0x3d
    19fc:	ae af       	std	Y+62, r26	; 0x3e
    19fe:	bf af       	std	Y+63, r27	; 0x3f

00001a00 <.LM166>:
    1a00:	8e 01       	movw	r16, r28
    1a02:	00 5c       	subi	r16, 0xC0	; 192
    1a04:	1f 4f       	sbci	r17, 0xFF	; 255
    1a06:	20 e0       	ldi	r18, 0x00	; 0
    1a08:	30 e0       	ldi	r19, 0x00	; 0
    1a0a:	4a e7       	ldi	r20, 0x7A	; 122
    1a0c:	55 e4       	ldi	r21, 0x45	; 69
    1a0e:	6c ad       	ldd	r22, Y+60	; 0x3c
    1a10:	7d ad       	ldd	r23, Y+61	; 0x3d
    1a12:	8e ad       	ldd	r24, Y+62	; 0x3e
    1a14:	9f ad       	ldd	r25, Y+63	; 0x3f
    1a16:	0e 94 5f 29 	call	0x52be	; 0x52be <__mulsf3>
    1a1a:	ce 59       	subi	r28, 0x9E	; 158
    1a1c:	de 4f       	sbci	r29, 0xFE	; 254
    1a1e:	68 83       	st	Y, r22
    1a20:	79 83       	std	Y+1, r23	; 0x01
    1a22:	8a 83       	std	Y+2, r24	; 0x02
    1a24:	9b 83       	std	Y+3, r25	; 0x03
    1a26:	c2 56       	subi	r28, 0x62	; 98
    1a28:	d1 40       	sbci	r29, 0x01	; 1
    1a2a:	ce 59       	subi	r28, 0x9E	; 158
    1a2c:	de 4f       	sbci	r29, 0xFE	; 254
    1a2e:	88 81       	ld	r24, Y
    1a30:	99 81       	ldd	r25, Y+1	; 0x01
    1a32:	aa 81       	ldd	r26, Y+2	; 0x02
    1a34:	bb 81       	ldd	r27, Y+3	; 0x03
    1a36:	c2 56       	subi	r28, 0x62	; 98
    1a38:	d1 40       	sbci	r29, 0x01	; 1
    1a3a:	f8 01       	movw	r30, r16
    1a3c:	80 83       	st	Z, r24
    1a3e:	91 83       	std	Z+1, r25	; 0x01
    1a40:	a2 83       	std	Z+2, r26	; 0x02
    1a42:	b3 83       	std	Z+3, r27	; 0x03

00001a44 <.LM167>:
    1a44:	ce 01       	movw	r24, r28
    1a46:	80 5c       	subi	r24, 0xC0	; 192
    1a48:	9f 4f       	sbci	r25, 0xFF	; 255
    1a4a:	20 e0       	ldi	r18, 0x00	; 0
    1a4c:	30 e0       	ldi	r19, 0x00	; 0
    1a4e:	40 e8       	ldi	r20, 0x80	; 128
    1a50:	5f e3       	ldi	r21, 0x3F	; 63
    1a52:	dc 01       	movw	r26, r24
    1a54:	6d 91       	ld	r22, X+
    1a56:	7d 91       	ld	r23, X+
    1a58:	8d 91       	ld	r24, X+
    1a5a:	9c 91       	ld	r25, X
    1a5c:	0e 94 3f 28 	call	0x507e	; 0x507e <__cmpsf2>
    1a60:	88 23       	and	r24, r24
    1a62:	4c f4       	brge	.+18     	; 0x1a76 <.L171>

00001a64 <.LM168>:
    1a64:	ce 01       	movw	r24, r28
    1a66:	8c 5b       	subi	r24, 0xBC	; 188
    1a68:	9f 4f       	sbci	r25, 0xFF	; 255
    1a6a:	21 e0       	ldi	r18, 0x01	; 1
    1a6c:	30 e0       	ldi	r19, 0x00	; 0
    1a6e:	fc 01       	movw	r30, r24
    1a70:	31 83       	std	Z+1, r19	; 0x01
    1a72:	20 83       	st	Z, r18
    1a74:	9e c0       	rjmp	.+316    	; 0x1bb2 <.L90>

00001a76 <.L171>:
    1a76:	ce 01       	movw	r24, r28
    1a78:	80 5c       	subi	r24, 0xC0	; 192
    1a7a:	9f 4f       	sbci	r25, 0xFF	; 255
    1a7c:	20 e0       	ldi	r18, 0x00	; 0
    1a7e:	3f ef       	ldi	r19, 0xFF	; 255
    1a80:	4f e7       	ldi	r20, 0x7F	; 127
    1a82:	57 e4       	ldi	r21, 0x47	; 71
    1a84:	dc 01       	movw	r26, r24
    1a86:	6d 91       	ld	r22, X+
    1a88:	7d 91       	ld	r23, X+
    1a8a:	8d 91       	ld	r24, X+
    1a8c:	9c 91       	ld	r25, X
    1a8e:	0e 94 5a 29 	call	0x52b4	; 0x52b4 <__gesf2>
    1a92:	18 16       	cp	r1, r24
    1a94:	0c f0       	brlt	.+2      	; 0x1a98 <.LM170>

00001a96 <L0^A>:
    1a96:	6f c0       	rjmp	.+222    	; 0x1b76 <.L172>

00001a98 <.LM170>:
    1a98:	20 e0       	ldi	r18, 0x00	; 0
    1a9a:	30 e0       	ldi	r19, 0x00	; 0
    1a9c:	40 e2       	ldi	r20, 0x20	; 32
    1a9e:	51 e4       	ldi	r21, 0x41	; 65
    1aa0:	6c ad       	ldd	r22, Y+60	; 0x3c
    1aa2:	7d ad       	ldd	r23, Y+61	; 0x3d
    1aa4:	8e ad       	ldd	r24, Y+62	; 0x3e
    1aa6:	9f ad       	ldd	r25, Y+63	; 0x3f
    1aa8:	0e 94 5f 29 	call	0x52be	; 0x52be <__mulsf3>
    1aac:	ca 59       	subi	r28, 0x9A	; 154
    1aae:	de 4f       	sbci	r29, 0xFE	; 254
    1ab0:	68 83       	st	Y, r22
    1ab2:	79 83       	std	Y+1, r23	; 0x01
    1ab4:	8a 83       	std	Y+2, r24	; 0x02
    1ab6:	9b 83       	std	Y+3, r25	; 0x03
    1ab8:	c6 56       	subi	r28, 0x66	; 102
    1aba:	d1 40       	sbci	r29, 0x01	; 1
    1abc:	ca 59       	subi	r28, 0x9A	; 154
    1abe:	de 4f       	sbci	r29, 0xFE	; 254
    1ac0:	88 81       	ld	r24, Y
    1ac2:	99 81       	ldd	r25, Y+1	; 0x01
    1ac4:	aa 81       	ldd	r26, Y+2	; 0x02
    1ac6:	bb 81       	ldd	r27, Y+3	; 0x03
    1ac8:	c6 56       	subi	r28, 0x66	; 102
    1aca:	d1 40       	sbci	r29, 0x01	; 1
    1acc:	ca 53       	subi	r28, 0x3A	; 58
    1ace:	df 4f       	sbci	r29, 0xFF	; 255
    1ad0:	88 83       	st	Y, r24
    1ad2:	99 83       	std	Y+1, r25	; 0x01
    1ad4:	aa 83       	std	Y+2, r26	; 0x02
    1ad6:	bb 83       	std	Y+3, r27	; 0x03
    1ad8:	c6 5c       	subi	r28, 0xC6	; 198
    1ada:	d0 40       	sbci	r29, 0x00	; 0

00001adc <.LM171>:
    1adc:	8e 01       	movw	r16, r28
    1ade:	0c 5b       	subi	r16, 0xBC	; 188
    1ae0:	1f 4f       	sbci	r17, 0xFF	; 255
    1ae2:	ca 53       	subi	r28, 0x3A	; 58
    1ae4:	df 4f       	sbci	r29, 0xFF	; 255
    1ae6:	68 81       	ld	r22, Y
    1ae8:	79 81       	ldd	r23, Y+1	; 0x01
    1aea:	8a 81       	ldd	r24, Y+2	; 0x02
    1aec:	9b 81       	ldd	r25, Y+3	; 0x03
    1aee:	c6 5c       	subi	r28, 0xC6	; 198
    1af0:	d0 40       	sbci	r29, 0x00	; 0
    1af2:	0e 94 b6 28 	call	0x516c	; 0x516c <__fixunssfsi>
    1af6:	c6 59       	subi	r28, 0x96	; 150
    1af8:	de 4f       	sbci	r29, 0xFE	; 254
    1afa:	68 83       	st	Y, r22
    1afc:	79 83       	std	Y+1, r23	; 0x01
    1afe:	8a 83       	std	Y+2, r24	; 0x02
    1b00:	9b 83       	std	Y+3, r25	; 0x03
    1b02:	ca 56       	subi	r28, 0x6A	; 106
    1b04:	d1 40       	sbci	r29, 0x01	; 1
    1b06:	c6 59       	subi	r28, 0x96	; 150
    1b08:	de 4f       	sbci	r29, 0xFE	; 254
    1b0a:	e8 81       	ld	r30, Y
    1b0c:	f9 81       	ldd	r31, Y+1	; 0x01
    1b0e:	ca 56       	subi	r28, 0x6A	; 106
    1b10:	d1 40       	sbci	r29, 0x01	; 1
    1b12:	d8 01       	movw	r26, r16
    1b14:	ed 93       	st	X+, r30
    1b16:	fc 93       	st	X, r31

00001b18 <.LM172>:
    1b18:	25 c0       	rjmp	.+74     	; 0x1b64 <.L93>

00001b1a <.L94>:
    1b1a:	ce 01       	movw	r24, r28
    1b1c:	8a 5b       	subi	r24, 0xBA	; 186
    1b1e:	9f 4f       	sbci	r25, 0xFF	; 255
    1b20:	20 e9       	ldi	r18, 0x90	; 144
    1b22:	31 e0       	ldi	r19, 0x01	; 1
    1b24:	dc 01       	movw	r26, r24
    1b26:	2d 93       	st	X+, r18
    1b28:	3c 93       	st	X, r19

00001b2a <.LM173>:
    1b2a:	ce 01       	movw	r24, r28
    1b2c:	8a 5b       	subi	r24, 0xBA	; 186
    1b2e:	9f 4f       	sbci	r25, 0xFF	; 255
    1b30:	fc 01       	movw	r30, r24
    1b32:	80 81       	ld	r24, Z
    1b34:	91 81       	ldd	r25, Z+1	; 0x01

00001b36 <.L1^B19>:
    1b36:	01 97       	sbiw	r24, 0x01	; 1
    1b38:	f1 f7       	brne	.-4      	; 0x1b36 <.L1^B19>
    1b3a:	9e 01       	movw	r18, r28
    1b3c:	2a 5b       	subi	r18, 0xBA	; 186
    1b3e:	3f 4f       	sbci	r19, 0xFF	; 255
    1b40:	d9 01       	movw	r26, r18
    1b42:	8d 93       	st	X+, r24
    1b44:	9c 93       	st	X, r25

00001b46 <.LM174>:
	...

00001b48 <.LM175>:
    1b48:	ce 01       	movw	r24, r28
    1b4a:	8c 5b       	subi	r24, 0xBC	; 188
    1b4c:	9f 4f       	sbci	r25, 0xFF	; 255
    1b4e:	9e 01       	movw	r18, r28
    1b50:	2c 5b       	subi	r18, 0xBC	; 188
    1b52:	3f 4f       	sbci	r19, 0xFF	; 255
    1b54:	f9 01       	movw	r30, r18
    1b56:	20 81       	ld	r18, Z
    1b58:	31 81       	ldd	r19, Z+1	; 0x01
    1b5a:	21 50       	subi	r18, 0x01	; 1
    1b5c:	31 09       	sbc	r19, r1
    1b5e:	dc 01       	movw	r26, r24
    1b60:	2d 93       	st	X+, r18
    1b62:	3c 93       	st	X, r19

00001b64 <.L93>:
    1b64:	ce 01       	movw	r24, r28
    1b66:	8c 5b       	subi	r24, 0xBC	; 188
    1b68:	9f 4f       	sbci	r25, 0xFF	; 255
    1b6a:	fc 01       	movw	r30, r24
    1b6c:	80 81       	ld	r24, Z
    1b6e:	91 81       	ldd	r25, Z+1	; 0x01
    1b70:	89 2b       	or	r24, r25
    1b72:	99 f6       	brne	.-90     	; 0x1b1a <.L94>

00001b74 <.LM177>:
    1b74:	39 c0       	rjmp	.+114    	; 0x1be8 <.L95>

00001b76 <.L172>:
    1b76:	8e 01       	movw	r16, r28
    1b78:	0c 5b       	subi	r16, 0xBC	; 188
    1b7a:	1f 4f       	sbci	r17, 0xFF	; 255
    1b7c:	ce 01       	movw	r24, r28
    1b7e:	80 5c       	subi	r24, 0xC0	; 192
    1b80:	9f 4f       	sbci	r25, 0xFF	; 255
    1b82:	dc 01       	movw	r26, r24
    1b84:	6d 91       	ld	r22, X+
    1b86:	7d 91       	ld	r23, X+
    1b88:	8d 91       	ld	r24, X+
    1b8a:	9c 91       	ld	r25, X
    1b8c:	0e 94 b6 28 	call	0x516c	; 0x516c <__fixunssfsi>
    1b90:	c2 59       	subi	r28, 0x92	; 146
    1b92:	de 4f       	sbci	r29, 0xFE	; 254
    1b94:	68 83       	st	Y, r22
    1b96:	79 83       	std	Y+1, r23	; 0x01
    1b98:	8a 83       	std	Y+2, r24	; 0x02
    1b9a:	9b 83       	std	Y+3, r25	; 0x03
    1b9c:	ce 56       	subi	r28, 0x6E	; 110
    1b9e:	d1 40       	sbci	r29, 0x01	; 1
    1ba0:	c2 59       	subi	r28, 0x92	; 146
    1ba2:	de 4f       	sbci	r29, 0xFE	; 254
    1ba4:	88 81       	ld	r24, Y
    1ba6:	99 81       	ldd	r25, Y+1	; 0x01
    1ba8:	ce 56       	subi	r28, 0x6E	; 110
    1baa:	d1 40       	sbci	r29, 0x01	; 1
    1bac:	f8 01       	movw	r30, r16
    1bae:	91 83       	std	Z+1, r25	; 0x01
    1bb0:	80 83       	st	Z, r24

00001bb2 <.L90>:
    1bb2:	ce 01       	movw	r24, r28
    1bb4:	88 5b       	subi	r24, 0xB8	; 184
    1bb6:	9f 4f       	sbci	r25, 0xFF	; 255
    1bb8:	9e 01       	movw	r18, r28
    1bba:	2c 5b       	subi	r18, 0xBC	; 188
    1bbc:	3f 4f       	sbci	r19, 0xFF	; 255
    1bbe:	d9 01       	movw	r26, r18
    1bc0:	2d 91       	ld	r18, X+
    1bc2:	3c 91       	ld	r19, X
    1bc4:	fc 01       	movw	r30, r24
    1bc6:	31 83       	std	Z+1, r19	; 0x01
    1bc8:	20 83       	st	Z, r18

00001bca <.LM179>:
    1bca:	ce 01       	movw	r24, r28
    1bcc:	88 5b       	subi	r24, 0xB8	; 184
    1bce:	9f 4f       	sbci	r25, 0xFF	; 255
    1bd0:	dc 01       	movw	r26, r24
    1bd2:	8d 91       	ld	r24, X+
    1bd4:	9c 91       	ld	r25, X

00001bd6 <.L1^B20>:
    1bd6:	01 97       	sbiw	r24, 0x01	; 1
    1bd8:	f1 f7       	brne	.-4      	; 0x1bd6 <.L1^B20>
    1bda:	9e 01       	movw	r18, r28
    1bdc:	28 5b       	subi	r18, 0xB8	; 184
    1bde:	3f 4f       	sbci	r19, 0xFF	; 255
    1be0:	f9 01       	movw	r30, r18
    1be2:	91 83       	std	Z+1, r25	; 0x01
    1be4:	80 83       	st	Z, r24

00001be6 <.LM180>:
	...

00001be8 <.L95>:
    1be8:	6a c0       	rjmp	.+212    	; 0x1cbe <.L96>

00001bea <.L170>:
    1bea:	20 e0       	ldi	r18, 0x00	; 0
    1bec:	30 e0       	ldi	r19, 0x00	; 0
    1bee:	4f e7       	ldi	r20, 0x7F	; 127
    1bf0:	53 e4       	ldi	r21, 0x43	; 67
    1bf2:	6b a9       	ldd	r22, Y+51	; 0x33
    1bf4:	7c a9       	ldd	r23, Y+52	; 0x34
    1bf6:	8d a9       	ldd	r24, Y+53	; 0x35
    1bf8:	9e a9       	ldd	r25, Y+54	; 0x36
    1bfa:	0e 94 5a 29 	call	0x52b4	; 0x52b4 <__gesf2>
    1bfe:	18 16       	cp	r1, r24
    1c00:	b4 f5       	brge	.+108    	; 0x1c6e <.L173>

00001c02 <.LM183>:
    1c02:	8e 01       	movw	r16, r28
    1c04:	06 5b       	subi	r16, 0xB6	; 182
    1c06:	1f 4f       	sbci	r17, 0xFF	; 255
    1c08:	6f a9       	ldd	r22, Y+55	; 0x37
    1c0a:	78 ad       	ldd	r23, Y+56	; 0x38
    1c0c:	89 ad       	ldd	r24, Y+57	; 0x39
    1c0e:	9a ad       	ldd	r25, Y+58	; 0x3a
    1c10:	0e 94 b6 28 	call	0x516c	; 0x516c <__fixunssfsi>
    1c14:	ce 58       	subi	r28, 0x8E	; 142
    1c16:	de 4f       	sbci	r29, 0xFE	; 254
    1c18:	68 83       	st	Y, r22
    1c1a:	79 83       	std	Y+1, r23	; 0x01
    1c1c:	8a 83       	std	Y+2, r24	; 0x02
    1c1e:	9b 83       	std	Y+3, r25	; 0x03
    1c20:	c2 57       	subi	r28, 0x72	; 114
    1c22:	d1 40       	sbci	r29, 0x01	; 1
    1c24:	ce 58       	subi	r28, 0x8E	; 142
    1c26:	de 4f       	sbci	r29, 0xFE	; 254
    1c28:	e8 81       	ld	r30, Y
    1c2a:	f9 81       	ldd	r31, Y+1	; 0x01
    1c2c:	c2 57       	subi	r28, 0x72	; 114
    1c2e:	d1 40       	sbci	r29, 0x01	; 1
    1c30:	d8 01       	movw	r26, r16
    1c32:	ed 93       	st	X+, r30
    1c34:	fc 93       	st	X, r31
    1c36:	ce 01       	movw	r24, r28
    1c38:	84 5b       	subi	r24, 0xB4	; 180
    1c3a:	9f 4f       	sbci	r25, 0xFF	; 255
    1c3c:	9e 01       	movw	r18, r28
    1c3e:	26 5b       	subi	r18, 0xB6	; 182
    1c40:	3f 4f       	sbci	r19, 0xFF	; 255
    1c42:	d9 01       	movw	r26, r18
    1c44:	2d 91       	ld	r18, X+
    1c46:	3c 91       	ld	r19, X
    1c48:	fc 01       	movw	r30, r24
    1c4a:	31 83       	std	Z+1, r19	; 0x01
    1c4c:	20 83       	st	Z, r18

00001c4e <.LM184>:
    1c4e:	ce 01       	movw	r24, r28
    1c50:	84 5b       	subi	r24, 0xB4	; 180
    1c52:	9f 4f       	sbci	r25, 0xFF	; 255
    1c54:	dc 01       	movw	r26, r24
    1c56:	8d 91       	ld	r24, X+
    1c58:	9c 91       	ld	r25, X

00001c5a <.L1^B21>:
    1c5a:	01 97       	sbiw	r24, 0x01	; 1
    1c5c:	f1 f7       	brne	.-4      	; 0x1c5a <.L1^B21>
    1c5e:	9e 01       	movw	r18, r28
    1c60:	24 5b       	subi	r18, 0xB4	; 180
    1c62:	3f 4f       	sbci	r19, 0xFF	; 255
    1c64:	f9 01       	movw	r30, r18
    1c66:	91 83       	std	Z+1, r25	; 0x01
    1c68:	80 83       	st	Z, r24

00001c6a <.LM185>:
	...

00001c6c <.LM186>:
    1c6c:	28 c0       	rjmp	.+80     	; 0x1cbe <.L96>

00001c6e <.L173>:
    1c6e:	6b a9       	ldd	r22, Y+51	; 0x33
    1c70:	7c a9       	ldd	r23, Y+52	; 0x34
    1c72:	8d a9       	ldd	r24, Y+53	; 0x35
    1c74:	9e a9       	ldd	r25, Y+54	; 0x36
    1c76:	0e 94 b6 28 	call	0x516c	; 0x516c <__fixunssfsi>
    1c7a:	ca 58       	subi	r28, 0x8A	; 138
    1c7c:	de 4f       	sbci	r29, 0xFE	; 254
    1c7e:	68 83       	st	Y, r22
    1c80:	79 83       	std	Y+1, r23	; 0x01
    1c82:	8a 83       	std	Y+2, r24	; 0x02
    1c84:	9b 83       	std	Y+3, r25	; 0x03
    1c86:	c6 57       	subi	r28, 0x76	; 118
    1c88:	d1 40       	sbci	r29, 0x01	; 1
    1c8a:	ca 58       	subi	r28, 0x8A	; 138
    1c8c:	de 4f       	sbci	r29, 0xFE	; 254
    1c8e:	f8 81       	ld	r31, Y
    1c90:	c6 57       	subi	r28, 0x76	; 118
    1c92:	d1 40       	sbci	r29, 0x01	; 1
    1c94:	fb af       	std	Y+59, r31	; 0x3b

00001c96 <.L85>:
    1c96:	ce 01       	movw	r24, r28
    1c98:	82 5b       	subi	r24, 0xB2	; 178
    1c9a:	9f 4f       	sbci	r25, 0xFF	; 255
    1c9c:	2b ad       	ldd	r18, Y+59	; 0x3b
    1c9e:	dc 01       	movw	r26, r24
    1ca0:	2c 93       	st	X, r18

00001ca2 <.LM188>:
    1ca2:	ce 01       	movw	r24, r28
    1ca4:	82 5b       	subi	r24, 0xB2	; 178
    1ca6:	9f 4f       	sbci	r25, 0xFF	; 255
    1ca8:	fc 01       	movw	r30, r24
    1caa:	80 81       	ld	r24, Z
    1cac:	28 2f       	mov	r18, r24

00001cae <.L1^B22>:
    1cae:	2a 95       	dec	r18
    1cb0:	f1 f7       	brne	.-4      	; 0x1cae <.L1^B22>
    1cb2:	ce 01       	movw	r24, r28
    1cb4:	82 5b       	subi	r24, 0xB2	; 178
    1cb6:	9f 4f       	sbci	r25, 0xFF	; 255
    1cb8:	dc 01       	movw	r26, r24
    1cba:	2c 93       	st	X, r18

00001cbc <.LM189>:
	...

00001cbe <.L96>:
    1cbe:	ce 01       	movw	r24, r28
    1cc0:	83 54       	subi	r24, 0x43	; 67
    1cc2:	9f 4f       	sbci	r25, 0xFF	; 255
    1cc4:	fc 01       	movw	r30, r24
    1cc6:	80 81       	ld	r24, Z
    1cc8:	81 70       	andi	r24, 0x01	; 1
    1cca:	48 2f       	mov	r20, r24
    1ccc:	63 e0       	ldi	r22, 0x03	; 3
    1cce:	80 e0       	ldi	r24, 0x00	; 0
    1cd0:	0e 94 6e 01 	call	0x2dc	; 0x2dc <GPIO_writePin>

00001cd4 <.LM191>:
    1cd4:	ce 01       	movw	r24, r28
    1cd6:	83 54       	subi	r24, 0x43	; 67
    1cd8:	9f 4f       	sbci	r25, 0xFF	; 255
    1cda:	dc 01       	movw	r26, r24
    1cdc:	8c 91       	ld	r24, X
    1cde:	86 95       	lsr	r24

00001ce0 <.LM192>:
    1ce0:	81 70       	andi	r24, 0x01	; 1
    1ce2:	48 2f       	mov	r20, r24
    1ce4:	64 e0       	ldi	r22, 0x04	; 4
    1ce6:	80 e0       	ldi	r24, 0x00	; 0
    1ce8:	0e 94 6e 01 	call	0x2dc	; 0x2dc <GPIO_writePin>

00001cec <.LM193>:
    1cec:	ce 01       	movw	r24, r28
    1cee:	83 54       	subi	r24, 0x43	; 67
    1cf0:	9f 4f       	sbci	r25, 0xFF	; 255
    1cf2:	fc 01       	movw	r30, r24
    1cf4:	80 81       	ld	r24, Z
    1cf6:	86 95       	lsr	r24
    1cf8:	86 95       	lsr	r24

00001cfa <.LM194>:
    1cfa:	81 70       	andi	r24, 0x01	; 1
    1cfc:	48 2f       	mov	r20, r24
    1cfe:	65 e0       	ldi	r22, 0x05	; 5
    1d00:	80 e0       	ldi	r24, 0x00	; 0
    1d02:	0e 94 6e 01 	call	0x2dc	; 0x2dc <GPIO_writePin>

00001d06 <.LM195>:
    1d06:	ce 01       	movw	r24, r28
    1d08:	83 54       	subi	r24, 0x43	; 67
    1d0a:	9f 4f       	sbci	r25, 0xFF	; 255
    1d0c:	dc 01       	movw	r26, r24
    1d0e:	8c 91       	ld	r24, X
    1d10:	86 95       	lsr	r24
    1d12:	86 95       	lsr	r24
    1d14:	86 95       	lsr	r24

00001d16 <.LM196>:
    1d16:	81 70       	andi	r24, 0x01	; 1
    1d18:	48 2f       	mov	r20, r24
    1d1a:	66 e0       	ldi	r22, 0x06	; 6
    1d1c:	80 e0       	ldi	r24, 0x00	; 0
    1d1e:	0e 94 6e 01 	call	0x2dc	; 0x2dc <GPIO_writePin>
    1d22:	80 e0       	ldi	r24, 0x00	; 0
    1d24:	90 e0       	ldi	r25, 0x00	; 0
    1d26:	a0 e8       	ldi	r26, 0x80	; 128
    1d28:	bf e3       	ldi	r27, 0x3F	; 63
    1d2a:	89 a3       	std	Y+33, r24	; 0x21
    1d2c:	9a a3       	std	Y+34, r25	; 0x22
    1d2e:	ab a3       	std	Y+35, r26	; 0x23
    1d30:	bc a3       	std	Y+36, r27	; 0x24

00001d32 <.LM197>:
    1d32:	20 e0       	ldi	r18, 0x00	; 0
    1d34:	30 e0       	ldi	r19, 0x00	; 0
    1d36:	4a e7       	ldi	r20, 0x7A	; 122
    1d38:	55 e4       	ldi	r21, 0x45	; 69
    1d3a:	69 a1       	ldd	r22, Y+33	; 0x21
    1d3c:	7a a1       	ldd	r23, Y+34	; 0x22
    1d3e:	8b a1       	ldd	r24, Y+35	; 0x23
    1d40:	9c a1       	ldd	r25, Y+36	; 0x24
    1d42:	0e 94 5f 29 	call	0x52be	; 0x52be <__mulsf3>
    1d46:	c6 58       	subi	r28, 0x86	; 134
    1d48:	de 4f       	sbci	r29, 0xFE	; 254
    1d4a:	68 83       	st	Y, r22
    1d4c:	79 83       	std	Y+1, r23	; 0x01
    1d4e:	8a 83       	std	Y+2, r24	; 0x02
    1d50:	9b 83       	std	Y+3, r25	; 0x03
    1d52:	ca 57       	subi	r28, 0x7A	; 122
    1d54:	d1 40       	sbci	r29, 0x01	; 1
    1d56:	c6 58       	subi	r28, 0x86	; 134
    1d58:	de 4f       	sbci	r29, 0xFE	; 254
    1d5a:	88 81       	ld	r24, Y
    1d5c:	99 81       	ldd	r25, Y+1	; 0x01
    1d5e:	aa 81       	ldd	r26, Y+2	; 0x02
    1d60:	bb 81       	ldd	r27, Y+3	; 0x03
    1d62:	ca 57       	subi	r28, 0x7A	; 122
    1d64:	d1 40       	sbci	r29, 0x01	; 1
    1d66:	8d a3       	std	Y+37, r24	; 0x25
    1d68:	9e a3       	std	Y+38, r25	; 0x26
    1d6a:	af a3       	std	Y+39, r26	; 0x27
    1d6c:	b8 a7       	std	Y+40, r27	; 0x28

00001d6e <.LM198>:
    1d6e:	20 e0       	ldi	r18, 0x00	; 0
    1d70:	30 e0       	ldi	r19, 0x00	; 0
    1d72:	40 e8       	ldi	r20, 0x80	; 128
    1d74:	5f e3       	ldi	r21, 0x3F	; 63
    1d76:	6d a1       	ldd	r22, Y+37	; 0x25
    1d78:	7e a1       	ldd	r23, Y+38	; 0x26
    1d7a:	8f a1       	ldd	r24, Y+39	; 0x27
    1d7c:	98 a5       	ldd	r25, Y+40	; 0x28
    1d7e:	0e 94 3f 28 	call	0x507e	; 0x507e <__cmpsf2>
    1d82:	88 23       	and	r24, r24
    1d84:	2c f4       	brge	.+10     	; 0x1d90 <.L174>

00001d86 <.LM199>:
    1d86:	81 e0       	ldi	r24, 0x01	; 1
    1d88:	90 e0       	ldi	r25, 0x00	; 0
    1d8a:	9a a7       	std	Y+42, r25	; 0x2a
    1d8c:	89 a7       	std	Y+41, r24	; 0x29
    1d8e:	75 c0       	rjmp	.+234    	; 0x1e7a <.L101>

00001d90 <.L174>:
    1d90:	20 e0       	ldi	r18, 0x00	; 0
    1d92:	3f ef       	ldi	r19, 0xFF	; 255
    1d94:	4f e7       	ldi	r20, 0x7F	; 127
    1d96:	57 e4       	ldi	r21, 0x47	; 71
    1d98:	6d a1       	ldd	r22, Y+37	; 0x25
    1d9a:	7e a1       	ldd	r23, Y+38	; 0x26
    1d9c:	8f a1       	ldd	r24, Y+39	; 0x27
    1d9e:	98 a5       	ldd	r25, Y+40	; 0x28
    1da0:	0e 94 5a 29 	call	0x52b4	; 0x52b4 <__gesf2>
    1da4:	18 16       	cp	r1, r24
    1da6:	0c f0       	brlt	.+2      	; 0x1daa <.LM201>

00001da8 <L0^A>:
    1da8:	52 c0       	rjmp	.+164    	; 0x1e4e <.L175>

00001daa <.LM201>:
    1daa:	20 e0       	ldi	r18, 0x00	; 0
    1dac:	30 e0       	ldi	r19, 0x00	; 0
    1dae:	40 e2       	ldi	r20, 0x20	; 32
    1db0:	51 e4       	ldi	r21, 0x41	; 65
    1db2:	69 a1       	ldd	r22, Y+33	; 0x21
    1db4:	7a a1       	ldd	r23, Y+34	; 0x22
    1db6:	8b a1       	ldd	r24, Y+35	; 0x23
    1db8:	9c a1       	ldd	r25, Y+36	; 0x24
    1dba:	0e 94 5f 29 	call	0x52be	; 0x52be <__mulsf3>
    1dbe:	c2 58       	subi	r28, 0x82	; 130
    1dc0:	de 4f       	sbci	r29, 0xFE	; 254
    1dc2:	68 83       	st	Y, r22
    1dc4:	79 83       	std	Y+1, r23	; 0x01
    1dc6:	8a 83       	std	Y+2, r24	; 0x02
    1dc8:	9b 83       	std	Y+3, r25	; 0x03
    1dca:	ce 57       	subi	r28, 0x7E	; 126
    1dcc:	d1 40       	sbci	r29, 0x01	; 1
    1dce:	c2 58       	subi	r28, 0x82	; 130
    1dd0:	de 4f       	sbci	r29, 0xFE	; 254
    1dd2:	88 81       	ld	r24, Y
    1dd4:	99 81       	ldd	r25, Y+1	; 0x01
    1dd6:	aa 81       	ldd	r26, Y+2	; 0x02
    1dd8:	bb 81       	ldd	r27, Y+3	; 0x03
    1dda:	ce 57       	subi	r28, 0x7E	; 126
    1ddc:	d1 40       	sbci	r29, 0x01	; 1
    1dde:	ce 53       	subi	r28, 0x3E	; 62
    1de0:	df 4f       	sbci	r29, 0xFF	; 255
    1de2:	88 83       	st	Y, r24
    1de4:	99 83       	std	Y+1, r25	; 0x01
    1de6:	aa 83       	std	Y+2, r26	; 0x02
    1de8:	bb 83       	std	Y+3, r27	; 0x03
    1dea:	c2 5c       	subi	r28, 0xC2	; 194
    1dec:	d0 40       	sbci	r29, 0x00	; 0

00001dee <.LM202>:
    1dee:	ce 53       	subi	r28, 0x3E	; 62
    1df0:	df 4f       	sbci	r29, 0xFF	; 255
    1df2:	68 81       	ld	r22, Y
    1df4:	79 81       	ldd	r23, Y+1	; 0x01
    1df6:	8a 81       	ldd	r24, Y+2	; 0x02
    1df8:	9b 81       	ldd	r25, Y+3	; 0x03
    1dfa:	c2 5c       	subi	r28, 0xC2	; 194
    1dfc:	d0 40       	sbci	r29, 0x00	; 0
    1dfe:	0e 94 b6 28 	call	0x516c	; 0x516c <__fixunssfsi>
    1e02:	ce 57       	subi	r28, 0x7E	; 126
    1e04:	de 4f       	sbci	r29, 0xFE	; 254
    1e06:	68 83       	st	Y, r22
    1e08:	79 83       	std	Y+1, r23	; 0x01
    1e0a:	8a 83       	std	Y+2, r24	; 0x02
    1e0c:	9b 83       	std	Y+3, r25	; 0x03
    1e0e:	c2 58       	subi	r28, 0x82	; 130
    1e10:	d1 40       	sbci	r29, 0x01	; 1
    1e12:	ce 57       	subi	r28, 0x7E	; 126
    1e14:	de 4f       	sbci	r29, 0xFE	; 254
    1e16:	a8 81       	ld	r26, Y
    1e18:	b9 81       	ldd	r27, Y+1	; 0x01
    1e1a:	c2 58       	subi	r28, 0x82	; 130
    1e1c:	d1 40       	sbci	r29, 0x01	; 1
    1e1e:	ba a7       	std	Y+42, r27	; 0x2a
    1e20:	a9 a7       	std	Y+41, r26	; 0x29

00001e22 <.LM203>:
    1e22:	10 c0       	rjmp	.+32     	; 0x1e44 <.L104>

00001e24 <.L105>:
    1e24:	80 e9       	ldi	r24, 0x90	; 144
    1e26:	91 e0       	ldi	r25, 0x01	; 1
    1e28:	9c a7       	std	Y+44, r25	; 0x2c
    1e2a:	8b a7       	std	Y+43, r24	; 0x2b

00001e2c <.LM204>:
    1e2c:	8b a5       	ldd	r24, Y+43	; 0x2b
    1e2e:	9c a5       	ldd	r25, Y+44	; 0x2c

00001e30 <.L1^B23>:
    1e30:	01 97       	sbiw	r24, 0x01	; 1
    1e32:	f1 f7       	brne	.-4      	; 0x1e30 <.L1^B23>
    1e34:	9c a7       	std	Y+44, r25	; 0x2c
    1e36:	8b a7       	std	Y+43, r24	; 0x2b

00001e38 <.LM205>:
	...

00001e3a <.LM206>:
    1e3a:	89 a5       	ldd	r24, Y+41	; 0x29
    1e3c:	9a a5       	ldd	r25, Y+42	; 0x2a
    1e3e:	01 97       	sbiw	r24, 0x01	; 1
    1e40:	9a a7       	std	Y+42, r25	; 0x2a
    1e42:	89 a7       	std	Y+41, r24	; 0x29

00001e44 <.L104>:
    1e44:	89 a5       	ldd	r24, Y+41	; 0x29
    1e46:	9a a5       	ldd	r25, Y+42	; 0x2a
    1e48:	89 2b       	or	r24, r25
    1e4a:	61 f7       	brne	.-40     	; 0x1e24 <.L105>

00001e4c <.LM208>:
    1e4c:	21 c0       	rjmp	.+66     	; 0x1e90 <.L106>

00001e4e <.L175>:
    1e4e:	6d a1       	ldd	r22, Y+37	; 0x25
    1e50:	7e a1       	ldd	r23, Y+38	; 0x26
    1e52:	8f a1       	ldd	r24, Y+39	; 0x27
    1e54:	98 a5       	ldd	r25, Y+40	; 0x28
    1e56:	0e 94 b6 28 	call	0x516c	; 0x516c <__fixunssfsi>
    1e5a:	ca 57       	subi	r28, 0x7A	; 122
    1e5c:	de 4f       	sbci	r29, 0xFE	; 254
    1e5e:	68 83       	st	Y, r22
    1e60:	79 83       	std	Y+1, r23	; 0x01
    1e62:	8a 83       	std	Y+2, r24	; 0x02
    1e64:	9b 83       	std	Y+3, r25	; 0x03
    1e66:	c6 58       	subi	r28, 0x86	; 134
    1e68:	d1 40       	sbci	r29, 0x01	; 1
    1e6a:	ca 57       	subi	r28, 0x7A	; 122
    1e6c:	de 4f       	sbci	r29, 0xFE	; 254
    1e6e:	e8 81       	ld	r30, Y
    1e70:	f9 81       	ldd	r31, Y+1	; 0x01
    1e72:	c6 58       	subi	r28, 0x86	; 134
    1e74:	d1 40       	sbci	r29, 0x01	; 1
    1e76:	fa a7       	std	Y+42, r31	; 0x2a
    1e78:	e9 a7       	std	Y+41, r30	; 0x29

00001e7a <.L101>:
    1e7a:	89 a5       	ldd	r24, Y+41	; 0x29
    1e7c:	9a a5       	ldd	r25, Y+42	; 0x2a
    1e7e:	9e a7       	std	Y+46, r25	; 0x2e
    1e80:	8d a7       	std	Y+45, r24	; 0x2d

00001e82 <.LM210>:
    1e82:	8d a5       	ldd	r24, Y+45	; 0x2d
    1e84:	9e a5       	ldd	r25, Y+46	; 0x2e

00001e86 <.L1^B24>:
    1e86:	01 97       	sbiw	r24, 0x01	; 1
    1e88:	f1 f7       	brne	.-4      	; 0x1e86 <.L1^B24>
    1e8a:	9e a7       	std	Y+46, r25	; 0x2e
    1e8c:	8d a7       	std	Y+45, r24	; 0x2d

00001e8e <.LM211>:
	...

00001e90 <.L106>:
    1e90:	40 e0       	ldi	r20, 0x00	; 0
    1e92:	62 e0       	ldi	r22, 0x02	; 2
    1e94:	80 e0       	ldi	r24, 0x00	; 0
    1e96:	0e 94 6e 01 	call	0x2dc	; 0x2dc <GPIO_writePin>
    1e9a:	80 e0       	ldi	r24, 0x00	; 0
    1e9c:	90 e0       	ldi	r25, 0x00	; 0
    1e9e:	a0 e8       	ldi	r26, 0x80	; 128
    1ea0:	bf e3       	ldi	r27, 0x3F	; 63
    1ea2:	89 83       	std	Y+1, r24	; 0x01
    1ea4:	9a 83       	std	Y+2, r25	; 0x02
    1ea6:	ab 83       	std	Y+3, r26	; 0x03
    1ea8:	bc 83       	std	Y+4, r27	; 0x04

00001eaa <.LM213>:
    1eaa:	2b ea       	ldi	r18, 0xAB	; 171
    1eac:	3a ea       	ldi	r19, 0xAA	; 170
    1eae:	4a ea       	ldi	r20, 0xAA	; 170
    1eb0:	50 e4       	ldi	r21, 0x40	; 64
    1eb2:	69 81       	ldd	r22, Y+1	; 0x01
    1eb4:	7a 81       	ldd	r23, Y+2	; 0x02
    1eb6:	8b 81       	ldd	r24, Y+3	; 0x03
    1eb8:	9c 81       	ldd	r25, Y+4	; 0x04
    1eba:	0e 94 5f 29 	call	0x52be	; 0x52be <__mulsf3>
    1ebe:	c6 57       	subi	r28, 0x76	; 118
    1ec0:	de 4f       	sbci	r29, 0xFE	; 254
    1ec2:	68 83       	st	Y, r22
    1ec4:	79 83       	std	Y+1, r23	; 0x01
    1ec6:	8a 83       	std	Y+2, r24	; 0x02
    1ec8:	9b 83       	std	Y+3, r25	; 0x03
    1eca:	ca 58       	subi	r28, 0x8A	; 138
    1ecc:	d1 40       	sbci	r29, 0x01	; 1
    1ece:	c6 57       	subi	r28, 0x76	; 118
    1ed0:	de 4f       	sbci	r29, 0xFE	; 254
    1ed2:	88 81       	ld	r24, Y
    1ed4:	99 81       	ldd	r25, Y+1	; 0x01
    1ed6:	aa 81       	ldd	r26, Y+2	; 0x02
    1ed8:	bb 81       	ldd	r27, Y+3	; 0x03
    1eda:	ca 58       	subi	r28, 0x8A	; 138
    1edc:	d1 40       	sbci	r29, 0x01	; 1
    1ede:	8d 83       	std	Y+5, r24	; 0x05
    1ee0:	9e 83       	std	Y+6, r25	; 0x06
    1ee2:	af 83       	std	Y+7, r26	; 0x07
    1ee4:	b8 87       	std	Y+8, r27	; 0x08

00001ee6 <.LM214>:
    1ee6:	20 e0       	ldi	r18, 0x00	; 0
    1ee8:	30 e0       	ldi	r19, 0x00	; 0
    1eea:	40 e8       	ldi	r20, 0x80	; 128
    1eec:	50 e4       	ldi	r21, 0x40	; 64
    1eee:	69 81       	ldd	r22, Y+1	; 0x01
    1ef0:	7a 81       	ldd	r23, Y+2	; 0x02
    1ef2:	8b 81       	ldd	r24, Y+3	; 0x03
    1ef4:	9c 81       	ldd	r25, Y+4	; 0x04
    1ef6:	0e 94 5f 29 	call	0x52be	; 0x52be <__mulsf3>
    1efa:	c2 57       	subi	r28, 0x72	; 114
    1efc:	de 4f       	sbci	r29, 0xFE	; 254
    1efe:	68 83       	st	Y, r22
    1f00:	79 83       	std	Y+1, r23	; 0x01
    1f02:	8a 83       	std	Y+2, r24	; 0x02
    1f04:	9b 83       	std	Y+3, r25	; 0x03
    1f06:	ce 58       	subi	r28, 0x8E	; 142
    1f08:	d1 40       	sbci	r29, 0x01	; 1
    1f0a:	c2 57       	subi	r28, 0x72	; 114
    1f0c:	de 4f       	sbci	r29, 0xFE	; 254
    1f0e:	88 81       	ld	r24, Y
    1f10:	99 81       	ldd	r25, Y+1	; 0x01
    1f12:	aa 81       	ldd	r26, Y+2	; 0x02
    1f14:	bb 81       	ldd	r27, Y+3	; 0x03
    1f16:	ce 58       	subi	r28, 0x8E	; 142
    1f18:	d1 40       	sbci	r29, 0x01	; 1
    1f1a:	89 87       	std	Y+9, r24	; 0x09
    1f1c:	9a 87       	std	Y+10, r25	; 0x0a
    1f1e:	ab 87       	std	Y+11, r26	; 0x0b
    1f20:	bc 87       	std	Y+12, r27	; 0x0c

00001f22 <.LM215>:
    1f22:	20 e0       	ldi	r18, 0x00	; 0
    1f24:	30 e0       	ldi	r19, 0x00	; 0
    1f26:	40 e8       	ldi	r20, 0x80	; 128
    1f28:	5f e3       	ldi	r21, 0x3F	; 63
    1f2a:	6d 81       	ldd	r22, Y+5	; 0x05
    1f2c:	7e 81       	ldd	r23, Y+6	; 0x06
    1f2e:	8f 81       	ldd	r24, Y+7	; 0x07
    1f30:	98 85       	ldd	r25, Y+8	; 0x08
    1f32:	0e 94 3f 28 	call	0x507e	; 0x507e <__cmpsf2>
    1f36:	88 23       	and	r24, r24
    1f38:	1c f4       	brge	.+6      	; 0x1f40 <.L176>

00001f3a <.LM216>:
    1f3a:	81 e0       	ldi	r24, 0x01	; 1
    1f3c:	8d 87       	std	Y+13, r24	; 0x0d
    1f3e:	1d c1       	rjmp	.+570    	; 0x217a <.L109>

00001f40 <.L176>:
    1f40:	20 e0       	ldi	r18, 0x00	; 0
    1f42:	3f ef       	ldi	r19, 0xFF	; 255
    1f44:	4f e7       	ldi	r20, 0x7F	; 127
    1f46:	57 e4       	ldi	r21, 0x47	; 71
    1f48:	69 85       	ldd	r22, Y+9	; 0x09
    1f4a:	7a 85       	ldd	r23, Y+10	; 0x0a
    1f4c:	8b 85       	ldd	r24, Y+11	; 0x0b
    1f4e:	9c 85       	ldd	r25, Y+12	; 0x0c
    1f50:	0e 94 5a 29 	call	0x52b4	; 0x52b4 <__gesf2>
    1f54:	18 16       	cp	r1, r24
    1f56:	0c f0       	brlt	.+2      	; 0x1f5a <.LM218>

00001f58 <L0^A>:
    1f58:	ce c0       	rjmp	.+412    	; 0x20f6 <.L177>

00001f5a <.LM218>:
    1f5a:	20 e0       	ldi	r18, 0x00	; 0
    1f5c:	30 e0       	ldi	r19, 0x00	; 0
    1f5e:	4a e7       	ldi	r20, 0x7A	; 122
    1f60:	54 e4       	ldi	r21, 0x44	; 68
    1f62:	69 81       	ldd	r22, Y+1	; 0x01
    1f64:	7a 81       	ldd	r23, Y+2	; 0x02
    1f66:	8b 81       	ldd	r24, Y+3	; 0x03
    1f68:	9c 81       	ldd	r25, Y+4	; 0x04
    1f6a:	0e 94 44 28 	call	0x5088	; 0x5088 <__divsf3>
    1f6e:	ce 56       	subi	r28, 0x6E	; 110
    1f70:	de 4f       	sbci	r29, 0xFE	; 254
    1f72:	68 83       	st	Y, r22
    1f74:	79 83       	std	Y+1, r23	; 0x01
    1f76:	8a 83       	std	Y+2, r24	; 0x02
    1f78:	9b 83       	std	Y+3, r25	; 0x03
    1f7a:	c2 59       	subi	r28, 0x92	; 146
    1f7c:	d1 40       	sbci	r29, 0x01	; 1
    1f7e:	ce 56       	subi	r28, 0x6E	; 110
    1f80:	de 4f       	sbci	r29, 0xFE	; 254
    1f82:	88 81       	ld	r24, Y
    1f84:	99 81       	ldd	r25, Y+1	; 0x01
    1f86:	aa 81       	ldd	r26, Y+2	; 0x02
    1f88:	bb 81       	ldd	r27, Y+3	; 0x03
    1f8a:	c2 59       	subi	r28, 0x92	; 146
    1f8c:	d1 40       	sbci	r29, 0x01	; 1
    1f8e:	8e 87       	std	Y+14, r24	; 0x0e
    1f90:	9f 87       	std	Y+15, r25	; 0x0f
    1f92:	a8 8b       	std	Y+16, r26	; 0x10
    1f94:	b9 8b       	std	Y+17, r27	; 0x11

00001f96 <.LM219>:
    1f96:	20 e0       	ldi	r18, 0x00	; 0
    1f98:	30 e0       	ldi	r19, 0x00	; 0
    1f9a:	4a e7       	ldi	r20, 0x7A	; 122
    1f9c:	55 e4       	ldi	r21, 0x45	; 69
    1f9e:	6e 85       	ldd	r22, Y+14	; 0x0e
    1fa0:	7f 85       	ldd	r23, Y+15	; 0x0f
    1fa2:	88 89       	ldd	r24, Y+16	; 0x10
    1fa4:	99 89       	ldd	r25, Y+17	; 0x11
    1fa6:	0e 94 5f 29 	call	0x52be	; 0x52be <__mulsf3>
    1faa:	ca 56       	subi	r28, 0x6A	; 106
    1fac:	de 4f       	sbci	r29, 0xFE	; 254
    1fae:	68 83       	st	Y, r22
    1fb0:	79 83       	std	Y+1, r23	; 0x01
    1fb2:	8a 83       	std	Y+2, r24	; 0x02
    1fb4:	9b 83       	std	Y+3, r25	; 0x03
    1fb6:	c6 59       	subi	r28, 0x96	; 150
    1fb8:	d1 40       	sbci	r29, 0x01	; 1
    1fba:	ca 56       	subi	r28, 0x6A	; 106
    1fbc:	de 4f       	sbci	r29, 0xFE	; 254
    1fbe:	88 81       	ld	r24, Y
    1fc0:	99 81       	ldd	r25, Y+1	; 0x01
    1fc2:	aa 81       	ldd	r26, Y+2	; 0x02
    1fc4:	bb 81       	ldd	r27, Y+3	; 0x03
    1fc6:	c6 59       	subi	r28, 0x96	; 150
    1fc8:	d1 40       	sbci	r29, 0x01	; 1
    1fca:	8a 8b       	std	Y+18, r24	; 0x12
    1fcc:	9b 8b       	std	Y+19, r25	; 0x13
    1fce:	ac 8b       	std	Y+20, r26	; 0x14
    1fd0:	bd 8b       	std	Y+21, r27	; 0x15

00001fd2 <.LM220>:
    1fd2:	20 e0       	ldi	r18, 0x00	; 0
    1fd4:	30 e0       	ldi	r19, 0x00	; 0
    1fd6:	40 e8       	ldi	r20, 0x80	; 128
    1fd8:	5f e3       	ldi	r21, 0x3F	; 63
    1fda:	6a 89       	ldd	r22, Y+18	; 0x12
    1fdc:	7b 89       	ldd	r23, Y+19	; 0x13
    1fde:	8c 89       	ldd	r24, Y+20	; 0x14
    1fe0:	9d 89       	ldd	r25, Y+21	; 0x15
    1fe2:	0e 94 3f 28 	call	0x507e	; 0x507e <__cmpsf2>
    1fe6:	88 23       	and	r24, r24
    1fe8:	2c f4       	brge	.+10     	; 0x1ff4 <.L178>

00001fea <.LM221>:
    1fea:	81 e0       	ldi	r24, 0x01	; 1
    1fec:	90 e0       	ldi	r25, 0x00	; 0
    1fee:	9f 8b       	std	Y+23, r25	; 0x17
    1ff0:	8e 8b       	std	Y+22, r24	; 0x16
    1ff2:	75 c0       	rjmp	.+234    	; 0x20de <.L114>

00001ff4 <.L178>:
    1ff4:	20 e0       	ldi	r18, 0x00	; 0
    1ff6:	3f ef       	ldi	r19, 0xFF	; 255
    1ff8:	4f e7       	ldi	r20, 0x7F	; 127
    1ffa:	57 e4       	ldi	r21, 0x47	; 71
    1ffc:	6a 89       	ldd	r22, Y+18	; 0x12
    1ffe:	7b 89       	ldd	r23, Y+19	; 0x13
    2000:	8c 89       	ldd	r24, Y+20	; 0x14
    2002:	9d 89       	ldd	r25, Y+21	; 0x15
    2004:	0e 94 5a 29 	call	0x52b4	; 0x52b4 <__gesf2>
    2008:	18 16       	cp	r1, r24
    200a:	0c f0       	brlt	.+2      	; 0x200e <.LM223>

0000200c <L0^A>:
    200c:	52 c0       	rjmp	.+164    	; 0x20b2 <.L179>

0000200e <.LM223>:
    200e:	20 e0       	ldi	r18, 0x00	; 0
    2010:	30 e0       	ldi	r19, 0x00	; 0
    2012:	40 e2       	ldi	r20, 0x20	; 32
    2014:	51 e4       	ldi	r21, 0x41	; 65
    2016:	6e 85       	ldd	r22, Y+14	; 0x0e
    2018:	7f 85       	ldd	r23, Y+15	; 0x0f
    201a:	88 89       	ldd	r24, Y+16	; 0x10
    201c:	99 89       	ldd	r25, Y+17	; 0x11
    201e:	0e 94 5f 29 	call	0x52be	; 0x52be <__mulsf3>
    2022:	c6 56       	subi	r28, 0x66	; 102
    2024:	de 4f       	sbci	r29, 0xFE	; 254
    2026:	68 83       	st	Y, r22
    2028:	79 83       	std	Y+1, r23	; 0x01
    202a:	8a 83       	std	Y+2, r24	; 0x02
    202c:	9b 83       	std	Y+3, r25	; 0x03
    202e:	ca 59       	subi	r28, 0x9A	; 154
    2030:	d1 40       	sbci	r29, 0x01	; 1
    2032:	c6 56       	subi	r28, 0x66	; 102
    2034:	de 4f       	sbci	r29, 0xFE	; 254
    2036:	88 81       	ld	r24, Y
    2038:	99 81       	ldd	r25, Y+1	; 0x01
    203a:	aa 81       	ldd	r26, Y+2	; 0x02
    203c:	bb 81       	ldd	r27, Y+3	; 0x03
    203e:	ca 59       	subi	r28, 0x9A	; 154
    2040:	d1 40       	sbci	r29, 0x01	; 1
    2042:	c2 54       	subi	r28, 0x42	; 66
    2044:	df 4f       	sbci	r29, 0xFF	; 255
    2046:	88 83       	st	Y, r24
    2048:	99 83       	std	Y+1, r25	; 0x01
    204a:	aa 83       	std	Y+2, r26	; 0x02
    204c:	bb 83       	std	Y+3, r27	; 0x03
    204e:	ce 5b       	subi	r28, 0xBE	; 190
    2050:	d0 40       	sbci	r29, 0x00	; 0

00002052 <.LM224>:
    2052:	c2 54       	subi	r28, 0x42	; 66
    2054:	df 4f       	sbci	r29, 0xFF	; 255
    2056:	68 81       	ld	r22, Y
    2058:	79 81       	ldd	r23, Y+1	; 0x01
    205a:	8a 81       	ldd	r24, Y+2	; 0x02
    205c:	9b 81       	ldd	r25, Y+3	; 0x03
    205e:	ce 5b       	subi	r28, 0xBE	; 190
    2060:	d0 40       	sbci	r29, 0x00	; 0
    2062:	0e 94 b6 28 	call	0x516c	; 0x516c <__fixunssfsi>
    2066:	c2 56       	subi	r28, 0x62	; 98
    2068:	de 4f       	sbci	r29, 0xFE	; 254
    206a:	68 83       	st	Y, r22
    206c:	79 83       	std	Y+1, r23	; 0x01
    206e:	8a 83       	std	Y+2, r24	; 0x02
    2070:	9b 83       	std	Y+3, r25	; 0x03
    2072:	ce 59       	subi	r28, 0x9E	; 158
    2074:	d1 40       	sbci	r29, 0x01	; 1
    2076:	c2 56       	subi	r28, 0x62	; 98
    2078:	de 4f       	sbci	r29, 0xFE	; 254
    207a:	a8 81       	ld	r26, Y
    207c:	b9 81       	ldd	r27, Y+1	; 0x01
    207e:	ce 59       	subi	r28, 0x9E	; 158
    2080:	d1 40       	sbci	r29, 0x01	; 1
    2082:	bf 8b       	std	Y+23, r27	; 0x17
    2084:	ae 8b       	std	Y+22, r26	; 0x16

00002086 <.LM225>:
    2086:	10 c0       	rjmp	.+32     	; 0x20a8 <.L117>

00002088 <.L118>:
    2088:	80 e9       	ldi	r24, 0x90	; 144
    208a:	91 e0       	ldi	r25, 0x01	; 1
    208c:	99 8f       	std	Y+25, r25	; 0x19
    208e:	88 8f       	std	Y+24, r24	; 0x18

00002090 <.LM226>:
    2090:	88 8d       	ldd	r24, Y+24	; 0x18
    2092:	99 8d       	ldd	r25, Y+25	; 0x19

00002094 <.L1^B25>:
    2094:	01 97       	sbiw	r24, 0x01	; 1
    2096:	f1 f7       	brne	.-4      	; 0x2094 <.L1^B25>
    2098:	99 8f       	std	Y+25, r25	; 0x19
    209a:	88 8f       	std	Y+24, r24	; 0x18

0000209c <.LM227>:
	...

0000209e <.LM228>:
    209e:	8e 89       	ldd	r24, Y+22	; 0x16
    20a0:	9f 89       	ldd	r25, Y+23	; 0x17
    20a2:	01 97       	sbiw	r24, 0x01	; 1
    20a4:	9f 8b       	std	Y+23, r25	; 0x17
    20a6:	8e 8b       	std	Y+22, r24	; 0x16

000020a8 <.L117>:
    20a8:	8e 89       	ldd	r24, Y+22	; 0x16
    20aa:	9f 89       	ldd	r25, Y+23	; 0x17
    20ac:	89 2b       	or	r24, r25
    20ae:	61 f7       	brne	.-40     	; 0x2088 <.L118>

000020b0 <.LM230>:
    20b0:	21 c0       	rjmp	.+66     	; 0x20f4 <.L119>

000020b2 <.L179>:
    20b2:	6a 89       	ldd	r22, Y+18	; 0x12
    20b4:	7b 89       	ldd	r23, Y+19	; 0x13
    20b6:	8c 89       	ldd	r24, Y+20	; 0x14
    20b8:	9d 89       	ldd	r25, Y+21	; 0x15
    20ba:	0e 94 b6 28 	call	0x516c	; 0x516c <__fixunssfsi>
    20be:	ce 55       	subi	r28, 0x5E	; 94
    20c0:	de 4f       	sbci	r29, 0xFE	; 254
    20c2:	68 83       	st	Y, r22
    20c4:	79 83       	std	Y+1, r23	; 0x01
    20c6:	8a 83       	std	Y+2, r24	; 0x02
    20c8:	9b 83       	std	Y+3, r25	; 0x03
    20ca:	c2 5a       	subi	r28, 0xA2	; 162
    20cc:	d1 40       	sbci	r29, 0x01	; 1
    20ce:	ce 55       	subi	r28, 0x5E	; 94
    20d0:	de 4f       	sbci	r29, 0xFE	; 254
    20d2:	e8 81       	ld	r30, Y
    20d4:	f9 81       	ldd	r31, Y+1	; 0x01
    20d6:	c2 5a       	subi	r28, 0xA2	; 162
    20d8:	d1 40       	sbci	r29, 0x01	; 1
    20da:	ff 8b       	std	Y+23, r31	; 0x17
    20dc:	ee 8b       	std	Y+22, r30	; 0x16

000020de <.L114>:
    20de:	8e 89       	ldd	r24, Y+22	; 0x16
    20e0:	9f 89       	ldd	r25, Y+23	; 0x17
    20e2:	9b 8f       	std	Y+27, r25	; 0x1b
    20e4:	8a 8f       	std	Y+26, r24	; 0x1a

000020e6 <.LM232>:
    20e6:	8a 8d       	ldd	r24, Y+26	; 0x1a
    20e8:	9b 8d       	ldd	r25, Y+27	; 0x1b

000020ea <.L1^B26>:
    20ea:	01 97       	sbiw	r24, 0x01	; 1
    20ec:	f1 f7       	brne	.-4      	; 0x20ea <.L1^B26>
    20ee:	9b 8f       	std	Y+27, r25	; 0x1b
    20f0:	8a 8f       	std	Y+26, r24	; 0x1a

000020f2 <.LM233>:
	...

000020f4 <.L119>:
    20f4:	49 c0       	rjmp	.+146    	; 0x2188 <.L120>

000020f6 <.L177>:
    20f6:	20 e0       	ldi	r18, 0x00	; 0
    20f8:	30 e0       	ldi	r19, 0x00	; 0
    20fa:	4f e7       	ldi	r20, 0x7F	; 127
    20fc:	53 e4       	ldi	r21, 0x43	; 67
    20fe:	6d 81       	ldd	r22, Y+5	; 0x05
    2100:	7e 81       	ldd	r23, Y+6	; 0x06
    2102:	8f 81       	ldd	r24, Y+7	; 0x07
    2104:	98 85       	ldd	r25, Y+8	; 0x08
    2106:	0e 94 5a 29 	call	0x52b4	; 0x52b4 <__gesf2>
    210a:	18 16       	cp	r1, r24
    210c:	14 f5       	brge	.+68     	; 0x2152 <.L180>

0000210e <.LM236>:
    210e:	69 85       	ldd	r22, Y+9	; 0x09
    2110:	7a 85       	ldd	r23, Y+10	; 0x0a
    2112:	8b 85       	ldd	r24, Y+11	; 0x0b
    2114:	9c 85       	ldd	r25, Y+12	; 0x0c
    2116:	0e 94 b6 28 	call	0x516c	; 0x516c <__fixunssfsi>
    211a:	ca 55       	subi	r28, 0x5A	; 90
    211c:	de 4f       	sbci	r29, 0xFE	; 254
    211e:	68 83       	st	Y, r22
    2120:	79 83       	std	Y+1, r23	; 0x01
    2122:	8a 83       	std	Y+2, r24	; 0x02
    2124:	9b 83       	std	Y+3, r25	; 0x03
    2126:	c6 5a       	subi	r28, 0xA6	; 166
    2128:	d1 40       	sbci	r29, 0x01	; 1
    212a:	ca 55       	subi	r28, 0x5A	; 90
    212c:	de 4f       	sbci	r29, 0xFE	; 254
    212e:	88 81       	ld	r24, Y
    2130:	99 81       	ldd	r25, Y+1	; 0x01
    2132:	c6 5a       	subi	r28, 0xA6	; 166
    2134:	d1 40       	sbci	r29, 0x01	; 1
    2136:	9d 8f       	std	Y+29, r25	; 0x1d
    2138:	8c 8f       	std	Y+28, r24	; 0x1c
    213a:	8c 8d       	ldd	r24, Y+28	; 0x1c
    213c:	9d 8d       	ldd	r25, Y+29	; 0x1d
    213e:	9f 8f       	std	Y+31, r25	; 0x1f
    2140:	8e 8f       	std	Y+30, r24	; 0x1e

00002142 <.LM237>:
    2142:	8e 8d       	ldd	r24, Y+30	; 0x1e
    2144:	9f 8d       	ldd	r25, Y+31	; 0x1f

00002146 <.L1^B27>:
    2146:	01 97       	sbiw	r24, 0x01	; 1
    2148:	f1 f7       	brne	.-4      	; 0x2146 <.L1^B27>
    214a:	9f 8f       	std	Y+31, r25	; 0x1f
    214c:	8e 8f       	std	Y+30, r24	; 0x1e

0000214e <.LM238>:
	...

00002150 <.LM239>:
    2150:	1b c0       	rjmp	.+54     	; 0x2188 <.L120>

00002152 <.L180>:
    2152:	6d 81       	ldd	r22, Y+5	; 0x05
    2154:	7e 81       	ldd	r23, Y+6	; 0x06
    2156:	8f 81       	ldd	r24, Y+7	; 0x07
    2158:	98 85       	ldd	r25, Y+8	; 0x08
    215a:	0e 94 b6 28 	call	0x516c	; 0x516c <__fixunssfsi>
    215e:	c6 55       	subi	r28, 0x56	; 86
    2160:	de 4f       	sbci	r29, 0xFE	; 254
    2162:	68 83       	st	Y, r22
    2164:	79 83       	std	Y+1, r23	; 0x01
    2166:	8a 83       	std	Y+2, r24	; 0x02
    2168:	9b 83       	std	Y+3, r25	; 0x03
    216a:	ca 5a       	subi	r28, 0xAA	; 170
    216c:	d1 40       	sbci	r29, 0x01	; 1
    216e:	c6 55       	subi	r28, 0x56	; 86
    2170:	de 4f       	sbci	r29, 0xFE	; 254
    2172:	98 81       	ld	r25, Y
    2174:	ca 5a       	subi	r28, 0xAA	; 170
    2176:	d1 40       	sbci	r29, 0x01	; 1
    2178:	9d 87       	std	Y+13, r25	; 0x0d

0000217a <.L109>:
    217a:	8d 85       	ldd	r24, Y+13	; 0x0d
    217c:	88 a3       	std	Y+32, r24	; 0x20

0000217e <.LM241>:
    217e:	88 a1       	ldd	r24, Y+32	; 0x20

00002180 <.L1^B28>:
    2180:	8a 95       	dec	r24
    2182:	f1 f7       	brne	.-4      	; 0x2180 <.L1^B28>
    2184:	88 a3       	std	Y+32, r24	; 0x20

00002186 <.LM242>:
	...

00002188 <.L120>:
    2188:	00 00       	nop
    218a:	c3 55       	subi	r28, 0x53	; 83
    218c:	de 4f       	sbci	r29, 0xFE	; 254
    218e:	0f b6       	in	r0, 0x3f	; 63
    2190:	f8 94       	cli
    2192:	de bf       	out	0x3e, r29	; 62
    2194:	0f be       	out	0x3f, r0	; 63
    2196:	cd bf       	out	0x3d, r28	; 61
    2198:	df 91       	pop	r29
    219a:	cf 91       	pop	r28
    219c:	1f 91       	pop	r17
    219e:	0f 91       	pop	r16
    21a0:	08 95       	ret

000021a2 <LCD_displayCharacter>:
    21a2:	0f 93       	push	r16
    21a4:	1f 93       	push	r17
    21a6:	cf 93       	push	r28
    21a8:	df 93       	push	r29
    21aa:	cd b7       	in	r28, 0x3d	; 61
    21ac:	de b7       	in	r29, 0x3e	; 62
    21ae:	c1 56       	subi	r28, 0x61	; 97
    21b0:	d1 40       	sbci	r29, 0x01	; 1
    21b2:	0f b6       	in	r0, 0x3f	; 63
    21b4:	f8 94       	cli
    21b6:	de bf       	out	0x3e, r29	; 62
    21b8:	0f be       	out	0x3f, r0	; 63
    21ba:	cd bf       	out	0x3d, r28	; 61
    21bc:	9e 01       	movw	r18, r28
    21be:	27 56       	subi	r18, 0x67	; 103
    21c0:	3f 4f       	sbci	r19, 0xFF	; 255
    21c2:	d9 01       	movw	r26, r18
    21c4:	8c 93       	st	X, r24

000021c6 <.LM245>:
    21c6:	41 e0       	ldi	r20, 0x01	; 1
    21c8:	61 e0       	ldi	r22, 0x01	; 1
    21ca:	80 e0       	ldi	r24, 0x00	; 0
    21cc:	0e 94 6e 01 	call	0x2dc	; 0x2dc <GPIO_writePin>
    21d0:	9e 01       	movw	r18, r28
    21d2:	25 57       	subi	r18, 0x75	; 117
    21d4:	3f 4f       	sbci	r19, 0xFF	; 255
    21d6:	80 e0       	ldi	r24, 0x00	; 0
    21d8:	90 e0       	ldi	r25, 0x00	; 0
    21da:	a0 e8       	ldi	r26, 0x80	; 128
    21dc:	bf e3       	ldi	r27, 0x3F	; 63
    21de:	f9 01       	movw	r30, r18
    21e0:	80 83       	st	Z, r24
    21e2:	91 83       	std	Z+1, r25	; 0x01
    21e4:	a2 83       	std	Z+2, r26	; 0x02
    21e6:	b3 83       	std	Z+3, r27	; 0x03

000021e8 <.LM246>:
    21e8:	8e 01       	movw	r16, r28
    21ea:	01 57       	subi	r16, 0x71	; 113
    21ec:	1f 4f       	sbci	r17, 0xFF	; 255
    21ee:	ce 01       	movw	r24, r28
    21f0:	85 57       	subi	r24, 0x75	; 117
    21f2:	9f 4f       	sbci	r25, 0xFF	; 255
    21f4:	20 e0       	ldi	r18, 0x00	; 0
    21f6:	30 e0       	ldi	r19, 0x00	; 0
    21f8:	4a e7       	ldi	r20, 0x7A	; 122
    21fa:	55 e4       	ldi	r21, 0x45	; 69
    21fc:	dc 01       	movw	r26, r24
    21fe:	6d 91       	ld	r22, X+
    2200:	7d 91       	ld	r23, X+
    2202:	8d 91       	ld	r24, X+
    2204:	9c 91       	ld	r25, X
    2206:	0e 94 5f 29 	call	0x52be	; 0x52be <__mulsf3>
    220a:	ca 54       	subi	r28, 0x4A	; 74
    220c:	df 4f       	sbci	r29, 0xFF	; 255
    220e:	68 83       	st	Y, r22
    2210:	79 83       	std	Y+1, r23	; 0x01
    2212:	8a 83       	std	Y+2, r24	; 0x02
    2214:	9b 83       	std	Y+3, r25	; 0x03
    2216:	c6 5b       	subi	r28, 0xB6	; 182
    2218:	d0 40       	sbci	r29, 0x00	; 0
    221a:	ca 54       	subi	r28, 0x4A	; 74
    221c:	df 4f       	sbci	r29, 0xFF	; 255
    221e:	88 81       	ld	r24, Y
    2220:	99 81       	ldd	r25, Y+1	; 0x01
    2222:	aa 81       	ldd	r26, Y+2	; 0x02
    2224:	bb 81       	ldd	r27, Y+3	; 0x03
    2226:	c6 5b       	subi	r28, 0xB6	; 182
    2228:	d0 40       	sbci	r29, 0x00	; 0
    222a:	f8 01       	movw	r30, r16
    222c:	80 83       	st	Z, r24
    222e:	91 83       	std	Z+1, r25	; 0x01
    2230:	a2 83       	std	Z+2, r26	; 0x02
    2232:	b3 83       	std	Z+3, r27	; 0x03

00002234 <.LM247>:
    2234:	ce 01       	movw	r24, r28
    2236:	81 57       	subi	r24, 0x71	; 113
    2238:	9f 4f       	sbci	r25, 0xFF	; 255
    223a:	20 e0       	ldi	r18, 0x00	; 0
    223c:	30 e0       	ldi	r19, 0x00	; 0
    223e:	40 e8       	ldi	r20, 0x80	; 128
    2240:	5f e3       	ldi	r21, 0x3F	; 63
    2242:	dc 01       	movw	r26, r24
    2244:	6d 91       	ld	r22, X+
    2246:	7d 91       	ld	r23, X+
    2248:	8d 91       	ld	r24, X+
    224a:	9c 91       	ld	r25, X
    224c:	0e 94 3f 28 	call	0x507e	; 0x507e <__cmpsf2>
    2250:	88 23       	and	r24, r24
    2252:	4c f4       	brge	.+18     	; 0x2266 <.L285>

00002254 <.LM248>:
    2254:	ce 01       	movw	r24, r28
    2256:	8d 56       	subi	r24, 0x6D	; 109
    2258:	9f 4f       	sbci	r25, 0xFF	; 255
    225a:	21 e0       	ldi	r18, 0x01	; 1
    225c:	30 e0       	ldi	r19, 0x00	; 0
    225e:	fc 01       	movw	r30, r24
    2260:	31 83       	std	Z+1, r19	; 0x01
    2262:	20 83       	st	Z, r18
    2264:	a2 c0       	rjmp	.+324    	; 0x23aa <.L184>

00002266 <.L285>:
    2266:	ce 01       	movw	r24, r28
    2268:	81 57       	subi	r24, 0x71	; 113
    226a:	9f 4f       	sbci	r25, 0xFF	; 255
    226c:	20 e0       	ldi	r18, 0x00	; 0
    226e:	3f ef       	ldi	r19, 0xFF	; 255
    2270:	4f e7       	ldi	r20, 0x7F	; 127
    2272:	57 e4       	ldi	r21, 0x47	; 71
    2274:	dc 01       	movw	r26, r24
    2276:	6d 91       	ld	r22, X+
    2278:	7d 91       	ld	r23, X+
    227a:	8d 91       	ld	r24, X+
    227c:	9c 91       	ld	r25, X
    227e:	0e 94 5a 29 	call	0x52b4	; 0x52b4 <__gesf2>
    2282:	18 16       	cp	r1, r24
    2284:	0c f0       	brlt	.+2      	; 0x2288 <.LM250>

00002286 <L0^A>:
    2286:	73 c0       	rjmp	.+230    	; 0x236e <.L286>

00002288 <.LM250>:
    2288:	ce 01       	movw	r24, r28
    228a:	85 57       	subi	r24, 0x75	; 117
    228c:	9f 4f       	sbci	r25, 0xFF	; 255
    228e:	20 e0       	ldi	r18, 0x00	; 0
    2290:	30 e0       	ldi	r19, 0x00	; 0
    2292:	40 e2       	ldi	r20, 0x20	; 32
    2294:	51 e4       	ldi	r21, 0x41	; 65
    2296:	fc 01       	movw	r30, r24
    2298:	60 81       	ld	r22, Z
    229a:	71 81       	ldd	r23, Z+1	; 0x01
    229c:	82 81       	ldd	r24, Z+2	; 0x02
    229e:	93 81       	ldd	r25, Z+3	; 0x03
    22a0:	0e 94 5f 29 	call	0x52be	; 0x52be <__mulsf3>
    22a4:	c6 54       	subi	r28, 0x46	; 70
    22a6:	df 4f       	sbci	r29, 0xFF	; 255
    22a8:	68 83       	st	Y, r22
    22aa:	79 83       	std	Y+1, r23	; 0x01
    22ac:	8a 83       	std	Y+2, r24	; 0x02
    22ae:	9b 83       	std	Y+3, r25	; 0x03
    22b0:	ca 5b       	subi	r28, 0xBA	; 186
    22b2:	d0 40       	sbci	r29, 0x00	; 0
    22b4:	c6 54       	subi	r28, 0x46	; 70
    22b6:	df 4f       	sbci	r29, 0xFF	; 255
    22b8:	88 81       	ld	r24, Y
    22ba:	99 81       	ldd	r25, Y+1	; 0x01
    22bc:	aa 81       	ldd	r26, Y+2	; 0x02
    22be:	bb 81       	ldd	r27, Y+3	; 0x03
    22c0:	ca 5b       	subi	r28, 0xBA	; 186
    22c2:	d0 40       	sbci	r29, 0x00	; 0
    22c4:	ce 54       	subi	r28, 0x4E	; 78
    22c6:	df 4f       	sbci	r29, 0xFF	; 255
    22c8:	88 83       	st	Y, r24
    22ca:	99 83       	std	Y+1, r25	; 0x01
    22cc:	aa 83       	std	Y+2, r26	; 0x02
    22ce:	bb 83       	std	Y+3, r27	; 0x03
    22d0:	c2 5b       	subi	r28, 0xB2	; 178
    22d2:	d0 40       	sbci	r29, 0x00	; 0

000022d4 <.LM251>:
    22d4:	8e 01       	movw	r16, r28
    22d6:	0d 56       	subi	r16, 0x6D	; 109
    22d8:	1f 4f       	sbci	r17, 0xFF	; 255
    22da:	ce 54       	subi	r28, 0x4E	; 78
    22dc:	df 4f       	sbci	r29, 0xFF	; 255
    22de:	68 81       	ld	r22, Y
    22e0:	79 81       	ldd	r23, Y+1	; 0x01
    22e2:	8a 81       	ldd	r24, Y+2	; 0x02
    22e4:	9b 81       	ldd	r25, Y+3	; 0x03
    22e6:	c2 5b       	subi	r28, 0xB2	; 178
    22e8:	d0 40       	sbci	r29, 0x00	; 0
    22ea:	0e 94 b6 28 	call	0x516c	; 0x516c <__fixunssfsi>
    22ee:	c2 54       	subi	r28, 0x42	; 66
    22f0:	df 4f       	sbci	r29, 0xFF	; 255
    22f2:	68 83       	st	Y, r22
    22f4:	79 83       	std	Y+1, r23	; 0x01
    22f6:	8a 83       	std	Y+2, r24	; 0x02
    22f8:	9b 83       	std	Y+3, r25	; 0x03
    22fa:	ce 5b       	subi	r28, 0xBE	; 190
    22fc:	d0 40       	sbci	r29, 0x00	; 0
    22fe:	c2 54       	subi	r28, 0x42	; 66
    2300:	df 4f       	sbci	r29, 0xFF	; 255
    2302:	e8 81       	ld	r30, Y
    2304:	f9 81       	ldd	r31, Y+1	; 0x01
    2306:	ce 5b       	subi	r28, 0xBE	; 190
    2308:	d0 40       	sbci	r29, 0x00	; 0
    230a:	d8 01       	movw	r26, r16
    230c:	ed 93       	st	X+, r30
    230e:	fc 93       	st	X, r31

00002310 <.LM252>:
    2310:	25 c0       	rjmp	.+74     	; 0x235c <.L187>

00002312 <.L188>:
    2312:	ce 01       	movw	r24, r28
    2314:	8b 56       	subi	r24, 0x6B	; 107
    2316:	9f 4f       	sbci	r25, 0xFF	; 255
    2318:	20 e9       	ldi	r18, 0x90	; 144
    231a:	31 e0       	ldi	r19, 0x01	; 1
    231c:	dc 01       	movw	r26, r24
    231e:	2d 93       	st	X+, r18
    2320:	3c 93       	st	X, r19

00002322 <.LM253>:
    2322:	ce 01       	movw	r24, r28
    2324:	8b 56       	subi	r24, 0x6B	; 107
    2326:	9f 4f       	sbci	r25, 0xFF	; 255
    2328:	fc 01       	movw	r30, r24
    232a:	80 81       	ld	r24, Z
    232c:	91 81       	ldd	r25, Z+1	; 0x01

0000232e <.L1^B29>:
    232e:	01 97       	sbiw	r24, 0x01	; 1
    2330:	f1 f7       	brne	.-4      	; 0x232e <.L1^B29>
    2332:	9e 01       	movw	r18, r28
    2334:	2b 56       	subi	r18, 0x6B	; 107
    2336:	3f 4f       	sbci	r19, 0xFF	; 255
    2338:	d9 01       	movw	r26, r18
    233a:	8d 93       	st	X+, r24
    233c:	9c 93       	st	X, r25

0000233e <.LM254>:
	...

00002340 <.LM255>:
    2340:	ce 01       	movw	r24, r28
    2342:	8d 56       	subi	r24, 0x6D	; 109
    2344:	9f 4f       	sbci	r25, 0xFF	; 255
    2346:	9e 01       	movw	r18, r28
    2348:	2d 56       	subi	r18, 0x6D	; 109
    234a:	3f 4f       	sbci	r19, 0xFF	; 255
    234c:	f9 01       	movw	r30, r18
    234e:	20 81       	ld	r18, Z
    2350:	31 81       	ldd	r19, Z+1	; 0x01
    2352:	21 50       	subi	r18, 0x01	; 1
    2354:	31 09       	sbc	r19, r1
    2356:	dc 01       	movw	r26, r24
    2358:	2d 93       	st	X+, r18
    235a:	3c 93       	st	X, r19

0000235c <.L187>:
    235c:	ce 01       	movw	r24, r28
    235e:	8d 56       	subi	r24, 0x6D	; 109
    2360:	9f 4f       	sbci	r25, 0xFF	; 255
    2362:	fc 01       	movw	r30, r24
    2364:	80 81       	ld	r24, Z
    2366:	91 81       	ldd	r25, Z+1	; 0x01
    2368:	89 2b       	or	r24, r25
    236a:	99 f6       	brne	.-90     	; 0x2312 <.L188>

0000236c <.LM257>:
    236c:	39 c0       	rjmp	.+114    	; 0x23e0 <.L189>

0000236e <.L286>:
    236e:	8e 01       	movw	r16, r28
    2370:	0d 56       	subi	r16, 0x6D	; 109
    2372:	1f 4f       	sbci	r17, 0xFF	; 255
    2374:	ce 01       	movw	r24, r28
    2376:	81 57       	subi	r24, 0x71	; 113
    2378:	9f 4f       	sbci	r25, 0xFF	; 255
    237a:	dc 01       	movw	r26, r24
    237c:	6d 91       	ld	r22, X+
    237e:	7d 91       	ld	r23, X+
    2380:	8d 91       	ld	r24, X+
    2382:	9c 91       	ld	r25, X
    2384:	0e 94 b6 28 	call	0x516c	; 0x516c <__fixunssfsi>
    2388:	ce 53       	subi	r28, 0x3E	; 62
    238a:	df 4f       	sbci	r29, 0xFF	; 255
    238c:	68 83       	st	Y, r22
    238e:	79 83       	std	Y+1, r23	; 0x01
    2390:	8a 83       	std	Y+2, r24	; 0x02
    2392:	9b 83       	std	Y+3, r25	; 0x03
    2394:	c2 5c       	subi	r28, 0xC2	; 194
    2396:	d0 40       	sbci	r29, 0x00	; 0
    2398:	ce 53       	subi	r28, 0x3E	; 62
    239a:	df 4f       	sbci	r29, 0xFF	; 255
    239c:	88 81       	ld	r24, Y
    239e:	99 81       	ldd	r25, Y+1	; 0x01
    23a0:	c2 5c       	subi	r28, 0xC2	; 194
    23a2:	d0 40       	sbci	r29, 0x00	; 0
    23a4:	f8 01       	movw	r30, r16
    23a6:	91 83       	std	Z+1, r25	; 0x01
    23a8:	80 83       	st	Z, r24

000023aa <.L184>:
    23aa:	ce 01       	movw	r24, r28
    23ac:	89 56       	subi	r24, 0x69	; 105
    23ae:	9f 4f       	sbci	r25, 0xFF	; 255
    23b0:	9e 01       	movw	r18, r28
    23b2:	2d 56       	subi	r18, 0x6D	; 109
    23b4:	3f 4f       	sbci	r19, 0xFF	; 255
    23b6:	d9 01       	movw	r26, r18
    23b8:	2d 91       	ld	r18, X+
    23ba:	3c 91       	ld	r19, X
    23bc:	fc 01       	movw	r30, r24
    23be:	31 83       	std	Z+1, r19	; 0x01
    23c0:	20 83       	st	Z, r18

000023c2 <.LM259>:
    23c2:	ce 01       	movw	r24, r28
    23c4:	89 56       	subi	r24, 0x69	; 105
    23c6:	9f 4f       	sbci	r25, 0xFF	; 255
    23c8:	dc 01       	movw	r26, r24
    23ca:	8d 91       	ld	r24, X+
    23cc:	9c 91       	ld	r25, X

000023ce <.L1^B30>:
    23ce:	01 97       	sbiw	r24, 0x01	; 1
    23d0:	f1 f7       	brne	.-4      	; 0x23ce <.L1^B30>
    23d2:	9e 01       	movw	r18, r28
    23d4:	29 56       	subi	r18, 0x69	; 105
    23d6:	3f 4f       	sbci	r19, 0xFF	; 255
    23d8:	f9 01       	movw	r30, r18
    23da:	91 83       	std	Z+1, r25	; 0x01
    23dc:	80 83       	st	Z, r24

000023de <.LM260>:
	...

000023e0 <.L189>:
    23e0:	41 e0       	ldi	r20, 0x01	; 1
    23e2:	62 e0       	ldi	r22, 0x02	; 2
    23e4:	80 e0       	ldi	r24, 0x00	; 0
    23e6:	0e 94 6e 01 	call	0x2dc	; 0x2dc <GPIO_writePin>
    23ea:	9e 01       	movw	r18, r28
    23ec:	23 58       	subi	r18, 0x83	; 131
    23ee:	3f 4f       	sbci	r19, 0xFF	; 255
    23f0:	80 e0       	ldi	r24, 0x00	; 0
    23f2:	90 e0       	ldi	r25, 0x00	; 0
    23f4:	a0 e8       	ldi	r26, 0x80	; 128
    23f6:	bf e3       	ldi	r27, 0x3F	; 63
    23f8:	f9 01       	movw	r30, r18
    23fa:	80 83       	st	Z, r24
    23fc:	91 83       	std	Z+1, r25	; 0x01
    23fe:	a2 83       	std	Z+2, r26	; 0x02
    2400:	b3 83       	std	Z+3, r27	; 0x03

00002402 <.LM262>:
    2402:	8e 01       	movw	r16, r28
    2404:	0f 57       	subi	r16, 0x7F	; 127
    2406:	1f 4f       	sbci	r17, 0xFF	; 255
    2408:	ce 01       	movw	r24, r28
    240a:	83 58       	subi	r24, 0x83	; 131
    240c:	9f 4f       	sbci	r25, 0xFF	; 255
    240e:	20 e0       	ldi	r18, 0x00	; 0
    2410:	30 e0       	ldi	r19, 0x00	; 0
    2412:	4a e7       	ldi	r20, 0x7A	; 122
    2414:	55 e4       	ldi	r21, 0x45	; 69
    2416:	dc 01       	movw	r26, r24
    2418:	6d 91       	ld	r22, X+
    241a:	7d 91       	ld	r23, X+
    241c:	8d 91       	ld	r24, X+
    241e:	9c 91       	ld	r25, X
    2420:	0e 94 5f 29 	call	0x52be	; 0x52be <__mulsf3>
    2424:	ca 53       	subi	r28, 0x3A	; 58
    2426:	df 4f       	sbci	r29, 0xFF	; 255
    2428:	68 83       	st	Y, r22
    242a:	79 83       	std	Y+1, r23	; 0x01
    242c:	8a 83       	std	Y+2, r24	; 0x02
    242e:	9b 83       	std	Y+3, r25	; 0x03
    2430:	c6 5c       	subi	r28, 0xC6	; 198
    2432:	d0 40       	sbci	r29, 0x00	; 0
    2434:	ca 53       	subi	r28, 0x3A	; 58
    2436:	df 4f       	sbci	r29, 0xFF	; 255
    2438:	88 81       	ld	r24, Y
    243a:	99 81       	ldd	r25, Y+1	; 0x01
    243c:	aa 81       	ldd	r26, Y+2	; 0x02
    243e:	bb 81       	ldd	r27, Y+3	; 0x03
    2440:	c6 5c       	subi	r28, 0xC6	; 198
    2442:	d0 40       	sbci	r29, 0x00	; 0
    2444:	f8 01       	movw	r30, r16
    2446:	80 83       	st	Z, r24
    2448:	91 83       	std	Z+1, r25	; 0x01
    244a:	a2 83       	std	Z+2, r26	; 0x02
    244c:	b3 83       	std	Z+3, r27	; 0x03

0000244e <.LM263>:
    244e:	ce 01       	movw	r24, r28
    2450:	8f 57       	subi	r24, 0x7F	; 127
    2452:	9f 4f       	sbci	r25, 0xFF	; 255
    2454:	20 e0       	ldi	r18, 0x00	; 0
    2456:	30 e0       	ldi	r19, 0x00	; 0
    2458:	40 e8       	ldi	r20, 0x80	; 128
    245a:	5f e3       	ldi	r21, 0x3F	; 63
    245c:	dc 01       	movw	r26, r24
    245e:	6d 91       	ld	r22, X+
    2460:	7d 91       	ld	r23, X+
    2462:	8d 91       	ld	r24, X+
    2464:	9c 91       	ld	r25, X
    2466:	0e 94 3f 28 	call	0x507e	; 0x507e <__cmpsf2>
    246a:	88 23       	and	r24, r24
    246c:	4c f4       	brge	.+18     	; 0x2480 <.L287>

0000246e <.LM264>:
    246e:	ce 01       	movw	r24, r28
    2470:	8b 57       	subi	r24, 0x7B	; 123
    2472:	9f 4f       	sbci	r25, 0xFF	; 255
    2474:	21 e0       	ldi	r18, 0x01	; 1
    2476:	30 e0       	ldi	r19, 0x00	; 0
    2478:	fc 01       	movw	r30, r24
    247a:	31 83       	std	Z+1, r19	; 0x01
    247c:	20 83       	st	Z, r18
    247e:	a2 c0       	rjmp	.+324    	; 0x25c4 <.L192>

00002480 <.L287>:
    2480:	ce 01       	movw	r24, r28
    2482:	8f 57       	subi	r24, 0x7F	; 127
    2484:	9f 4f       	sbci	r25, 0xFF	; 255
    2486:	20 e0       	ldi	r18, 0x00	; 0
    2488:	3f ef       	ldi	r19, 0xFF	; 255
    248a:	4f e7       	ldi	r20, 0x7F	; 127
    248c:	57 e4       	ldi	r21, 0x47	; 71
    248e:	dc 01       	movw	r26, r24
    2490:	6d 91       	ld	r22, X+
    2492:	7d 91       	ld	r23, X+
    2494:	8d 91       	ld	r24, X+
    2496:	9c 91       	ld	r25, X
    2498:	0e 94 5a 29 	call	0x52b4	; 0x52b4 <__gesf2>
    249c:	18 16       	cp	r1, r24
    249e:	0c f0       	brlt	.+2      	; 0x24a2 <.LM266>

000024a0 <L0^A>:
    24a0:	73 c0       	rjmp	.+230    	; 0x2588 <.L288>

000024a2 <.LM266>:
    24a2:	ce 01       	movw	r24, r28
    24a4:	83 58       	subi	r24, 0x83	; 131
    24a6:	9f 4f       	sbci	r25, 0xFF	; 255
    24a8:	20 e0       	ldi	r18, 0x00	; 0
    24aa:	30 e0       	ldi	r19, 0x00	; 0
    24ac:	40 e2       	ldi	r20, 0x20	; 32
    24ae:	51 e4       	ldi	r21, 0x41	; 65
    24b0:	fc 01       	movw	r30, r24
    24b2:	60 81       	ld	r22, Z
    24b4:	71 81       	ldd	r23, Z+1	; 0x01
    24b6:	82 81       	ldd	r24, Z+2	; 0x02
    24b8:	93 81       	ldd	r25, Z+3	; 0x03
    24ba:	0e 94 5f 29 	call	0x52be	; 0x52be <__mulsf3>
    24be:	c6 53       	subi	r28, 0x36	; 54
    24c0:	df 4f       	sbci	r29, 0xFF	; 255
    24c2:	68 83       	st	Y, r22
    24c4:	79 83       	std	Y+1, r23	; 0x01
    24c6:	8a 83       	std	Y+2, r24	; 0x02
    24c8:	9b 83       	std	Y+3, r25	; 0x03
    24ca:	ca 5c       	subi	r28, 0xCA	; 202
    24cc:	d0 40       	sbci	r29, 0x00	; 0
    24ce:	c6 53       	subi	r28, 0x36	; 54
    24d0:	df 4f       	sbci	r29, 0xFF	; 255
    24d2:	88 81       	ld	r24, Y
    24d4:	99 81       	ldd	r25, Y+1	; 0x01
    24d6:	aa 81       	ldd	r26, Y+2	; 0x02
    24d8:	bb 81       	ldd	r27, Y+3	; 0x03
    24da:	ca 5c       	subi	r28, 0xCA	; 202
    24dc:	d0 40       	sbci	r29, 0x00	; 0
    24de:	c2 55       	subi	r28, 0x52	; 82
    24e0:	df 4f       	sbci	r29, 0xFF	; 255
    24e2:	88 83       	st	Y, r24
    24e4:	99 83       	std	Y+1, r25	; 0x01
    24e6:	aa 83       	std	Y+2, r26	; 0x02
    24e8:	bb 83       	std	Y+3, r27	; 0x03
    24ea:	ce 5a       	subi	r28, 0xAE	; 174
    24ec:	d0 40       	sbci	r29, 0x00	; 0

000024ee <.LM267>:
    24ee:	8e 01       	movw	r16, r28
    24f0:	0b 57       	subi	r16, 0x7B	; 123
    24f2:	1f 4f       	sbci	r17, 0xFF	; 255
    24f4:	c2 55       	subi	r28, 0x52	; 82
    24f6:	df 4f       	sbci	r29, 0xFF	; 255
    24f8:	68 81       	ld	r22, Y
    24fa:	79 81       	ldd	r23, Y+1	; 0x01
    24fc:	8a 81       	ldd	r24, Y+2	; 0x02
    24fe:	9b 81       	ldd	r25, Y+3	; 0x03
    2500:	ce 5a       	subi	r28, 0xAE	; 174
    2502:	d0 40       	sbci	r29, 0x00	; 0
    2504:	0e 94 b6 28 	call	0x516c	; 0x516c <__fixunssfsi>
    2508:	c2 53       	subi	r28, 0x32	; 50
    250a:	df 4f       	sbci	r29, 0xFF	; 255
    250c:	68 83       	st	Y, r22
    250e:	79 83       	std	Y+1, r23	; 0x01
    2510:	8a 83       	std	Y+2, r24	; 0x02
    2512:	9b 83       	std	Y+3, r25	; 0x03
    2514:	ce 5c       	subi	r28, 0xCE	; 206
    2516:	d0 40       	sbci	r29, 0x00	; 0
    2518:	c2 53       	subi	r28, 0x32	; 50
    251a:	df 4f       	sbci	r29, 0xFF	; 255
    251c:	e8 81       	ld	r30, Y
    251e:	f9 81       	ldd	r31, Y+1	; 0x01
    2520:	ce 5c       	subi	r28, 0xCE	; 206
    2522:	d0 40       	sbci	r29, 0x00	; 0
    2524:	d8 01       	movw	r26, r16
    2526:	ed 93       	st	X+, r30
    2528:	fc 93       	st	X, r31

0000252a <.LM268>:
    252a:	25 c0       	rjmp	.+74     	; 0x2576 <.L195>

0000252c <.L196>:
    252c:	ce 01       	movw	r24, r28
    252e:	89 57       	subi	r24, 0x79	; 121
    2530:	9f 4f       	sbci	r25, 0xFF	; 255
    2532:	20 e9       	ldi	r18, 0x90	; 144
    2534:	31 e0       	ldi	r19, 0x01	; 1
    2536:	dc 01       	movw	r26, r24
    2538:	2d 93       	st	X+, r18
    253a:	3c 93       	st	X, r19

0000253c <.LM269>:
    253c:	ce 01       	movw	r24, r28
    253e:	89 57       	subi	r24, 0x79	; 121
    2540:	9f 4f       	sbci	r25, 0xFF	; 255
    2542:	fc 01       	movw	r30, r24
    2544:	80 81       	ld	r24, Z
    2546:	91 81       	ldd	r25, Z+1	; 0x01

00002548 <.L1^B31>:
    2548:	01 97       	sbiw	r24, 0x01	; 1
    254a:	f1 f7       	brne	.-4      	; 0x2548 <.L1^B31>
    254c:	9e 01       	movw	r18, r28
    254e:	29 57       	subi	r18, 0x79	; 121
    2550:	3f 4f       	sbci	r19, 0xFF	; 255
    2552:	d9 01       	movw	r26, r18
    2554:	8d 93       	st	X+, r24
    2556:	9c 93       	st	X, r25

00002558 <.LM270>:
	...

0000255a <.LM271>:
    255a:	ce 01       	movw	r24, r28
    255c:	8b 57       	subi	r24, 0x7B	; 123
    255e:	9f 4f       	sbci	r25, 0xFF	; 255
    2560:	9e 01       	movw	r18, r28
    2562:	2b 57       	subi	r18, 0x7B	; 123
    2564:	3f 4f       	sbci	r19, 0xFF	; 255
    2566:	f9 01       	movw	r30, r18
    2568:	20 81       	ld	r18, Z
    256a:	31 81       	ldd	r19, Z+1	; 0x01
    256c:	21 50       	subi	r18, 0x01	; 1
    256e:	31 09       	sbc	r19, r1
    2570:	dc 01       	movw	r26, r24
    2572:	2d 93       	st	X+, r18
    2574:	3c 93       	st	X, r19

00002576 <.L195>:
    2576:	ce 01       	movw	r24, r28
    2578:	8b 57       	subi	r24, 0x7B	; 123
    257a:	9f 4f       	sbci	r25, 0xFF	; 255
    257c:	fc 01       	movw	r30, r24
    257e:	80 81       	ld	r24, Z
    2580:	91 81       	ldd	r25, Z+1	; 0x01
    2582:	89 2b       	or	r24, r25
    2584:	99 f6       	brne	.-90     	; 0x252c <.L196>

00002586 <.LM273>:
    2586:	39 c0       	rjmp	.+114    	; 0x25fa <.L197>

00002588 <.L288>:
    2588:	8e 01       	movw	r16, r28
    258a:	0b 57       	subi	r16, 0x7B	; 123
    258c:	1f 4f       	sbci	r17, 0xFF	; 255
    258e:	ce 01       	movw	r24, r28
    2590:	8f 57       	subi	r24, 0x7F	; 127
    2592:	9f 4f       	sbci	r25, 0xFF	; 255
    2594:	dc 01       	movw	r26, r24
    2596:	6d 91       	ld	r22, X+
    2598:	7d 91       	ld	r23, X+
    259a:	8d 91       	ld	r24, X+
    259c:	9c 91       	ld	r25, X
    259e:	0e 94 b6 28 	call	0x516c	; 0x516c <__fixunssfsi>
    25a2:	ce 52       	subi	r28, 0x2E	; 46
    25a4:	df 4f       	sbci	r29, 0xFF	; 255
    25a6:	68 83       	st	Y, r22
    25a8:	79 83       	std	Y+1, r23	; 0x01
    25aa:	8a 83       	std	Y+2, r24	; 0x02
    25ac:	9b 83       	std	Y+3, r25	; 0x03
    25ae:	c2 5d       	subi	r28, 0xD2	; 210
    25b0:	d0 40       	sbci	r29, 0x00	; 0
    25b2:	ce 52       	subi	r28, 0x2E	; 46
    25b4:	df 4f       	sbci	r29, 0xFF	; 255
    25b6:	88 81       	ld	r24, Y
    25b8:	99 81       	ldd	r25, Y+1	; 0x01
    25ba:	c2 5d       	subi	r28, 0xD2	; 210
    25bc:	d0 40       	sbci	r29, 0x00	; 0
    25be:	f8 01       	movw	r30, r16
    25c0:	91 83       	std	Z+1, r25	; 0x01
    25c2:	80 83       	st	Z, r24

000025c4 <.L192>:
    25c4:	ce 01       	movw	r24, r28
    25c6:	87 57       	subi	r24, 0x77	; 119
    25c8:	9f 4f       	sbci	r25, 0xFF	; 255
    25ca:	9e 01       	movw	r18, r28
    25cc:	2b 57       	subi	r18, 0x7B	; 123
    25ce:	3f 4f       	sbci	r19, 0xFF	; 255
    25d0:	d9 01       	movw	r26, r18
    25d2:	2d 91       	ld	r18, X+
    25d4:	3c 91       	ld	r19, X
    25d6:	fc 01       	movw	r30, r24
    25d8:	31 83       	std	Z+1, r19	; 0x01
    25da:	20 83       	st	Z, r18

000025dc <.LM275>:
    25dc:	ce 01       	movw	r24, r28
    25de:	87 57       	subi	r24, 0x77	; 119
    25e0:	9f 4f       	sbci	r25, 0xFF	; 255
    25e2:	dc 01       	movw	r26, r24
    25e4:	8d 91       	ld	r24, X+
    25e6:	9c 91       	ld	r25, X

000025e8 <.L1^B32>:
    25e8:	01 97       	sbiw	r24, 0x01	; 1
    25ea:	f1 f7       	brne	.-4      	; 0x25e8 <.L1^B32>
    25ec:	9e 01       	movw	r18, r28
    25ee:	27 57       	subi	r18, 0x77	; 119
    25f0:	3f 4f       	sbci	r19, 0xFF	; 255
    25f2:	f9 01       	movw	r30, r18
    25f4:	91 83       	std	Z+1, r25	; 0x01
    25f6:	80 83       	st	Z, r24

000025f8 <.LM276>:
	...

000025fa <.L197>:
    25fa:	ce 01       	movw	r24, r28
    25fc:	87 56       	subi	r24, 0x67	; 103
    25fe:	9f 4f       	sbci	r25, 0xFF	; 255
    2600:	dc 01       	movw	r26, r24
    2602:	8c 91       	ld	r24, X
    2604:	82 95       	swap	r24
    2606:	8f 70       	andi	r24, 0x0F	; 15

00002608 <.LM278>:
    2608:	81 70       	andi	r24, 0x01	; 1
    260a:	48 2f       	mov	r20, r24
    260c:	63 e0       	ldi	r22, 0x03	; 3
    260e:	80 e0       	ldi	r24, 0x00	; 0
    2610:	0e 94 6e 01 	call	0x2dc	; 0x2dc <GPIO_writePin>

00002614 <.LM279>:
    2614:	ce 01       	movw	r24, r28
    2616:	87 56       	subi	r24, 0x67	; 103
    2618:	9f 4f       	sbci	r25, 0xFF	; 255
    261a:	fc 01       	movw	r30, r24
    261c:	80 81       	ld	r24, Z
    261e:	82 95       	swap	r24
    2620:	86 95       	lsr	r24
    2622:	87 70       	andi	r24, 0x07	; 7

00002624 <.LM280>:
    2624:	81 70       	andi	r24, 0x01	; 1
    2626:	48 2f       	mov	r20, r24
    2628:	64 e0       	ldi	r22, 0x04	; 4
    262a:	80 e0       	ldi	r24, 0x00	; 0
    262c:	0e 94 6e 01 	call	0x2dc	; 0x2dc <GPIO_writePin>

00002630 <.LM281>:
    2630:	ce 01       	movw	r24, r28
    2632:	87 56       	subi	r24, 0x67	; 103
    2634:	9f 4f       	sbci	r25, 0xFF	; 255
    2636:	dc 01       	movw	r26, r24
    2638:	8c 91       	ld	r24, X
    263a:	82 95       	swap	r24
    263c:	86 95       	lsr	r24
    263e:	86 95       	lsr	r24
    2640:	83 70       	andi	r24, 0x03	; 3

00002642 <.LM282>:
    2642:	81 70       	andi	r24, 0x01	; 1
    2644:	48 2f       	mov	r20, r24
    2646:	65 e0       	ldi	r22, 0x05	; 5
    2648:	80 e0       	ldi	r24, 0x00	; 0
    264a:	0e 94 6e 01 	call	0x2dc	; 0x2dc <GPIO_writePin>

0000264e <.LM283>:
    264e:	ce 01       	movw	r24, r28
    2650:	87 56       	subi	r24, 0x67	; 103
    2652:	9f 4f       	sbci	r25, 0xFF	; 255
    2654:	fc 01       	movw	r30, r24
    2656:	80 81       	ld	r24, Z
    2658:	88 1f       	adc	r24, r24
    265a:	88 27       	eor	r24, r24
    265c:	88 1f       	adc	r24, r24
    265e:	48 2f       	mov	r20, r24
    2660:	66 e0       	ldi	r22, 0x06	; 6
    2662:	80 e0       	ldi	r24, 0x00	; 0
    2664:	0e 94 6e 01 	call	0x2dc	; 0x2dc <GPIO_writePin>
    2668:	9e 01       	movw	r18, r28
    266a:	21 59       	subi	r18, 0x91	; 145
    266c:	3f 4f       	sbci	r19, 0xFF	; 255
    266e:	80 e0       	ldi	r24, 0x00	; 0
    2670:	90 e0       	ldi	r25, 0x00	; 0
    2672:	a0 e8       	ldi	r26, 0x80	; 128
    2674:	bf e3       	ldi	r27, 0x3F	; 63
    2676:	f9 01       	movw	r30, r18
    2678:	80 83       	st	Z, r24
    267a:	91 83       	std	Z+1, r25	; 0x01
    267c:	a2 83       	std	Z+2, r26	; 0x02
    267e:	b3 83       	std	Z+3, r27	; 0x03

00002680 <.LM284>:
    2680:	8e 01       	movw	r16, r28
    2682:	0d 58       	subi	r16, 0x8D	; 141
    2684:	1f 4f       	sbci	r17, 0xFF	; 255
    2686:	ce 01       	movw	r24, r28
    2688:	81 59       	subi	r24, 0x91	; 145
    268a:	9f 4f       	sbci	r25, 0xFF	; 255
    268c:	20 e0       	ldi	r18, 0x00	; 0
    268e:	30 e0       	ldi	r19, 0x00	; 0
    2690:	4a e7       	ldi	r20, 0x7A	; 122
    2692:	55 e4       	ldi	r21, 0x45	; 69
    2694:	dc 01       	movw	r26, r24
    2696:	6d 91       	ld	r22, X+
    2698:	7d 91       	ld	r23, X+
    269a:	8d 91       	ld	r24, X+
    269c:	9c 91       	ld	r25, X
    269e:	0e 94 5f 29 	call	0x52be	; 0x52be <__mulsf3>
    26a2:	ca 52       	subi	r28, 0x2A	; 42
    26a4:	df 4f       	sbci	r29, 0xFF	; 255
    26a6:	68 83       	st	Y, r22
    26a8:	79 83       	std	Y+1, r23	; 0x01
    26aa:	8a 83       	std	Y+2, r24	; 0x02
    26ac:	9b 83       	std	Y+3, r25	; 0x03
    26ae:	c6 5d       	subi	r28, 0xD6	; 214
    26b0:	d0 40       	sbci	r29, 0x00	; 0
    26b2:	ca 52       	subi	r28, 0x2A	; 42
    26b4:	df 4f       	sbci	r29, 0xFF	; 255
    26b6:	88 81       	ld	r24, Y
    26b8:	99 81       	ldd	r25, Y+1	; 0x01
    26ba:	aa 81       	ldd	r26, Y+2	; 0x02
    26bc:	bb 81       	ldd	r27, Y+3	; 0x03
    26be:	c6 5d       	subi	r28, 0xD6	; 214
    26c0:	d0 40       	sbci	r29, 0x00	; 0
    26c2:	f8 01       	movw	r30, r16
    26c4:	80 83       	st	Z, r24
    26c6:	91 83       	std	Z+1, r25	; 0x01
    26c8:	a2 83       	std	Z+2, r26	; 0x02
    26ca:	b3 83       	std	Z+3, r27	; 0x03

000026cc <.LM285>:
    26cc:	ce 01       	movw	r24, r28
    26ce:	8d 58       	subi	r24, 0x8D	; 141
    26d0:	9f 4f       	sbci	r25, 0xFF	; 255
    26d2:	20 e0       	ldi	r18, 0x00	; 0
    26d4:	30 e0       	ldi	r19, 0x00	; 0
    26d6:	40 e8       	ldi	r20, 0x80	; 128
    26d8:	5f e3       	ldi	r21, 0x3F	; 63
    26da:	dc 01       	movw	r26, r24
    26dc:	6d 91       	ld	r22, X+
    26de:	7d 91       	ld	r23, X+
    26e0:	8d 91       	ld	r24, X+
    26e2:	9c 91       	ld	r25, X
    26e4:	0e 94 3f 28 	call	0x507e	; 0x507e <__cmpsf2>
    26e8:	88 23       	and	r24, r24
    26ea:	4c f4       	brge	.+18     	; 0x26fe <.L289>

000026ec <.LM286>:
    26ec:	ce 01       	movw	r24, r28
    26ee:	89 58       	subi	r24, 0x89	; 137
    26f0:	9f 4f       	sbci	r25, 0xFF	; 255
    26f2:	21 e0       	ldi	r18, 0x01	; 1
    26f4:	30 e0       	ldi	r19, 0x00	; 0
    26f6:	fc 01       	movw	r30, r24
    26f8:	31 83       	std	Z+1, r19	; 0x01
    26fa:	20 83       	st	Z, r18
    26fc:	a2 c0       	rjmp	.+324    	; 0x2842 <.L200>

000026fe <.L289>:
    26fe:	ce 01       	movw	r24, r28
    2700:	8d 58       	subi	r24, 0x8D	; 141
    2702:	9f 4f       	sbci	r25, 0xFF	; 255
    2704:	20 e0       	ldi	r18, 0x00	; 0
    2706:	3f ef       	ldi	r19, 0xFF	; 255
    2708:	4f e7       	ldi	r20, 0x7F	; 127
    270a:	57 e4       	ldi	r21, 0x47	; 71
    270c:	dc 01       	movw	r26, r24
    270e:	6d 91       	ld	r22, X+
    2710:	7d 91       	ld	r23, X+
    2712:	8d 91       	ld	r24, X+
    2714:	9c 91       	ld	r25, X
    2716:	0e 94 5a 29 	call	0x52b4	; 0x52b4 <__gesf2>
    271a:	18 16       	cp	r1, r24
    271c:	0c f0       	brlt	.+2      	; 0x2720 <.LM288>

0000271e <L0^A>:
    271e:	73 c0       	rjmp	.+230    	; 0x2806 <.L290>

00002720 <.LM288>:
    2720:	ce 01       	movw	r24, r28
    2722:	81 59       	subi	r24, 0x91	; 145
    2724:	9f 4f       	sbci	r25, 0xFF	; 255
    2726:	20 e0       	ldi	r18, 0x00	; 0
    2728:	30 e0       	ldi	r19, 0x00	; 0
    272a:	40 e2       	ldi	r20, 0x20	; 32
    272c:	51 e4       	ldi	r21, 0x41	; 65
    272e:	fc 01       	movw	r30, r24
    2730:	60 81       	ld	r22, Z
    2732:	71 81       	ldd	r23, Z+1	; 0x01
    2734:	82 81       	ldd	r24, Z+2	; 0x02
    2736:	93 81       	ldd	r25, Z+3	; 0x03
    2738:	0e 94 5f 29 	call	0x52be	; 0x52be <__mulsf3>
    273c:	c6 52       	subi	r28, 0x26	; 38
    273e:	df 4f       	sbci	r29, 0xFF	; 255
    2740:	68 83       	st	Y, r22
    2742:	79 83       	std	Y+1, r23	; 0x01
    2744:	8a 83       	std	Y+2, r24	; 0x02
    2746:	9b 83       	std	Y+3, r25	; 0x03
    2748:	ca 5d       	subi	r28, 0xDA	; 218
    274a:	d0 40       	sbci	r29, 0x00	; 0
    274c:	c6 52       	subi	r28, 0x26	; 38
    274e:	df 4f       	sbci	r29, 0xFF	; 255
    2750:	88 81       	ld	r24, Y
    2752:	99 81       	ldd	r25, Y+1	; 0x01
    2754:	aa 81       	ldd	r26, Y+2	; 0x02
    2756:	bb 81       	ldd	r27, Y+3	; 0x03
    2758:	ca 5d       	subi	r28, 0xDA	; 218
    275a:	d0 40       	sbci	r29, 0x00	; 0
    275c:	c6 55       	subi	r28, 0x56	; 86
    275e:	df 4f       	sbci	r29, 0xFF	; 255
    2760:	88 83       	st	Y, r24
    2762:	99 83       	std	Y+1, r25	; 0x01
    2764:	aa 83       	std	Y+2, r26	; 0x02
    2766:	bb 83       	std	Y+3, r27	; 0x03
    2768:	ca 5a       	subi	r28, 0xAA	; 170
    276a:	d0 40       	sbci	r29, 0x00	; 0

0000276c <.LM289>:
    276c:	8e 01       	movw	r16, r28
    276e:	09 58       	subi	r16, 0x89	; 137
    2770:	1f 4f       	sbci	r17, 0xFF	; 255
    2772:	c6 55       	subi	r28, 0x56	; 86
    2774:	df 4f       	sbci	r29, 0xFF	; 255
    2776:	68 81       	ld	r22, Y
    2778:	79 81       	ldd	r23, Y+1	; 0x01
    277a:	8a 81       	ldd	r24, Y+2	; 0x02
    277c:	9b 81       	ldd	r25, Y+3	; 0x03
    277e:	ca 5a       	subi	r28, 0xAA	; 170
    2780:	d0 40       	sbci	r29, 0x00	; 0
    2782:	0e 94 b6 28 	call	0x516c	; 0x516c <__fixunssfsi>
    2786:	c2 52       	subi	r28, 0x22	; 34
    2788:	df 4f       	sbci	r29, 0xFF	; 255
    278a:	68 83       	st	Y, r22
    278c:	79 83       	std	Y+1, r23	; 0x01
    278e:	8a 83       	std	Y+2, r24	; 0x02
    2790:	9b 83       	std	Y+3, r25	; 0x03
    2792:	ce 5d       	subi	r28, 0xDE	; 222
    2794:	d0 40       	sbci	r29, 0x00	; 0
    2796:	c2 52       	subi	r28, 0x22	; 34
    2798:	df 4f       	sbci	r29, 0xFF	; 255
    279a:	e8 81       	ld	r30, Y
    279c:	f9 81       	ldd	r31, Y+1	; 0x01
    279e:	ce 5d       	subi	r28, 0xDE	; 222
    27a0:	d0 40       	sbci	r29, 0x00	; 0
    27a2:	d8 01       	movw	r26, r16
    27a4:	ed 93       	st	X+, r30
    27a6:	fc 93       	st	X, r31

000027a8 <.LM290>:
    27a8:	25 c0       	rjmp	.+74     	; 0x27f4 <.L203>

000027aa <.L204>:
    27aa:	ce 01       	movw	r24, r28
    27ac:	87 58       	subi	r24, 0x87	; 135
    27ae:	9f 4f       	sbci	r25, 0xFF	; 255
    27b0:	20 e9       	ldi	r18, 0x90	; 144
    27b2:	31 e0       	ldi	r19, 0x01	; 1
    27b4:	dc 01       	movw	r26, r24
    27b6:	2d 93       	st	X+, r18
    27b8:	3c 93       	st	X, r19

000027ba <.LM291>:
    27ba:	ce 01       	movw	r24, r28
    27bc:	87 58       	subi	r24, 0x87	; 135
    27be:	9f 4f       	sbci	r25, 0xFF	; 255
    27c0:	fc 01       	movw	r30, r24
    27c2:	80 81       	ld	r24, Z
    27c4:	91 81       	ldd	r25, Z+1	; 0x01

000027c6 <.L1^B33>:
    27c6:	01 97       	sbiw	r24, 0x01	; 1
    27c8:	f1 f7       	brne	.-4      	; 0x27c6 <.L1^B33>
    27ca:	9e 01       	movw	r18, r28
    27cc:	27 58       	subi	r18, 0x87	; 135
    27ce:	3f 4f       	sbci	r19, 0xFF	; 255
    27d0:	d9 01       	movw	r26, r18
    27d2:	8d 93       	st	X+, r24
    27d4:	9c 93       	st	X, r25

000027d6 <.LM292>:
	...

000027d8 <.LM293>:
    27d8:	ce 01       	movw	r24, r28
    27da:	89 58       	subi	r24, 0x89	; 137
    27dc:	9f 4f       	sbci	r25, 0xFF	; 255
    27de:	9e 01       	movw	r18, r28
    27e0:	29 58       	subi	r18, 0x89	; 137
    27e2:	3f 4f       	sbci	r19, 0xFF	; 255
    27e4:	f9 01       	movw	r30, r18
    27e6:	20 81       	ld	r18, Z
    27e8:	31 81       	ldd	r19, Z+1	; 0x01
    27ea:	21 50       	subi	r18, 0x01	; 1
    27ec:	31 09       	sbc	r19, r1
    27ee:	dc 01       	movw	r26, r24
    27f0:	2d 93       	st	X+, r18
    27f2:	3c 93       	st	X, r19

000027f4 <.L203>:
    27f4:	ce 01       	movw	r24, r28
    27f6:	89 58       	subi	r24, 0x89	; 137
    27f8:	9f 4f       	sbci	r25, 0xFF	; 255
    27fa:	fc 01       	movw	r30, r24
    27fc:	80 81       	ld	r24, Z
    27fe:	91 81       	ldd	r25, Z+1	; 0x01
    2800:	89 2b       	or	r24, r25
    2802:	99 f6       	brne	.-90     	; 0x27aa <.L204>

00002804 <.LM295>:
    2804:	39 c0       	rjmp	.+114    	; 0x2878 <.L205>

00002806 <.L290>:
    2806:	8e 01       	movw	r16, r28
    2808:	09 58       	subi	r16, 0x89	; 137
    280a:	1f 4f       	sbci	r17, 0xFF	; 255
    280c:	ce 01       	movw	r24, r28
    280e:	8d 58       	subi	r24, 0x8D	; 141
    2810:	9f 4f       	sbci	r25, 0xFF	; 255
    2812:	dc 01       	movw	r26, r24
    2814:	6d 91       	ld	r22, X+
    2816:	7d 91       	ld	r23, X+
    2818:	8d 91       	ld	r24, X+
    281a:	9c 91       	ld	r25, X
    281c:	0e 94 b6 28 	call	0x516c	; 0x516c <__fixunssfsi>
    2820:	ce 51       	subi	r28, 0x1E	; 30
    2822:	df 4f       	sbci	r29, 0xFF	; 255
    2824:	68 83       	st	Y, r22
    2826:	79 83       	std	Y+1, r23	; 0x01
    2828:	8a 83       	std	Y+2, r24	; 0x02
    282a:	9b 83       	std	Y+3, r25	; 0x03
    282c:	c2 5e       	subi	r28, 0xE2	; 226
    282e:	d0 40       	sbci	r29, 0x00	; 0
    2830:	ce 51       	subi	r28, 0x1E	; 30
    2832:	df 4f       	sbci	r29, 0xFF	; 255
    2834:	88 81       	ld	r24, Y
    2836:	99 81       	ldd	r25, Y+1	; 0x01
    2838:	c2 5e       	subi	r28, 0xE2	; 226
    283a:	d0 40       	sbci	r29, 0x00	; 0
    283c:	f8 01       	movw	r30, r16
    283e:	91 83       	std	Z+1, r25	; 0x01
    2840:	80 83       	st	Z, r24

00002842 <.L200>:
    2842:	ce 01       	movw	r24, r28
    2844:	85 58       	subi	r24, 0x85	; 133
    2846:	9f 4f       	sbci	r25, 0xFF	; 255
    2848:	9e 01       	movw	r18, r28
    284a:	29 58       	subi	r18, 0x89	; 137
    284c:	3f 4f       	sbci	r19, 0xFF	; 255
    284e:	d9 01       	movw	r26, r18
    2850:	2d 91       	ld	r18, X+
    2852:	3c 91       	ld	r19, X
    2854:	fc 01       	movw	r30, r24
    2856:	31 83       	std	Z+1, r19	; 0x01
    2858:	20 83       	st	Z, r18

0000285a <.LM297>:
    285a:	ce 01       	movw	r24, r28
    285c:	85 58       	subi	r24, 0x85	; 133
    285e:	9f 4f       	sbci	r25, 0xFF	; 255
    2860:	dc 01       	movw	r26, r24
    2862:	8d 91       	ld	r24, X+
    2864:	9c 91       	ld	r25, X

00002866 <.L1^B34>:
    2866:	01 97       	sbiw	r24, 0x01	; 1
    2868:	f1 f7       	brne	.-4      	; 0x2866 <.L1^B34>
    286a:	9e 01       	movw	r18, r28
    286c:	25 58       	subi	r18, 0x85	; 133
    286e:	3f 4f       	sbci	r19, 0xFF	; 255
    2870:	f9 01       	movw	r30, r18
    2872:	91 83       	std	Z+1, r25	; 0x01
    2874:	80 83       	st	Z, r24

00002876 <.LM298>:
	...

00002878 <.L205>:
    2878:	40 e0       	ldi	r20, 0x00	; 0
    287a:	62 e0       	ldi	r22, 0x02	; 2
    287c:	80 e0       	ldi	r24, 0x00	; 0
    287e:	0e 94 6e 01 	call	0x2dc	; 0x2dc <GPIO_writePin>
    2882:	9e 01       	movw	r18, r28
    2884:	21 5b       	subi	r18, 0xB1	; 177
    2886:	3f 4f       	sbci	r19, 0xFF	; 255
    2888:	80 e0       	ldi	r24, 0x00	; 0
    288a:	90 e0       	ldi	r25, 0x00	; 0
    288c:	a0 e8       	ldi	r26, 0x80	; 128
    288e:	bf e3       	ldi	r27, 0x3F	; 63
    2890:	f9 01       	movw	r30, r18
    2892:	80 83       	st	Z, r24
    2894:	91 83       	std	Z+1, r25	; 0x01
    2896:	a2 83       	std	Z+2, r26	; 0x02
    2898:	b3 83       	std	Z+3, r27	; 0x03

0000289a <.LM300>:
    289a:	8e 01       	movw	r16, r28
    289c:	0d 5a       	subi	r16, 0xAD	; 173
    289e:	1f 4f       	sbci	r17, 0xFF	; 255
    28a0:	ce 01       	movw	r24, r28
    28a2:	81 5b       	subi	r24, 0xB1	; 177
    28a4:	9f 4f       	sbci	r25, 0xFF	; 255
    28a6:	2b ea       	ldi	r18, 0xAB	; 171
    28a8:	3a ea       	ldi	r19, 0xAA	; 170
    28aa:	4a ea       	ldi	r20, 0xAA	; 170
    28ac:	50 e4       	ldi	r21, 0x40	; 64
    28ae:	dc 01       	movw	r26, r24
    28b0:	6d 91       	ld	r22, X+
    28b2:	7d 91       	ld	r23, X+
    28b4:	8d 91       	ld	r24, X+
    28b6:	9c 91       	ld	r25, X
    28b8:	0e 94 5f 29 	call	0x52be	; 0x52be <__mulsf3>
    28bc:	ca 51       	subi	r28, 0x1A	; 26
    28be:	df 4f       	sbci	r29, 0xFF	; 255
    28c0:	68 83       	st	Y, r22
    28c2:	79 83       	std	Y+1, r23	; 0x01
    28c4:	8a 83       	std	Y+2, r24	; 0x02
    28c6:	9b 83       	std	Y+3, r25	; 0x03
    28c8:	c6 5e       	subi	r28, 0xE6	; 230
    28ca:	d0 40       	sbci	r29, 0x00	; 0
    28cc:	ca 51       	subi	r28, 0x1A	; 26
    28ce:	df 4f       	sbci	r29, 0xFF	; 255
    28d0:	88 81       	ld	r24, Y
    28d2:	99 81       	ldd	r25, Y+1	; 0x01
    28d4:	aa 81       	ldd	r26, Y+2	; 0x02
    28d6:	bb 81       	ldd	r27, Y+3	; 0x03
    28d8:	c6 5e       	subi	r28, 0xE6	; 230
    28da:	d0 40       	sbci	r29, 0x00	; 0
    28dc:	f8 01       	movw	r30, r16
    28de:	80 83       	st	Z, r24
    28e0:	91 83       	std	Z+1, r25	; 0x01
    28e2:	a2 83       	std	Z+2, r26	; 0x02
    28e4:	b3 83       	std	Z+3, r27	; 0x03

000028e6 <.LM301>:
    28e6:	8e 01       	movw	r16, r28
    28e8:	09 5a       	subi	r16, 0xA9	; 169
    28ea:	1f 4f       	sbci	r17, 0xFF	; 255
    28ec:	ce 01       	movw	r24, r28
    28ee:	81 5b       	subi	r24, 0xB1	; 177
    28f0:	9f 4f       	sbci	r25, 0xFF	; 255
    28f2:	20 e0       	ldi	r18, 0x00	; 0
    28f4:	30 e0       	ldi	r19, 0x00	; 0
    28f6:	40 e8       	ldi	r20, 0x80	; 128
    28f8:	50 e4       	ldi	r21, 0x40	; 64
    28fa:	dc 01       	movw	r26, r24
    28fc:	6d 91       	ld	r22, X+
    28fe:	7d 91       	ld	r23, X+
    2900:	8d 91       	ld	r24, X+
    2902:	9c 91       	ld	r25, X
    2904:	0e 94 5f 29 	call	0x52be	; 0x52be <__mulsf3>
    2908:	c6 51       	subi	r28, 0x16	; 22
    290a:	df 4f       	sbci	r29, 0xFF	; 255
    290c:	68 83       	st	Y, r22
    290e:	79 83       	std	Y+1, r23	; 0x01
    2910:	8a 83       	std	Y+2, r24	; 0x02
    2912:	9b 83       	std	Y+3, r25	; 0x03
    2914:	ca 5e       	subi	r28, 0xEA	; 234
    2916:	d0 40       	sbci	r29, 0x00	; 0
    2918:	c6 51       	subi	r28, 0x16	; 22
    291a:	df 4f       	sbci	r29, 0xFF	; 255
    291c:	88 81       	ld	r24, Y
    291e:	99 81       	ldd	r25, Y+1	; 0x01
    2920:	aa 81       	ldd	r26, Y+2	; 0x02
    2922:	bb 81       	ldd	r27, Y+3	; 0x03
    2924:	ca 5e       	subi	r28, 0xEA	; 234
    2926:	d0 40       	sbci	r29, 0x00	; 0
    2928:	f8 01       	movw	r30, r16
    292a:	80 83       	st	Z, r24
    292c:	91 83       	std	Z+1, r25	; 0x01
    292e:	a2 83       	std	Z+2, r26	; 0x02
    2930:	b3 83       	std	Z+3, r27	; 0x03

00002932 <.LM302>:
    2932:	ce 01       	movw	r24, r28
    2934:	8d 5a       	subi	r24, 0xAD	; 173
    2936:	9f 4f       	sbci	r25, 0xFF	; 255
    2938:	20 e0       	ldi	r18, 0x00	; 0
    293a:	30 e0       	ldi	r19, 0x00	; 0
    293c:	40 e8       	ldi	r20, 0x80	; 128
    293e:	5f e3       	ldi	r21, 0x3F	; 63
    2940:	dc 01       	movw	r26, r24
    2942:	6d 91       	ld	r22, X+
    2944:	7d 91       	ld	r23, X+
    2946:	8d 91       	ld	r24, X+
    2948:	9c 91       	ld	r25, X
    294a:	0e 94 3f 28 	call	0x507e	; 0x507e <__cmpsf2>
    294e:	88 23       	and	r24, r24
    2950:	3c f4       	brge	.+14     	; 0x2960 <.L291>

00002952 <.LM303>:
    2952:	ce 01       	movw	r24, r28
    2954:	85 5a       	subi	r24, 0xA5	; 165
    2956:	9f 4f       	sbci	r25, 0xFF	; 255
    2958:	21 e0       	ldi	r18, 0x01	; 1
    295a:	fc 01       	movw	r30, r24
    295c:	20 83       	st	Z, r18
    295e:	9a c1       	rjmp	.+820    	; 0x2c94 <.L208>

00002960 <.L291>:
    2960:	ce 01       	movw	r24, r28
    2962:	89 5a       	subi	r24, 0xA9	; 169
    2964:	9f 4f       	sbci	r25, 0xFF	; 255
    2966:	20 e0       	ldi	r18, 0x00	; 0
    2968:	3f ef       	ldi	r19, 0xFF	; 255
    296a:	4f e7       	ldi	r20, 0x7F	; 127
    296c:	57 e4       	ldi	r21, 0x47	; 71
    296e:	dc 01       	movw	r26, r24
    2970:	6d 91       	ld	r22, X+
    2972:	7d 91       	ld	r23, X+
    2974:	8d 91       	ld	r24, X+
    2976:	9c 91       	ld	r25, X
    2978:	0e 94 5a 29 	call	0x52b4	; 0x52b4 <__gesf2>
    297c:	18 16       	cp	r1, r24
    297e:	0c f0       	brlt	.+2      	; 0x2982 <.LM305>

00002980 <L0^A>:
    2980:	23 c1       	rjmp	.+582    	; 0x2bc8 <.L292>

00002982 <.LM305>:
    2982:	ce 01       	movw	r24, r28
    2984:	81 5b       	subi	r24, 0xB1	; 177
    2986:	9f 4f       	sbci	r25, 0xFF	; 255
    2988:	20 e0       	ldi	r18, 0x00	; 0
    298a:	30 e0       	ldi	r19, 0x00	; 0
    298c:	4a e7       	ldi	r20, 0x7A	; 122
    298e:	54 e4       	ldi	r21, 0x44	; 68
    2990:	fc 01       	movw	r30, r24
    2992:	60 81       	ld	r22, Z
    2994:	71 81       	ldd	r23, Z+1	; 0x01
    2996:	82 81       	ldd	r24, Z+2	; 0x02
    2998:	93 81       	ldd	r25, Z+3	; 0x03
    299a:	0e 94 44 28 	call	0x5088	; 0x5088 <__divsf3>
    299e:	c2 51       	subi	r28, 0x12	; 18
    29a0:	df 4f       	sbci	r29, 0xFF	; 255
    29a2:	68 83       	st	Y, r22
    29a4:	79 83       	std	Y+1, r23	; 0x01
    29a6:	8a 83       	std	Y+2, r24	; 0x02
    29a8:	9b 83       	std	Y+3, r25	; 0x03
    29aa:	ce 5e       	subi	r28, 0xEE	; 238
    29ac:	d0 40       	sbci	r29, 0x00	; 0
    29ae:	c2 51       	subi	r28, 0x12	; 18
    29b0:	df 4f       	sbci	r29, 0xFF	; 255
    29b2:	88 81       	ld	r24, Y
    29b4:	99 81       	ldd	r25, Y+1	; 0x01
    29b6:	aa 81       	ldd	r26, Y+2	; 0x02
    29b8:	bb 81       	ldd	r27, Y+3	; 0x03
    29ba:	ce 5e       	subi	r28, 0xEE	; 238
    29bc:	d0 40       	sbci	r29, 0x00	; 0
    29be:	9e 01       	movw	r18, r28
    29c0:	24 5a       	subi	r18, 0xA4	; 164
    29c2:	3f 4f       	sbci	r19, 0xFF	; 255
    29c4:	f9 01       	movw	r30, r18
    29c6:	80 83       	st	Z, r24
    29c8:	91 83       	std	Z+1, r25	; 0x01
    29ca:	a2 83       	std	Z+2, r26	; 0x02
    29cc:	b3 83       	std	Z+3, r27	; 0x03

000029ce <.LM306>:
    29ce:	8e 01       	movw	r16, r28
    29d0:	00 5a       	subi	r16, 0xA0	; 160
    29d2:	1f 4f       	sbci	r17, 0xFF	; 255
    29d4:	ce 01       	movw	r24, r28
    29d6:	84 5a       	subi	r24, 0xA4	; 164
    29d8:	9f 4f       	sbci	r25, 0xFF	; 255
    29da:	20 e0       	ldi	r18, 0x00	; 0
    29dc:	30 e0       	ldi	r19, 0x00	; 0
    29de:	4a e7       	ldi	r20, 0x7A	; 122
    29e0:	55 e4       	ldi	r21, 0x45	; 69
    29e2:	dc 01       	movw	r26, r24
    29e4:	6d 91       	ld	r22, X+
    29e6:	7d 91       	ld	r23, X+
    29e8:	8d 91       	ld	r24, X+
    29ea:	9c 91       	ld	r25, X
    29ec:	0e 94 5f 29 	call	0x52be	; 0x52be <__mulsf3>
    29f0:	ce 50       	subi	r28, 0x0E	; 14
    29f2:	df 4f       	sbci	r29, 0xFF	; 255
    29f4:	68 83       	st	Y, r22
    29f6:	79 83       	std	Y+1, r23	; 0x01
    29f8:	8a 83       	std	Y+2, r24	; 0x02
    29fa:	9b 83       	std	Y+3, r25	; 0x03
    29fc:	c2 5f       	subi	r28, 0xF2	; 242
    29fe:	d0 40       	sbci	r29, 0x00	; 0
    2a00:	ce 50       	subi	r28, 0x0E	; 14
    2a02:	df 4f       	sbci	r29, 0xFF	; 255
    2a04:	88 81       	ld	r24, Y
    2a06:	99 81       	ldd	r25, Y+1	; 0x01
    2a08:	aa 81       	ldd	r26, Y+2	; 0x02
    2a0a:	bb 81       	ldd	r27, Y+3	; 0x03
    2a0c:	c2 5f       	subi	r28, 0xF2	; 242
    2a0e:	d0 40       	sbci	r29, 0x00	; 0
    2a10:	f8 01       	movw	r30, r16
    2a12:	80 83       	st	Z, r24
    2a14:	91 83       	std	Z+1, r25	; 0x01
    2a16:	a2 83       	std	Z+2, r26	; 0x02
    2a18:	b3 83       	std	Z+3, r27	; 0x03

00002a1a <.LM307>:
    2a1a:	ce 01       	movw	r24, r28
    2a1c:	80 5a       	subi	r24, 0xA0	; 160
    2a1e:	9f 4f       	sbci	r25, 0xFF	; 255
    2a20:	20 e0       	ldi	r18, 0x00	; 0
    2a22:	30 e0       	ldi	r19, 0x00	; 0
    2a24:	40 e8       	ldi	r20, 0x80	; 128
    2a26:	5f e3       	ldi	r21, 0x3F	; 63
    2a28:	dc 01       	movw	r26, r24
    2a2a:	6d 91       	ld	r22, X+
    2a2c:	7d 91       	ld	r23, X+
    2a2e:	8d 91       	ld	r24, X+
    2a30:	9c 91       	ld	r25, X
    2a32:	0e 94 3f 28 	call	0x507e	; 0x507e <__cmpsf2>
    2a36:	88 23       	and	r24, r24
    2a38:	4c f4       	brge	.+18     	; 0x2a4c <.L293>

00002a3a <.LM308>:
    2a3a:	ce 01       	movw	r24, r28
    2a3c:	8c 59       	subi	r24, 0x9C	; 156
    2a3e:	9f 4f       	sbci	r25, 0xFF	; 255
    2a40:	21 e0       	ldi	r18, 0x01	; 1
    2a42:	30 e0       	ldi	r19, 0x00	; 0
    2a44:	fc 01       	movw	r30, r24
    2a46:	31 83       	std	Z+1, r19	; 0x01
    2a48:	20 83       	st	Z, r18
    2a4a:	a2 c0       	rjmp	.+324    	; 0x2b90 <.L213>

00002a4c <.L293>:
    2a4c:	ce 01       	movw	r24, r28
    2a4e:	80 5a       	subi	r24, 0xA0	; 160
    2a50:	9f 4f       	sbci	r25, 0xFF	; 255
    2a52:	20 e0       	ldi	r18, 0x00	; 0
    2a54:	3f ef       	ldi	r19, 0xFF	; 255
    2a56:	4f e7       	ldi	r20, 0x7F	; 127
    2a58:	57 e4       	ldi	r21, 0x47	; 71
    2a5a:	dc 01       	movw	r26, r24
    2a5c:	6d 91       	ld	r22, X+
    2a5e:	7d 91       	ld	r23, X+
    2a60:	8d 91       	ld	r24, X+
    2a62:	9c 91       	ld	r25, X
    2a64:	0e 94 5a 29 	call	0x52b4	; 0x52b4 <__gesf2>
    2a68:	18 16       	cp	r1, r24
    2a6a:	0c f0       	brlt	.+2      	; 0x2a6e <.LM310>

00002a6c <L0^A>:
    2a6c:	73 c0       	rjmp	.+230    	; 0x2b54 <.L294>

00002a6e <.LM310>:
    2a6e:	ce 01       	movw	r24, r28
    2a70:	84 5a       	subi	r24, 0xA4	; 164
    2a72:	9f 4f       	sbci	r25, 0xFF	; 255
    2a74:	20 e0       	ldi	r18, 0x00	; 0
    2a76:	30 e0       	ldi	r19, 0x00	; 0
    2a78:	40 e2       	ldi	r20, 0x20	; 32
    2a7a:	51 e4       	ldi	r21, 0x41	; 65
    2a7c:	fc 01       	movw	r30, r24
    2a7e:	60 81       	ld	r22, Z
    2a80:	71 81       	ldd	r23, Z+1	; 0x01
    2a82:	82 81       	ldd	r24, Z+2	; 0x02
    2a84:	93 81       	ldd	r25, Z+3	; 0x03
    2a86:	0e 94 5f 29 	call	0x52be	; 0x52be <__mulsf3>
    2a8a:	ca 50       	subi	r28, 0x0A	; 10
    2a8c:	df 4f       	sbci	r29, 0xFF	; 255
    2a8e:	68 83       	st	Y, r22
    2a90:	79 83       	std	Y+1, r23	; 0x01
    2a92:	8a 83       	std	Y+2, r24	; 0x02
    2a94:	9b 83       	std	Y+3, r25	; 0x03
    2a96:	c6 5f       	subi	r28, 0xF6	; 246
    2a98:	d0 40       	sbci	r29, 0x00	; 0
    2a9a:	ca 50       	subi	r28, 0x0A	; 10
    2a9c:	df 4f       	sbci	r29, 0xFF	; 255
    2a9e:	88 81       	ld	r24, Y
    2aa0:	99 81       	ldd	r25, Y+1	; 0x01
    2aa2:	aa 81       	ldd	r26, Y+2	; 0x02
    2aa4:	bb 81       	ldd	r27, Y+3	; 0x03
    2aa6:	c6 5f       	subi	r28, 0xF6	; 246
    2aa8:	d0 40       	sbci	r29, 0x00	; 0
    2aaa:	ca 55       	subi	r28, 0x5A	; 90
    2aac:	df 4f       	sbci	r29, 0xFF	; 255
    2aae:	88 83       	st	Y, r24
    2ab0:	99 83       	std	Y+1, r25	; 0x01
    2ab2:	aa 83       	std	Y+2, r26	; 0x02
    2ab4:	bb 83       	std	Y+3, r27	; 0x03
    2ab6:	c6 5a       	subi	r28, 0xA6	; 166
    2ab8:	d0 40       	sbci	r29, 0x00	; 0

00002aba <.LM311>:
    2aba:	8e 01       	movw	r16, r28
    2abc:	0c 59       	subi	r16, 0x9C	; 156
    2abe:	1f 4f       	sbci	r17, 0xFF	; 255
    2ac0:	ca 55       	subi	r28, 0x5A	; 90
    2ac2:	df 4f       	sbci	r29, 0xFF	; 255
    2ac4:	68 81       	ld	r22, Y
    2ac6:	79 81       	ldd	r23, Y+1	; 0x01
    2ac8:	8a 81       	ldd	r24, Y+2	; 0x02
    2aca:	9b 81       	ldd	r25, Y+3	; 0x03
    2acc:	c6 5a       	subi	r28, 0xA6	; 166
    2ace:	d0 40       	sbci	r29, 0x00	; 0
    2ad0:	0e 94 b6 28 	call	0x516c	; 0x516c <__fixunssfsi>
    2ad4:	c6 50       	subi	r28, 0x06	; 6
    2ad6:	df 4f       	sbci	r29, 0xFF	; 255
    2ad8:	68 83       	st	Y, r22
    2ada:	79 83       	std	Y+1, r23	; 0x01
    2adc:	8a 83       	std	Y+2, r24	; 0x02
    2ade:	9b 83       	std	Y+3, r25	; 0x03
    2ae0:	ca 5f       	subi	r28, 0xFA	; 250
    2ae2:	d0 40       	sbci	r29, 0x00	; 0
    2ae4:	c6 50       	subi	r28, 0x06	; 6
    2ae6:	df 4f       	sbci	r29, 0xFF	; 255
    2ae8:	e8 81       	ld	r30, Y
    2aea:	f9 81       	ldd	r31, Y+1	; 0x01
    2aec:	ca 5f       	subi	r28, 0xFA	; 250
    2aee:	d0 40       	sbci	r29, 0x00	; 0
    2af0:	d8 01       	movw	r26, r16
    2af2:	ed 93       	st	X+, r30
    2af4:	fc 93       	st	X, r31

00002af6 <.LM312>:
    2af6:	25 c0       	rjmp	.+74     	; 0x2b42 <.L216>

00002af8 <.L217>:
    2af8:	ce 01       	movw	r24, r28
    2afa:	8a 59       	subi	r24, 0x9A	; 154
    2afc:	9f 4f       	sbci	r25, 0xFF	; 255
    2afe:	20 e9       	ldi	r18, 0x90	; 144
    2b00:	31 e0       	ldi	r19, 0x01	; 1
    2b02:	dc 01       	movw	r26, r24
    2b04:	2d 93       	st	X+, r18
    2b06:	3c 93       	st	X, r19

00002b08 <.LM313>:
    2b08:	ce 01       	movw	r24, r28
    2b0a:	8a 59       	subi	r24, 0x9A	; 154
    2b0c:	9f 4f       	sbci	r25, 0xFF	; 255
    2b0e:	fc 01       	movw	r30, r24
    2b10:	80 81       	ld	r24, Z
    2b12:	91 81       	ldd	r25, Z+1	; 0x01

00002b14 <.L1^B35>:
    2b14:	01 97       	sbiw	r24, 0x01	; 1
    2b16:	f1 f7       	brne	.-4      	; 0x2b14 <.L1^B35>
    2b18:	9e 01       	movw	r18, r28
    2b1a:	2a 59       	subi	r18, 0x9A	; 154
    2b1c:	3f 4f       	sbci	r19, 0xFF	; 255
    2b1e:	d9 01       	movw	r26, r18
    2b20:	8d 93       	st	X+, r24
    2b22:	9c 93       	st	X, r25

00002b24 <.LM314>:
	...

00002b26 <.LM315>:
    2b26:	ce 01       	movw	r24, r28
    2b28:	8c 59       	subi	r24, 0x9C	; 156
    2b2a:	9f 4f       	sbci	r25, 0xFF	; 255
    2b2c:	9e 01       	movw	r18, r28
    2b2e:	2c 59       	subi	r18, 0x9C	; 156
    2b30:	3f 4f       	sbci	r19, 0xFF	; 255
    2b32:	f9 01       	movw	r30, r18
    2b34:	20 81       	ld	r18, Z
    2b36:	31 81       	ldd	r19, Z+1	; 0x01
    2b38:	21 50       	subi	r18, 0x01	; 1
    2b3a:	31 09       	sbc	r19, r1
    2b3c:	dc 01       	movw	r26, r24
    2b3e:	2d 93       	st	X+, r18
    2b40:	3c 93       	st	X, r19

00002b42 <.L216>:
    2b42:	ce 01       	movw	r24, r28
    2b44:	8c 59       	subi	r24, 0x9C	; 156
    2b46:	9f 4f       	sbci	r25, 0xFF	; 255
    2b48:	fc 01       	movw	r30, r24
    2b4a:	80 81       	ld	r24, Z
    2b4c:	91 81       	ldd	r25, Z+1	; 0x01
    2b4e:	89 2b       	or	r24, r25
    2b50:	99 f6       	brne	.-90     	; 0x2af8 <.L217>

00002b52 <.LM317>:
    2b52:	39 c0       	rjmp	.+114    	; 0x2bc6 <.L218>

00002b54 <.L294>:
    2b54:	8e 01       	movw	r16, r28
    2b56:	0c 59       	subi	r16, 0x9C	; 156
    2b58:	1f 4f       	sbci	r17, 0xFF	; 255
    2b5a:	ce 01       	movw	r24, r28
    2b5c:	80 5a       	subi	r24, 0xA0	; 160
    2b5e:	9f 4f       	sbci	r25, 0xFF	; 255
    2b60:	dc 01       	movw	r26, r24
    2b62:	6d 91       	ld	r22, X+
    2b64:	7d 91       	ld	r23, X+
    2b66:	8d 91       	ld	r24, X+
    2b68:	9c 91       	ld	r25, X
    2b6a:	0e 94 b6 28 	call	0x516c	; 0x516c <__fixunssfsi>
    2b6e:	c2 50       	subi	r28, 0x02	; 2
    2b70:	df 4f       	sbci	r29, 0xFF	; 255
    2b72:	68 83       	st	Y, r22
    2b74:	79 83       	std	Y+1, r23	; 0x01
    2b76:	8a 83       	std	Y+2, r24	; 0x02
    2b78:	9b 83       	std	Y+3, r25	; 0x03
    2b7a:	ce 5f       	subi	r28, 0xFE	; 254
    2b7c:	d0 40       	sbci	r29, 0x00	; 0
    2b7e:	c2 50       	subi	r28, 0x02	; 2
    2b80:	df 4f       	sbci	r29, 0xFF	; 255
    2b82:	88 81       	ld	r24, Y
    2b84:	99 81       	ldd	r25, Y+1	; 0x01
    2b86:	ce 5f       	subi	r28, 0xFE	; 254
    2b88:	d0 40       	sbci	r29, 0x00	; 0
    2b8a:	f8 01       	movw	r30, r16
    2b8c:	91 83       	std	Z+1, r25	; 0x01
    2b8e:	80 83       	st	Z, r24

00002b90 <.L213>:
    2b90:	ce 01       	movw	r24, r28
    2b92:	88 59       	subi	r24, 0x98	; 152
    2b94:	9f 4f       	sbci	r25, 0xFF	; 255
    2b96:	9e 01       	movw	r18, r28
    2b98:	2c 59       	subi	r18, 0x9C	; 156
    2b9a:	3f 4f       	sbci	r19, 0xFF	; 255
    2b9c:	d9 01       	movw	r26, r18
    2b9e:	2d 91       	ld	r18, X+
    2ba0:	3c 91       	ld	r19, X
    2ba2:	fc 01       	movw	r30, r24
    2ba4:	31 83       	std	Z+1, r19	; 0x01
    2ba6:	20 83       	st	Z, r18

00002ba8 <.LM319>:
    2ba8:	ce 01       	movw	r24, r28
    2baa:	88 59       	subi	r24, 0x98	; 152
    2bac:	9f 4f       	sbci	r25, 0xFF	; 255
    2bae:	dc 01       	movw	r26, r24
    2bb0:	8d 91       	ld	r24, X+
    2bb2:	9c 91       	ld	r25, X

00002bb4 <.L1^B36>:
    2bb4:	01 97       	sbiw	r24, 0x01	; 1
    2bb6:	f1 f7       	brne	.-4      	; 0x2bb4 <.L1^B36>
    2bb8:	9e 01       	movw	r18, r28
    2bba:	28 59       	subi	r18, 0x98	; 152
    2bbc:	3f 4f       	sbci	r19, 0xFF	; 255
    2bbe:	f9 01       	movw	r30, r18
    2bc0:	91 83       	std	Z+1, r25	; 0x01
    2bc2:	80 83       	st	Z, r24

00002bc4 <.LM320>:
	...

00002bc6 <.L218>:
    2bc6:	7e c0       	rjmp	.+252    	; 0x2cc4 <.L219>

00002bc8 <.L292>:
    2bc8:	ce 01       	movw	r24, r28
    2bca:	8d 5a       	subi	r24, 0xAD	; 173
    2bcc:	9f 4f       	sbci	r25, 0xFF	; 255
    2bce:	20 e0       	ldi	r18, 0x00	; 0
    2bd0:	30 e0       	ldi	r19, 0x00	; 0
    2bd2:	4f e7       	ldi	r20, 0x7F	; 127
    2bd4:	53 e4       	ldi	r21, 0x43	; 67
    2bd6:	dc 01       	movw	r26, r24
    2bd8:	6d 91       	ld	r22, X+
    2bda:	7d 91       	ld	r23, X+
    2bdc:	8d 91       	ld	r24, X+
    2bde:	9c 91       	ld	r25, X
    2be0:	0e 94 5a 29 	call	0x52b4	; 0x52b4 <__gesf2>
    2be4:	18 16       	cp	r1, r24
    2be6:	d4 f5       	brge	.+116    	; 0x2c5c <.L295>

00002be8 <.LM323>:
    2be8:	8e 01       	movw	r16, r28
    2bea:	06 59       	subi	r16, 0x96	; 150
    2bec:	1f 4f       	sbci	r17, 0xFF	; 255
    2bee:	ce 01       	movw	r24, r28
    2bf0:	89 5a       	subi	r24, 0xA9	; 169
    2bf2:	9f 4f       	sbci	r25, 0xFF	; 255
    2bf4:	fc 01       	movw	r30, r24
    2bf6:	60 81       	ld	r22, Z
    2bf8:	71 81       	ldd	r23, Z+1	; 0x01
    2bfa:	82 81       	ldd	r24, Z+2	; 0x02
    2bfc:	93 81       	ldd	r25, Z+3	; 0x03
    2bfe:	0e 94 b6 28 	call	0x516c	; 0x516c <__fixunssfsi>
    2c02:	ce 5f       	subi	r28, 0xFE	; 254
    2c04:	de 4f       	sbci	r29, 0xFE	; 254
    2c06:	68 83       	st	Y, r22
    2c08:	79 83       	std	Y+1, r23	; 0x01
    2c0a:	8a 83       	std	Y+2, r24	; 0x02
    2c0c:	9b 83       	std	Y+3, r25	; 0x03
    2c0e:	c2 50       	subi	r28, 0x02	; 2
    2c10:	d1 40       	sbci	r29, 0x01	; 1
    2c12:	ce 5f       	subi	r28, 0xFE	; 254
    2c14:	de 4f       	sbci	r29, 0xFE	; 254
    2c16:	e8 81       	ld	r30, Y
    2c18:	f9 81       	ldd	r31, Y+1	; 0x01
    2c1a:	c2 50       	subi	r28, 0x02	; 2
    2c1c:	d1 40       	sbci	r29, 0x01	; 1
    2c1e:	d8 01       	movw	r26, r16
    2c20:	ed 93       	st	X+, r30
    2c22:	fc 93       	st	X, r31
    2c24:	ce 01       	movw	r24, r28
    2c26:	84 59       	subi	r24, 0x94	; 148
    2c28:	9f 4f       	sbci	r25, 0xFF	; 255
    2c2a:	9e 01       	movw	r18, r28
    2c2c:	26 59       	subi	r18, 0x96	; 150
    2c2e:	3f 4f       	sbci	r19, 0xFF	; 255
    2c30:	d9 01       	movw	r26, r18
    2c32:	2d 91       	ld	r18, X+
    2c34:	3c 91       	ld	r19, X
    2c36:	fc 01       	movw	r30, r24
    2c38:	31 83       	std	Z+1, r19	; 0x01
    2c3a:	20 83       	st	Z, r18

00002c3c <.LM324>:
    2c3c:	ce 01       	movw	r24, r28
    2c3e:	84 59       	subi	r24, 0x94	; 148
    2c40:	9f 4f       	sbci	r25, 0xFF	; 255
    2c42:	dc 01       	movw	r26, r24
    2c44:	8d 91       	ld	r24, X+
    2c46:	9c 91       	ld	r25, X

00002c48 <.L1^B37>:
    2c48:	01 97       	sbiw	r24, 0x01	; 1
    2c4a:	f1 f7       	brne	.-4      	; 0x2c48 <.L1^B37>
    2c4c:	9e 01       	movw	r18, r28
    2c4e:	24 59       	subi	r18, 0x94	; 148
    2c50:	3f 4f       	sbci	r19, 0xFF	; 255
    2c52:	f9 01       	movw	r30, r18
    2c54:	91 83       	std	Z+1, r25	; 0x01
    2c56:	80 83       	st	Z, r24

00002c58 <.LM325>:
	...

00002c5a <.LM326>:
    2c5a:	34 c0       	rjmp	.+104    	; 0x2cc4 <.L219>

00002c5c <.L295>:
    2c5c:	8e 01       	movw	r16, r28
    2c5e:	05 5a       	subi	r16, 0xA5	; 165
    2c60:	1f 4f       	sbci	r17, 0xFF	; 255
    2c62:	ce 01       	movw	r24, r28
    2c64:	8d 5a       	subi	r24, 0xAD	; 173
    2c66:	9f 4f       	sbci	r25, 0xFF	; 255
    2c68:	dc 01       	movw	r26, r24
    2c6a:	6d 91       	ld	r22, X+
    2c6c:	7d 91       	ld	r23, X+
    2c6e:	8d 91       	ld	r24, X+
    2c70:	9c 91       	ld	r25, X
    2c72:	0e 94 b6 28 	call	0x516c	; 0x516c <__fixunssfsi>
    2c76:	ca 5f       	subi	r28, 0xFA	; 250
    2c78:	de 4f       	sbci	r29, 0xFE	; 254
    2c7a:	68 83       	st	Y, r22
    2c7c:	79 83       	std	Y+1, r23	; 0x01
    2c7e:	8a 83       	std	Y+2, r24	; 0x02
    2c80:	9b 83       	std	Y+3, r25	; 0x03
    2c82:	c6 50       	subi	r28, 0x06	; 6
    2c84:	d1 40       	sbci	r29, 0x01	; 1
    2c86:	ca 5f       	subi	r28, 0xFA	; 250
    2c88:	de 4f       	sbci	r29, 0xFE	; 254
    2c8a:	88 81       	ld	r24, Y
    2c8c:	c6 50       	subi	r28, 0x06	; 6
    2c8e:	d1 40       	sbci	r29, 0x01	; 1
    2c90:	f8 01       	movw	r30, r16
    2c92:	80 83       	st	Z, r24

00002c94 <.L208>:
    2c94:	ce 01       	movw	r24, r28
    2c96:	82 59       	subi	r24, 0x92	; 146
    2c98:	9f 4f       	sbci	r25, 0xFF	; 255
    2c9a:	9e 01       	movw	r18, r28
    2c9c:	25 5a       	subi	r18, 0xA5	; 165
    2c9e:	3f 4f       	sbci	r19, 0xFF	; 255
    2ca0:	d9 01       	movw	r26, r18
    2ca2:	2c 91       	ld	r18, X
    2ca4:	fc 01       	movw	r30, r24
    2ca6:	20 83       	st	Z, r18

00002ca8 <.LM328>:
    2ca8:	ce 01       	movw	r24, r28
    2caa:	82 59       	subi	r24, 0x92	; 146
    2cac:	9f 4f       	sbci	r25, 0xFF	; 255
    2cae:	dc 01       	movw	r26, r24
    2cb0:	8c 91       	ld	r24, X
    2cb2:	28 2f       	mov	r18, r24

00002cb4 <.L1^B38>:
    2cb4:	2a 95       	dec	r18
    2cb6:	f1 f7       	brne	.-4      	; 0x2cb4 <.L1^B38>
    2cb8:	ce 01       	movw	r24, r28
    2cba:	82 59       	subi	r24, 0x92	; 146
    2cbc:	9f 4f       	sbci	r25, 0xFF	; 255
    2cbe:	fc 01       	movw	r30, r24
    2cc0:	20 83       	st	Z, r18

00002cc2 <.LM329>:
	...

00002cc4 <.L219>:
    2cc4:	41 e0       	ldi	r20, 0x01	; 1
    2cc6:	62 e0       	ldi	r22, 0x02	; 2
    2cc8:	80 e0       	ldi	r24, 0x00	; 0
    2cca:	0e 94 6e 01 	call	0x2dc	; 0x2dc <GPIO_writePin>
    2cce:	80 e0       	ldi	r24, 0x00	; 0
    2cd0:	90 e0       	ldi	r25, 0x00	; 0
    2cd2:	a0 e8       	ldi	r26, 0x80	; 128
    2cd4:	bf e3       	ldi	r27, 0x3F	; 63
    2cd6:	8f a7       	std	Y+47, r24	; 0x2f
    2cd8:	98 ab       	std	Y+48, r25	; 0x30
    2cda:	a9 ab       	std	Y+49, r26	; 0x31
    2cdc:	ba ab       	std	Y+50, r27	; 0x32

00002cde <.LM331>:
    2cde:	2b ea       	ldi	r18, 0xAB	; 171
    2ce0:	3a ea       	ldi	r19, 0xAA	; 170
    2ce2:	4a ea       	ldi	r20, 0xAA	; 170
    2ce4:	50 e4       	ldi	r21, 0x40	; 64
    2ce6:	6f a5       	ldd	r22, Y+47	; 0x2f
    2ce8:	78 a9       	ldd	r23, Y+48	; 0x30
    2cea:	89 a9       	ldd	r24, Y+49	; 0x31
    2cec:	9a a9       	ldd	r25, Y+50	; 0x32
    2cee:	0e 94 5f 29 	call	0x52be	; 0x52be <__mulsf3>
    2cf2:	c6 5f       	subi	r28, 0xF6	; 246
    2cf4:	de 4f       	sbci	r29, 0xFE	; 254
    2cf6:	68 83       	st	Y, r22
    2cf8:	79 83       	std	Y+1, r23	; 0x01
    2cfa:	8a 83       	std	Y+2, r24	; 0x02
    2cfc:	9b 83       	std	Y+3, r25	; 0x03
    2cfe:	ca 50       	subi	r28, 0x0A	; 10
    2d00:	d1 40       	sbci	r29, 0x01	; 1
    2d02:	c6 5f       	subi	r28, 0xF6	; 246
    2d04:	de 4f       	sbci	r29, 0xFE	; 254
    2d06:	88 81       	ld	r24, Y
    2d08:	99 81       	ldd	r25, Y+1	; 0x01
    2d0a:	aa 81       	ldd	r26, Y+2	; 0x02
    2d0c:	bb 81       	ldd	r27, Y+3	; 0x03
    2d0e:	ca 50       	subi	r28, 0x0A	; 10
    2d10:	d1 40       	sbci	r29, 0x01	; 1
    2d12:	8b ab       	std	Y+51, r24	; 0x33
    2d14:	9c ab       	std	Y+52, r25	; 0x34
    2d16:	ad ab       	std	Y+53, r26	; 0x35
    2d18:	be ab       	std	Y+54, r27	; 0x36

00002d1a <.LM332>:
    2d1a:	20 e0       	ldi	r18, 0x00	; 0
    2d1c:	30 e0       	ldi	r19, 0x00	; 0
    2d1e:	40 e8       	ldi	r20, 0x80	; 128
    2d20:	50 e4       	ldi	r21, 0x40	; 64
    2d22:	6f a5       	ldd	r22, Y+47	; 0x2f
    2d24:	78 a9       	ldd	r23, Y+48	; 0x30
    2d26:	89 a9       	ldd	r24, Y+49	; 0x31
    2d28:	9a a9       	ldd	r25, Y+50	; 0x32
    2d2a:	0e 94 5f 29 	call	0x52be	; 0x52be <__mulsf3>
    2d2e:	c2 5f       	subi	r28, 0xF2	; 242
    2d30:	de 4f       	sbci	r29, 0xFE	; 254
    2d32:	68 83       	st	Y, r22
    2d34:	79 83       	std	Y+1, r23	; 0x01
    2d36:	8a 83       	std	Y+2, r24	; 0x02
    2d38:	9b 83       	std	Y+3, r25	; 0x03
    2d3a:	ce 50       	subi	r28, 0x0E	; 14
    2d3c:	d1 40       	sbci	r29, 0x01	; 1
    2d3e:	c2 5f       	subi	r28, 0xF2	; 242
    2d40:	de 4f       	sbci	r29, 0xFE	; 254
    2d42:	88 81       	ld	r24, Y
    2d44:	99 81       	ldd	r25, Y+1	; 0x01
    2d46:	aa 81       	ldd	r26, Y+2	; 0x02
    2d48:	bb 81       	ldd	r27, Y+3	; 0x03
    2d4a:	ce 50       	subi	r28, 0x0E	; 14
    2d4c:	d1 40       	sbci	r29, 0x01	; 1
    2d4e:	8f ab       	std	Y+55, r24	; 0x37
    2d50:	98 af       	std	Y+56, r25	; 0x38
    2d52:	a9 af       	std	Y+57, r26	; 0x39
    2d54:	ba af       	std	Y+58, r27	; 0x3a

00002d56 <.LM333>:
    2d56:	20 e0       	ldi	r18, 0x00	; 0
    2d58:	30 e0       	ldi	r19, 0x00	; 0
    2d5a:	40 e8       	ldi	r20, 0x80	; 128
    2d5c:	5f e3       	ldi	r21, 0x3F	; 63
    2d5e:	6b a9       	ldd	r22, Y+51	; 0x33
    2d60:	7c a9       	ldd	r23, Y+52	; 0x34
    2d62:	8d a9       	ldd	r24, Y+53	; 0x35
    2d64:	9e a9       	ldd	r25, Y+54	; 0x36
    2d66:	0e 94 3f 28 	call	0x507e	; 0x507e <__cmpsf2>
    2d6a:	88 23       	and	r24, r24
    2d6c:	1c f4       	brge	.+6      	; 0x2d74 <.L296>

00002d6e <.LM334>:
    2d6e:	81 e0       	ldi	r24, 0x01	; 1
    2d70:	8b af       	std	Y+59, r24	; 0x3b
    2d72:	76 c1       	rjmp	.+748    	; 0x3060 <.L224>

00002d74 <.L296>:
    2d74:	20 e0       	ldi	r18, 0x00	; 0
    2d76:	3f ef       	ldi	r19, 0xFF	; 255
    2d78:	4f e7       	ldi	r20, 0x7F	; 127
    2d7a:	57 e4       	ldi	r21, 0x47	; 71
    2d7c:	6f a9       	ldd	r22, Y+55	; 0x37
    2d7e:	78 ad       	ldd	r23, Y+56	; 0x38
    2d80:	89 ad       	ldd	r24, Y+57	; 0x39
    2d82:	9a ad       	ldd	r25, Y+58	; 0x3a
    2d84:	0e 94 5a 29 	call	0x52b4	; 0x52b4 <__gesf2>
    2d88:	18 16       	cp	r1, r24
    2d8a:	0c f0       	brlt	.+2      	; 0x2d8e <.LM336>

00002d8c <L0^A>:
    2d8c:	13 c1       	rjmp	.+550    	; 0x2fb4 <.L297>

00002d8e <.LM336>:
    2d8e:	20 e0       	ldi	r18, 0x00	; 0
    2d90:	30 e0       	ldi	r19, 0x00	; 0
    2d92:	4a e7       	ldi	r20, 0x7A	; 122
    2d94:	54 e4       	ldi	r21, 0x44	; 68
    2d96:	6f a5       	ldd	r22, Y+47	; 0x2f
    2d98:	78 a9       	ldd	r23, Y+48	; 0x30
    2d9a:	89 a9       	ldd	r24, Y+49	; 0x31
    2d9c:	9a a9       	ldd	r25, Y+50	; 0x32
    2d9e:	0e 94 44 28 	call	0x5088	; 0x5088 <__divsf3>
    2da2:	ce 5e       	subi	r28, 0xEE	; 238
    2da4:	de 4f       	sbci	r29, 0xFE	; 254
    2da6:	68 83       	st	Y, r22
    2da8:	79 83       	std	Y+1, r23	; 0x01
    2daa:	8a 83       	std	Y+2, r24	; 0x02
    2dac:	9b 83       	std	Y+3, r25	; 0x03
    2dae:	c2 51       	subi	r28, 0x12	; 18
    2db0:	d1 40       	sbci	r29, 0x01	; 1
    2db2:	ce 5e       	subi	r28, 0xEE	; 238
    2db4:	de 4f       	sbci	r29, 0xFE	; 254
    2db6:	88 81       	ld	r24, Y
    2db8:	99 81       	ldd	r25, Y+1	; 0x01
    2dba:	aa 81       	ldd	r26, Y+2	; 0x02
    2dbc:	bb 81       	ldd	r27, Y+3	; 0x03
    2dbe:	c2 51       	subi	r28, 0x12	; 18
    2dc0:	d1 40       	sbci	r29, 0x01	; 1
    2dc2:	8c af       	std	Y+60, r24	; 0x3c
    2dc4:	9d af       	std	Y+61, r25	; 0x3d
    2dc6:	ae af       	std	Y+62, r26	; 0x3e
    2dc8:	bf af       	std	Y+63, r27	; 0x3f

00002dca <.LM337>:
    2dca:	8e 01       	movw	r16, r28
    2dcc:	00 5c       	subi	r16, 0xC0	; 192
    2dce:	1f 4f       	sbci	r17, 0xFF	; 255
    2dd0:	20 e0       	ldi	r18, 0x00	; 0
    2dd2:	30 e0       	ldi	r19, 0x00	; 0
    2dd4:	4a e7       	ldi	r20, 0x7A	; 122
    2dd6:	55 e4       	ldi	r21, 0x45	; 69
    2dd8:	6c ad       	ldd	r22, Y+60	; 0x3c
    2dda:	7d ad       	ldd	r23, Y+61	; 0x3d
    2ddc:	8e ad       	ldd	r24, Y+62	; 0x3e
    2dde:	9f ad       	ldd	r25, Y+63	; 0x3f
    2de0:	0e 94 5f 29 	call	0x52be	; 0x52be <__mulsf3>
    2de4:	ca 5e       	subi	r28, 0xEA	; 234
    2de6:	de 4f       	sbci	r29, 0xFE	; 254
    2de8:	68 83       	st	Y, r22
    2dea:	79 83       	std	Y+1, r23	; 0x01
    2dec:	8a 83       	std	Y+2, r24	; 0x02
    2dee:	9b 83       	std	Y+3, r25	; 0x03
    2df0:	c6 51       	subi	r28, 0x16	; 22
    2df2:	d1 40       	sbci	r29, 0x01	; 1
    2df4:	ca 5e       	subi	r28, 0xEA	; 234
    2df6:	de 4f       	sbci	r29, 0xFE	; 254
    2df8:	88 81       	ld	r24, Y
    2dfa:	99 81       	ldd	r25, Y+1	; 0x01
    2dfc:	aa 81       	ldd	r26, Y+2	; 0x02
    2dfe:	bb 81       	ldd	r27, Y+3	; 0x03
    2e00:	c6 51       	subi	r28, 0x16	; 22
    2e02:	d1 40       	sbci	r29, 0x01	; 1
    2e04:	f8 01       	movw	r30, r16
    2e06:	80 83       	st	Z, r24
    2e08:	91 83       	std	Z+1, r25	; 0x01
    2e0a:	a2 83       	std	Z+2, r26	; 0x02
    2e0c:	b3 83       	std	Z+3, r27	; 0x03

00002e0e <.LM338>:
    2e0e:	ce 01       	movw	r24, r28
    2e10:	80 5c       	subi	r24, 0xC0	; 192
    2e12:	9f 4f       	sbci	r25, 0xFF	; 255
    2e14:	20 e0       	ldi	r18, 0x00	; 0
    2e16:	30 e0       	ldi	r19, 0x00	; 0
    2e18:	40 e8       	ldi	r20, 0x80	; 128
    2e1a:	5f e3       	ldi	r21, 0x3F	; 63
    2e1c:	dc 01       	movw	r26, r24
    2e1e:	6d 91       	ld	r22, X+
    2e20:	7d 91       	ld	r23, X+
    2e22:	8d 91       	ld	r24, X+
    2e24:	9c 91       	ld	r25, X
    2e26:	0e 94 3f 28 	call	0x507e	; 0x507e <__cmpsf2>
    2e2a:	88 23       	and	r24, r24
    2e2c:	4c f4       	brge	.+18     	; 0x2e40 <.L298>

00002e2e <.LM339>:
    2e2e:	ce 01       	movw	r24, r28
    2e30:	8c 5b       	subi	r24, 0xBC	; 188
    2e32:	9f 4f       	sbci	r25, 0xFF	; 255
    2e34:	21 e0       	ldi	r18, 0x01	; 1
    2e36:	30 e0       	ldi	r19, 0x00	; 0
    2e38:	fc 01       	movw	r30, r24
    2e3a:	31 83       	std	Z+1, r19	; 0x01
    2e3c:	20 83       	st	Z, r18
    2e3e:	9e c0       	rjmp	.+316    	; 0x2f7c <.L229>

00002e40 <.L298>:
    2e40:	ce 01       	movw	r24, r28
    2e42:	80 5c       	subi	r24, 0xC0	; 192
    2e44:	9f 4f       	sbci	r25, 0xFF	; 255
    2e46:	20 e0       	ldi	r18, 0x00	; 0
    2e48:	3f ef       	ldi	r19, 0xFF	; 255
    2e4a:	4f e7       	ldi	r20, 0x7F	; 127
    2e4c:	57 e4       	ldi	r21, 0x47	; 71
    2e4e:	dc 01       	movw	r26, r24
    2e50:	6d 91       	ld	r22, X+
    2e52:	7d 91       	ld	r23, X+
    2e54:	8d 91       	ld	r24, X+
    2e56:	9c 91       	ld	r25, X
    2e58:	0e 94 5a 29 	call	0x52b4	; 0x52b4 <__gesf2>
    2e5c:	18 16       	cp	r1, r24
    2e5e:	0c f0       	brlt	.+2      	; 0x2e62 <.LM341>

00002e60 <L0^A>:
    2e60:	6f c0       	rjmp	.+222    	; 0x2f40 <.L299>

00002e62 <.LM341>:
    2e62:	20 e0       	ldi	r18, 0x00	; 0
    2e64:	30 e0       	ldi	r19, 0x00	; 0
    2e66:	40 e2       	ldi	r20, 0x20	; 32
    2e68:	51 e4       	ldi	r21, 0x41	; 65
    2e6a:	6c ad       	ldd	r22, Y+60	; 0x3c
    2e6c:	7d ad       	ldd	r23, Y+61	; 0x3d
    2e6e:	8e ad       	ldd	r24, Y+62	; 0x3e
    2e70:	9f ad       	ldd	r25, Y+63	; 0x3f
    2e72:	0e 94 5f 29 	call	0x52be	; 0x52be <__mulsf3>
    2e76:	c6 5e       	subi	r28, 0xE6	; 230
    2e78:	de 4f       	sbci	r29, 0xFE	; 254
    2e7a:	68 83       	st	Y, r22
    2e7c:	79 83       	std	Y+1, r23	; 0x01
    2e7e:	8a 83       	std	Y+2, r24	; 0x02
    2e80:	9b 83       	std	Y+3, r25	; 0x03
    2e82:	ca 51       	subi	r28, 0x1A	; 26
    2e84:	d1 40       	sbci	r29, 0x01	; 1
    2e86:	c6 5e       	subi	r28, 0xE6	; 230
    2e88:	de 4f       	sbci	r29, 0xFE	; 254
    2e8a:	88 81       	ld	r24, Y
    2e8c:	99 81       	ldd	r25, Y+1	; 0x01
    2e8e:	aa 81       	ldd	r26, Y+2	; 0x02
    2e90:	bb 81       	ldd	r27, Y+3	; 0x03
    2e92:	ca 51       	subi	r28, 0x1A	; 26
    2e94:	d1 40       	sbci	r29, 0x01	; 1
    2e96:	ce 55       	subi	r28, 0x5E	; 94
    2e98:	df 4f       	sbci	r29, 0xFF	; 255
    2e9a:	88 83       	st	Y, r24
    2e9c:	99 83       	std	Y+1, r25	; 0x01
    2e9e:	aa 83       	std	Y+2, r26	; 0x02
    2ea0:	bb 83       	std	Y+3, r27	; 0x03
    2ea2:	c2 5a       	subi	r28, 0xA2	; 162
    2ea4:	d0 40       	sbci	r29, 0x00	; 0

00002ea6 <.LM342>:
    2ea6:	8e 01       	movw	r16, r28
    2ea8:	0c 5b       	subi	r16, 0xBC	; 188
    2eaa:	1f 4f       	sbci	r17, 0xFF	; 255
    2eac:	ce 55       	subi	r28, 0x5E	; 94
    2eae:	df 4f       	sbci	r29, 0xFF	; 255
    2eb0:	68 81       	ld	r22, Y
    2eb2:	79 81       	ldd	r23, Y+1	; 0x01
    2eb4:	8a 81       	ldd	r24, Y+2	; 0x02
    2eb6:	9b 81       	ldd	r25, Y+3	; 0x03
    2eb8:	c2 5a       	subi	r28, 0xA2	; 162
    2eba:	d0 40       	sbci	r29, 0x00	; 0
    2ebc:	0e 94 b6 28 	call	0x516c	; 0x516c <__fixunssfsi>
    2ec0:	c2 5e       	subi	r28, 0xE2	; 226
    2ec2:	de 4f       	sbci	r29, 0xFE	; 254
    2ec4:	68 83       	st	Y, r22
    2ec6:	79 83       	std	Y+1, r23	; 0x01
    2ec8:	8a 83       	std	Y+2, r24	; 0x02
    2eca:	9b 83       	std	Y+3, r25	; 0x03
    2ecc:	ce 51       	subi	r28, 0x1E	; 30
    2ece:	d1 40       	sbci	r29, 0x01	; 1
    2ed0:	c2 5e       	subi	r28, 0xE2	; 226
    2ed2:	de 4f       	sbci	r29, 0xFE	; 254
    2ed4:	e8 81       	ld	r30, Y
    2ed6:	f9 81       	ldd	r31, Y+1	; 0x01
    2ed8:	ce 51       	subi	r28, 0x1E	; 30
    2eda:	d1 40       	sbci	r29, 0x01	; 1
    2edc:	d8 01       	movw	r26, r16
    2ede:	ed 93       	st	X+, r30
    2ee0:	fc 93       	st	X, r31

00002ee2 <.LM343>:
    2ee2:	25 c0       	rjmp	.+74     	; 0x2f2e <.L232>

00002ee4 <.L233>:
    2ee4:	ce 01       	movw	r24, r28
    2ee6:	8a 5b       	subi	r24, 0xBA	; 186
    2ee8:	9f 4f       	sbci	r25, 0xFF	; 255
    2eea:	20 e9       	ldi	r18, 0x90	; 144
    2eec:	31 e0       	ldi	r19, 0x01	; 1
    2eee:	dc 01       	movw	r26, r24
    2ef0:	2d 93       	st	X+, r18
    2ef2:	3c 93       	st	X, r19

00002ef4 <.LM344>:
    2ef4:	ce 01       	movw	r24, r28
    2ef6:	8a 5b       	subi	r24, 0xBA	; 186
    2ef8:	9f 4f       	sbci	r25, 0xFF	; 255
    2efa:	fc 01       	movw	r30, r24
    2efc:	80 81       	ld	r24, Z
    2efe:	91 81       	ldd	r25, Z+1	; 0x01

00002f00 <.L1^B39>:
    2f00:	01 97       	sbiw	r24, 0x01	; 1
    2f02:	f1 f7       	brne	.-4      	; 0x2f00 <.L1^B39>
    2f04:	9e 01       	movw	r18, r28
    2f06:	2a 5b       	subi	r18, 0xBA	; 186
    2f08:	3f 4f       	sbci	r19, 0xFF	; 255
    2f0a:	d9 01       	movw	r26, r18
    2f0c:	8d 93       	st	X+, r24
    2f0e:	9c 93       	st	X, r25

00002f10 <.LM345>:
	...

00002f12 <.LM346>:
    2f12:	ce 01       	movw	r24, r28
    2f14:	8c 5b       	subi	r24, 0xBC	; 188
    2f16:	9f 4f       	sbci	r25, 0xFF	; 255
    2f18:	9e 01       	movw	r18, r28
    2f1a:	2c 5b       	subi	r18, 0xBC	; 188
    2f1c:	3f 4f       	sbci	r19, 0xFF	; 255
    2f1e:	f9 01       	movw	r30, r18
    2f20:	20 81       	ld	r18, Z
    2f22:	31 81       	ldd	r19, Z+1	; 0x01
    2f24:	21 50       	subi	r18, 0x01	; 1
    2f26:	31 09       	sbc	r19, r1
    2f28:	dc 01       	movw	r26, r24
    2f2a:	2d 93       	st	X+, r18
    2f2c:	3c 93       	st	X, r19

00002f2e <.L232>:
    2f2e:	ce 01       	movw	r24, r28
    2f30:	8c 5b       	subi	r24, 0xBC	; 188
    2f32:	9f 4f       	sbci	r25, 0xFF	; 255
    2f34:	fc 01       	movw	r30, r24
    2f36:	80 81       	ld	r24, Z
    2f38:	91 81       	ldd	r25, Z+1	; 0x01
    2f3a:	89 2b       	or	r24, r25
    2f3c:	99 f6       	brne	.-90     	; 0x2ee4 <.L233>

00002f3e <.LM348>:
    2f3e:	39 c0       	rjmp	.+114    	; 0x2fb2 <.L234>

00002f40 <.L299>:
    2f40:	8e 01       	movw	r16, r28
    2f42:	0c 5b       	subi	r16, 0xBC	; 188
    2f44:	1f 4f       	sbci	r17, 0xFF	; 255
    2f46:	ce 01       	movw	r24, r28
    2f48:	80 5c       	subi	r24, 0xC0	; 192
    2f4a:	9f 4f       	sbci	r25, 0xFF	; 255
    2f4c:	dc 01       	movw	r26, r24
    2f4e:	6d 91       	ld	r22, X+
    2f50:	7d 91       	ld	r23, X+
    2f52:	8d 91       	ld	r24, X+
    2f54:	9c 91       	ld	r25, X
    2f56:	0e 94 b6 28 	call	0x516c	; 0x516c <__fixunssfsi>
    2f5a:	ce 5d       	subi	r28, 0xDE	; 222
    2f5c:	de 4f       	sbci	r29, 0xFE	; 254
    2f5e:	68 83       	st	Y, r22
    2f60:	79 83       	std	Y+1, r23	; 0x01
    2f62:	8a 83       	std	Y+2, r24	; 0x02
    2f64:	9b 83       	std	Y+3, r25	; 0x03
    2f66:	c2 52       	subi	r28, 0x22	; 34
    2f68:	d1 40       	sbci	r29, 0x01	; 1
    2f6a:	ce 5d       	subi	r28, 0xDE	; 222
    2f6c:	de 4f       	sbci	r29, 0xFE	; 254
    2f6e:	88 81       	ld	r24, Y
    2f70:	99 81       	ldd	r25, Y+1	; 0x01
    2f72:	c2 52       	subi	r28, 0x22	; 34
    2f74:	d1 40       	sbci	r29, 0x01	; 1
    2f76:	f8 01       	movw	r30, r16
    2f78:	91 83       	std	Z+1, r25	; 0x01
    2f7a:	80 83       	st	Z, r24

00002f7c <.L229>:
    2f7c:	ce 01       	movw	r24, r28
    2f7e:	88 5b       	subi	r24, 0xB8	; 184
    2f80:	9f 4f       	sbci	r25, 0xFF	; 255
    2f82:	9e 01       	movw	r18, r28
    2f84:	2c 5b       	subi	r18, 0xBC	; 188
    2f86:	3f 4f       	sbci	r19, 0xFF	; 255
    2f88:	d9 01       	movw	r26, r18
    2f8a:	2d 91       	ld	r18, X+
    2f8c:	3c 91       	ld	r19, X
    2f8e:	fc 01       	movw	r30, r24
    2f90:	31 83       	std	Z+1, r19	; 0x01
    2f92:	20 83       	st	Z, r18

00002f94 <.LM350>:
    2f94:	ce 01       	movw	r24, r28
    2f96:	88 5b       	subi	r24, 0xB8	; 184
    2f98:	9f 4f       	sbci	r25, 0xFF	; 255
    2f9a:	dc 01       	movw	r26, r24
    2f9c:	8d 91       	ld	r24, X+
    2f9e:	9c 91       	ld	r25, X

00002fa0 <.L1^B40>:
    2fa0:	01 97       	sbiw	r24, 0x01	; 1
    2fa2:	f1 f7       	brne	.-4      	; 0x2fa0 <.L1^B40>
    2fa4:	9e 01       	movw	r18, r28
    2fa6:	28 5b       	subi	r18, 0xB8	; 184
    2fa8:	3f 4f       	sbci	r19, 0xFF	; 255
    2faa:	f9 01       	movw	r30, r18
    2fac:	91 83       	std	Z+1, r25	; 0x01
    2fae:	80 83       	st	Z, r24

00002fb0 <.LM351>:
	...

00002fb2 <.L234>:
    2fb2:	6a c0       	rjmp	.+212    	; 0x3088 <.L235>

00002fb4 <.L297>:
    2fb4:	20 e0       	ldi	r18, 0x00	; 0
    2fb6:	30 e0       	ldi	r19, 0x00	; 0
    2fb8:	4f e7       	ldi	r20, 0x7F	; 127
    2fba:	53 e4       	ldi	r21, 0x43	; 67
    2fbc:	6b a9       	ldd	r22, Y+51	; 0x33
    2fbe:	7c a9       	ldd	r23, Y+52	; 0x34
    2fc0:	8d a9       	ldd	r24, Y+53	; 0x35
    2fc2:	9e a9       	ldd	r25, Y+54	; 0x36
    2fc4:	0e 94 5a 29 	call	0x52b4	; 0x52b4 <__gesf2>
    2fc8:	18 16       	cp	r1, r24
    2fca:	b4 f5       	brge	.+108    	; 0x3038 <.L300>

00002fcc <.LM354>:
    2fcc:	8e 01       	movw	r16, r28
    2fce:	06 5b       	subi	r16, 0xB6	; 182
    2fd0:	1f 4f       	sbci	r17, 0xFF	; 255
    2fd2:	6f a9       	ldd	r22, Y+55	; 0x37
    2fd4:	78 ad       	ldd	r23, Y+56	; 0x38
    2fd6:	89 ad       	ldd	r24, Y+57	; 0x39
    2fd8:	9a ad       	ldd	r25, Y+58	; 0x3a
    2fda:	0e 94 b6 28 	call	0x516c	; 0x516c <__fixunssfsi>
    2fde:	ca 5d       	subi	r28, 0xDA	; 218
    2fe0:	de 4f       	sbci	r29, 0xFE	; 254
    2fe2:	68 83       	st	Y, r22
    2fe4:	79 83       	std	Y+1, r23	; 0x01
    2fe6:	8a 83       	std	Y+2, r24	; 0x02
    2fe8:	9b 83       	std	Y+3, r25	; 0x03
    2fea:	c6 52       	subi	r28, 0x26	; 38
    2fec:	d1 40       	sbci	r29, 0x01	; 1
    2fee:	ca 5d       	subi	r28, 0xDA	; 218
    2ff0:	de 4f       	sbci	r29, 0xFE	; 254
    2ff2:	e8 81       	ld	r30, Y
    2ff4:	f9 81       	ldd	r31, Y+1	; 0x01
    2ff6:	c6 52       	subi	r28, 0x26	; 38
    2ff8:	d1 40       	sbci	r29, 0x01	; 1
    2ffa:	d8 01       	movw	r26, r16
    2ffc:	ed 93       	st	X+, r30
    2ffe:	fc 93       	st	X, r31
    3000:	ce 01       	movw	r24, r28
    3002:	84 5b       	subi	r24, 0xB4	; 180
    3004:	9f 4f       	sbci	r25, 0xFF	; 255
    3006:	9e 01       	movw	r18, r28
    3008:	26 5b       	subi	r18, 0xB6	; 182
    300a:	3f 4f       	sbci	r19, 0xFF	; 255
    300c:	d9 01       	movw	r26, r18
    300e:	2d 91       	ld	r18, X+
    3010:	3c 91       	ld	r19, X
    3012:	fc 01       	movw	r30, r24
    3014:	31 83       	std	Z+1, r19	; 0x01
    3016:	20 83       	st	Z, r18

00003018 <.LM355>:
    3018:	ce 01       	movw	r24, r28
    301a:	84 5b       	subi	r24, 0xB4	; 180
    301c:	9f 4f       	sbci	r25, 0xFF	; 255
    301e:	dc 01       	movw	r26, r24
    3020:	8d 91       	ld	r24, X+
    3022:	9c 91       	ld	r25, X

00003024 <.L1^B41>:
    3024:	01 97       	sbiw	r24, 0x01	; 1
    3026:	f1 f7       	brne	.-4      	; 0x3024 <.L1^B41>
    3028:	9e 01       	movw	r18, r28
    302a:	24 5b       	subi	r18, 0xB4	; 180
    302c:	3f 4f       	sbci	r19, 0xFF	; 255
    302e:	f9 01       	movw	r30, r18
    3030:	91 83       	std	Z+1, r25	; 0x01
    3032:	80 83       	st	Z, r24

00003034 <.LM356>:
	...

00003036 <.LM357>:
    3036:	28 c0       	rjmp	.+80     	; 0x3088 <.L235>

00003038 <.L300>:
    3038:	6b a9       	ldd	r22, Y+51	; 0x33
    303a:	7c a9       	ldd	r23, Y+52	; 0x34
    303c:	8d a9       	ldd	r24, Y+53	; 0x35
    303e:	9e a9       	ldd	r25, Y+54	; 0x36
    3040:	0e 94 b6 28 	call	0x516c	; 0x516c <__fixunssfsi>
    3044:	c6 5d       	subi	r28, 0xD6	; 214
    3046:	de 4f       	sbci	r29, 0xFE	; 254
    3048:	68 83       	st	Y, r22
    304a:	79 83       	std	Y+1, r23	; 0x01
    304c:	8a 83       	std	Y+2, r24	; 0x02
    304e:	9b 83       	std	Y+3, r25	; 0x03
    3050:	ca 52       	subi	r28, 0x2A	; 42
    3052:	d1 40       	sbci	r29, 0x01	; 1
    3054:	c6 5d       	subi	r28, 0xD6	; 214
    3056:	de 4f       	sbci	r29, 0xFE	; 254
    3058:	f8 81       	ld	r31, Y
    305a:	ca 52       	subi	r28, 0x2A	; 42
    305c:	d1 40       	sbci	r29, 0x01	; 1
    305e:	fb af       	std	Y+59, r31	; 0x3b

00003060 <.L224>:
    3060:	ce 01       	movw	r24, r28
    3062:	82 5b       	subi	r24, 0xB2	; 178
    3064:	9f 4f       	sbci	r25, 0xFF	; 255
    3066:	2b ad       	ldd	r18, Y+59	; 0x3b
    3068:	dc 01       	movw	r26, r24
    306a:	2c 93       	st	X, r18

0000306c <.LM359>:
    306c:	ce 01       	movw	r24, r28
    306e:	82 5b       	subi	r24, 0xB2	; 178
    3070:	9f 4f       	sbci	r25, 0xFF	; 255
    3072:	fc 01       	movw	r30, r24
    3074:	80 81       	ld	r24, Z
    3076:	28 2f       	mov	r18, r24

00003078 <.L1^B42>:
    3078:	2a 95       	dec	r18
    307a:	f1 f7       	brne	.-4      	; 0x3078 <.L1^B42>
    307c:	ce 01       	movw	r24, r28
    307e:	82 5b       	subi	r24, 0xB2	; 178
    3080:	9f 4f       	sbci	r25, 0xFF	; 255
    3082:	dc 01       	movw	r26, r24
    3084:	2c 93       	st	X, r18

00003086 <.LM360>:
	...

00003088 <.L235>:
    3088:	ce 01       	movw	r24, r28
    308a:	87 56       	subi	r24, 0x67	; 103
    308c:	9f 4f       	sbci	r25, 0xFF	; 255
    308e:	fc 01       	movw	r30, r24
    3090:	80 81       	ld	r24, Z
    3092:	81 70       	andi	r24, 0x01	; 1
    3094:	48 2f       	mov	r20, r24
    3096:	63 e0       	ldi	r22, 0x03	; 3
    3098:	80 e0       	ldi	r24, 0x00	; 0
    309a:	0e 94 6e 01 	call	0x2dc	; 0x2dc <GPIO_writePin>

0000309e <.LM362>:
    309e:	ce 01       	movw	r24, r28
    30a0:	87 56       	subi	r24, 0x67	; 103
    30a2:	9f 4f       	sbci	r25, 0xFF	; 255
    30a4:	dc 01       	movw	r26, r24
    30a6:	8c 91       	ld	r24, X
    30a8:	86 95       	lsr	r24

000030aa <.LM363>:
    30aa:	81 70       	andi	r24, 0x01	; 1
    30ac:	48 2f       	mov	r20, r24
    30ae:	64 e0       	ldi	r22, 0x04	; 4
    30b0:	80 e0       	ldi	r24, 0x00	; 0
    30b2:	0e 94 6e 01 	call	0x2dc	; 0x2dc <GPIO_writePin>

000030b6 <.LM364>:
    30b6:	ce 01       	movw	r24, r28
    30b8:	87 56       	subi	r24, 0x67	; 103
    30ba:	9f 4f       	sbci	r25, 0xFF	; 255
    30bc:	fc 01       	movw	r30, r24
    30be:	80 81       	ld	r24, Z
    30c0:	86 95       	lsr	r24
    30c2:	86 95       	lsr	r24

000030c4 <.LM365>:
    30c4:	81 70       	andi	r24, 0x01	; 1
    30c6:	48 2f       	mov	r20, r24
    30c8:	65 e0       	ldi	r22, 0x05	; 5
    30ca:	80 e0       	ldi	r24, 0x00	; 0
    30cc:	0e 94 6e 01 	call	0x2dc	; 0x2dc <GPIO_writePin>

000030d0 <.LM366>:
    30d0:	ce 01       	movw	r24, r28
    30d2:	87 56       	subi	r24, 0x67	; 103
    30d4:	9f 4f       	sbci	r25, 0xFF	; 255
    30d6:	dc 01       	movw	r26, r24
    30d8:	8c 91       	ld	r24, X
    30da:	86 95       	lsr	r24
    30dc:	86 95       	lsr	r24
    30de:	86 95       	lsr	r24

000030e0 <.LM367>:
    30e0:	81 70       	andi	r24, 0x01	; 1
    30e2:	48 2f       	mov	r20, r24
    30e4:	66 e0       	ldi	r22, 0x06	; 6
    30e6:	80 e0       	ldi	r24, 0x00	; 0
    30e8:	0e 94 6e 01 	call	0x2dc	; 0x2dc <GPIO_writePin>
    30ec:	80 e0       	ldi	r24, 0x00	; 0
    30ee:	90 e0       	ldi	r25, 0x00	; 0
    30f0:	a0 e8       	ldi	r26, 0x80	; 128
    30f2:	bf e3       	ldi	r27, 0x3F	; 63
    30f4:	89 a3       	std	Y+33, r24	; 0x21
    30f6:	9a a3       	std	Y+34, r25	; 0x22
    30f8:	ab a3       	std	Y+35, r26	; 0x23
    30fa:	bc a3       	std	Y+36, r27	; 0x24

000030fc <.LM368>:
    30fc:	20 e0       	ldi	r18, 0x00	; 0
    30fe:	30 e0       	ldi	r19, 0x00	; 0
    3100:	4a e7       	ldi	r20, 0x7A	; 122
    3102:	55 e4       	ldi	r21, 0x45	; 69
    3104:	69 a1       	ldd	r22, Y+33	; 0x21
    3106:	7a a1       	ldd	r23, Y+34	; 0x22
    3108:	8b a1       	ldd	r24, Y+35	; 0x23
    310a:	9c a1       	ldd	r25, Y+36	; 0x24
    310c:	0e 94 5f 29 	call	0x52be	; 0x52be <__mulsf3>
    3110:	c2 5d       	subi	r28, 0xD2	; 210
    3112:	de 4f       	sbci	r29, 0xFE	; 254
    3114:	68 83       	st	Y, r22
    3116:	79 83       	std	Y+1, r23	; 0x01
    3118:	8a 83       	std	Y+2, r24	; 0x02
    311a:	9b 83       	std	Y+3, r25	; 0x03
    311c:	ce 52       	subi	r28, 0x2E	; 46
    311e:	d1 40       	sbci	r29, 0x01	; 1
    3120:	c2 5d       	subi	r28, 0xD2	; 210
    3122:	de 4f       	sbci	r29, 0xFE	; 254
    3124:	88 81       	ld	r24, Y
    3126:	99 81       	ldd	r25, Y+1	; 0x01
    3128:	aa 81       	ldd	r26, Y+2	; 0x02
    312a:	bb 81       	ldd	r27, Y+3	; 0x03
    312c:	ce 52       	subi	r28, 0x2E	; 46
    312e:	d1 40       	sbci	r29, 0x01	; 1
    3130:	8d a3       	std	Y+37, r24	; 0x25
    3132:	9e a3       	std	Y+38, r25	; 0x26
    3134:	af a3       	std	Y+39, r26	; 0x27
    3136:	b8 a7       	std	Y+40, r27	; 0x28

00003138 <.LM369>:
    3138:	20 e0       	ldi	r18, 0x00	; 0
    313a:	30 e0       	ldi	r19, 0x00	; 0
    313c:	40 e8       	ldi	r20, 0x80	; 128
    313e:	5f e3       	ldi	r21, 0x3F	; 63
    3140:	6d a1       	ldd	r22, Y+37	; 0x25
    3142:	7e a1       	ldd	r23, Y+38	; 0x26
    3144:	8f a1       	ldd	r24, Y+39	; 0x27
    3146:	98 a5       	ldd	r25, Y+40	; 0x28
    3148:	0e 94 3f 28 	call	0x507e	; 0x507e <__cmpsf2>
    314c:	88 23       	and	r24, r24
    314e:	2c f4       	brge	.+10     	; 0x315a <.L301>

00003150 <.LM370>:
    3150:	81 e0       	ldi	r24, 0x01	; 1
    3152:	90 e0       	ldi	r25, 0x00	; 0
    3154:	9a a7       	std	Y+42, r25	; 0x2a
    3156:	89 a7       	std	Y+41, r24	; 0x29
    3158:	75 c0       	rjmp	.+234    	; 0x3244 <.L240>

0000315a <.L301>:
    315a:	20 e0       	ldi	r18, 0x00	; 0
    315c:	3f ef       	ldi	r19, 0xFF	; 255
    315e:	4f e7       	ldi	r20, 0x7F	; 127
    3160:	57 e4       	ldi	r21, 0x47	; 71
    3162:	6d a1       	ldd	r22, Y+37	; 0x25
    3164:	7e a1       	ldd	r23, Y+38	; 0x26
    3166:	8f a1       	ldd	r24, Y+39	; 0x27
    3168:	98 a5       	ldd	r25, Y+40	; 0x28
    316a:	0e 94 5a 29 	call	0x52b4	; 0x52b4 <__gesf2>
    316e:	18 16       	cp	r1, r24
    3170:	0c f0       	brlt	.+2      	; 0x3174 <.LM372>

00003172 <L0^A>:
    3172:	52 c0       	rjmp	.+164    	; 0x3218 <.L302>

00003174 <.LM372>:
    3174:	20 e0       	ldi	r18, 0x00	; 0
    3176:	30 e0       	ldi	r19, 0x00	; 0
    3178:	40 e2       	ldi	r20, 0x20	; 32
    317a:	51 e4       	ldi	r21, 0x41	; 65
    317c:	69 a1       	ldd	r22, Y+33	; 0x21
    317e:	7a a1       	ldd	r23, Y+34	; 0x22
    3180:	8b a1       	ldd	r24, Y+35	; 0x23
    3182:	9c a1       	ldd	r25, Y+36	; 0x24
    3184:	0e 94 5f 29 	call	0x52be	; 0x52be <__mulsf3>
    3188:	ce 5c       	subi	r28, 0xCE	; 206
    318a:	de 4f       	sbci	r29, 0xFE	; 254
    318c:	68 83       	st	Y, r22
    318e:	79 83       	std	Y+1, r23	; 0x01
    3190:	8a 83       	std	Y+2, r24	; 0x02
    3192:	9b 83       	std	Y+3, r25	; 0x03
    3194:	c2 53       	subi	r28, 0x32	; 50
    3196:	d1 40       	sbci	r29, 0x01	; 1
    3198:	ce 5c       	subi	r28, 0xCE	; 206
    319a:	de 4f       	sbci	r29, 0xFE	; 254
    319c:	88 81       	ld	r24, Y
    319e:	99 81       	ldd	r25, Y+1	; 0x01
    31a0:	aa 81       	ldd	r26, Y+2	; 0x02
    31a2:	bb 81       	ldd	r27, Y+3	; 0x03
    31a4:	c2 53       	subi	r28, 0x32	; 50
    31a6:	d1 40       	sbci	r29, 0x01	; 1
    31a8:	c2 56       	subi	r28, 0x62	; 98
    31aa:	df 4f       	sbci	r29, 0xFF	; 255
    31ac:	88 83       	st	Y, r24
    31ae:	99 83       	std	Y+1, r25	; 0x01
    31b0:	aa 83       	std	Y+2, r26	; 0x02
    31b2:	bb 83       	std	Y+3, r27	; 0x03
    31b4:	ce 59       	subi	r28, 0x9E	; 158
    31b6:	d0 40       	sbci	r29, 0x00	; 0

000031b8 <.LM373>:
    31b8:	c2 56       	subi	r28, 0x62	; 98
    31ba:	df 4f       	sbci	r29, 0xFF	; 255
    31bc:	68 81       	ld	r22, Y
    31be:	79 81       	ldd	r23, Y+1	; 0x01
    31c0:	8a 81       	ldd	r24, Y+2	; 0x02
    31c2:	9b 81       	ldd	r25, Y+3	; 0x03
    31c4:	ce 59       	subi	r28, 0x9E	; 158
    31c6:	d0 40       	sbci	r29, 0x00	; 0
    31c8:	0e 94 b6 28 	call	0x516c	; 0x516c <__fixunssfsi>
    31cc:	ca 5c       	subi	r28, 0xCA	; 202
    31ce:	de 4f       	sbci	r29, 0xFE	; 254
    31d0:	68 83       	st	Y, r22
    31d2:	79 83       	std	Y+1, r23	; 0x01
    31d4:	8a 83       	std	Y+2, r24	; 0x02
    31d6:	9b 83       	std	Y+3, r25	; 0x03
    31d8:	c6 53       	subi	r28, 0x36	; 54
    31da:	d1 40       	sbci	r29, 0x01	; 1
    31dc:	ca 5c       	subi	r28, 0xCA	; 202
    31de:	de 4f       	sbci	r29, 0xFE	; 254
    31e0:	a8 81       	ld	r26, Y
    31e2:	b9 81       	ldd	r27, Y+1	; 0x01
    31e4:	c6 53       	subi	r28, 0x36	; 54
    31e6:	d1 40       	sbci	r29, 0x01	; 1
    31e8:	ba a7       	std	Y+42, r27	; 0x2a
    31ea:	a9 a7       	std	Y+41, r26	; 0x29

000031ec <.LM374>:
    31ec:	10 c0       	rjmp	.+32     	; 0x320e <.L243>

000031ee <.L244>:
    31ee:	80 e9       	ldi	r24, 0x90	; 144
    31f0:	91 e0       	ldi	r25, 0x01	; 1
    31f2:	9c a7       	std	Y+44, r25	; 0x2c
    31f4:	8b a7       	std	Y+43, r24	; 0x2b

000031f6 <.LM375>:
    31f6:	8b a5       	ldd	r24, Y+43	; 0x2b
    31f8:	9c a5       	ldd	r25, Y+44	; 0x2c

000031fa <.L1^B43>:
    31fa:	01 97       	sbiw	r24, 0x01	; 1
    31fc:	f1 f7       	brne	.-4      	; 0x31fa <.L1^B43>
    31fe:	9c a7       	std	Y+44, r25	; 0x2c
    3200:	8b a7       	std	Y+43, r24	; 0x2b

00003202 <.LM376>:
	...

00003204 <.LM377>:
    3204:	89 a5       	ldd	r24, Y+41	; 0x29
    3206:	9a a5       	ldd	r25, Y+42	; 0x2a
    3208:	01 97       	sbiw	r24, 0x01	; 1
    320a:	9a a7       	std	Y+42, r25	; 0x2a
    320c:	89 a7       	std	Y+41, r24	; 0x29

0000320e <.L243>:
    320e:	89 a5       	ldd	r24, Y+41	; 0x29
    3210:	9a a5       	ldd	r25, Y+42	; 0x2a
    3212:	89 2b       	or	r24, r25
    3214:	61 f7       	brne	.-40     	; 0x31ee <.L244>

00003216 <.LM379>:
    3216:	21 c0       	rjmp	.+66     	; 0x325a <.L245>

00003218 <.L302>:
    3218:	6d a1       	ldd	r22, Y+37	; 0x25
    321a:	7e a1       	ldd	r23, Y+38	; 0x26
    321c:	8f a1       	ldd	r24, Y+39	; 0x27
    321e:	98 a5       	ldd	r25, Y+40	; 0x28
    3220:	0e 94 b6 28 	call	0x516c	; 0x516c <__fixunssfsi>
    3224:	c6 5c       	subi	r28, 0xC6	; 198
    3226:	de 4f       	sbci	r29, 0xFE	; 254
    3228:	68 83       	st	Y, r22
    322a:	79 83       	std	Y+1, r23	; 0x01
    322c:	8a 83       	std	Y+2, r24	; 0x02
    322e:	9b 83       	std	Y+3, r25	; 0x03
    3230:	ca 53       	subi	r28, 0x3A	; 58
    3232:	d1 40       	sbci	r29, 0x01	; 1
    3234:	c6 5c       	subi	r28, 0xC6	; 198
    3236:	de 4f       	sbci	r29, 0xFE	; 254
    3238:	e8 81       	ld	r30, Y
    323a:	f9 81       	ldd	r31, Y+1	; 0x01
    323c:	ca 53       	subi	r28, 0x3A	; 58
    323e:	d1 40       	sbci	r29, 0x01	; 1
    3240:	fa a7       	std	Y+42, r31	; 0x2a
    3242:	e9 a7       	std	Y+41, r30	; 0x29

00003244 <.L240>:
    3244:	89 a5       	ldd	r24, Y+41	; 0x29
    3246:	9a a5       	ldd	r25, Y+42	; 0x2a
    3248:	9e a7       	std	Y+46, r25	; 0x2e
    324a:	8d a7       	std	Y+45, r24	; 0x2d

0000324c <.LM381>:
    324c:	8d a5       	ldd	r24, Y+45	; 0x2d
    324e:	9e a5       	ldd	r25, Y+46	; 0x2e

00003250 <.L1^B44>:
    3250:	01 97       	sbiw	r24, 0x01	; 1
    3252:	f1 f7       	brne	.-4      	; 0x3250 <.L1^B44>
    3254:	9e a7       	std	Y+46, r25	; 0x2e
    3256:	8d a7       	std	Y+45, r24	; 0x2d

00003258 <.LM382>:
	...

0000325a <.L245>:
    325a:	40 e0       	ldi	r20, 0x00	; 0
    325c:	62 e0       	ldi	r22, 0x02	; 2
    325e:	80 e0       	ldi	r24, 0x00	; 0
    3260:	0e 94 6e 01 	call	0x2dc	; 0x2dc <GPIO_writePin>
    3264:	80 e0       	ldi	r24, 0x00	; 0
    3266:	90 e0       	ldi	r25, 0x00	; 0
    3268:	a0 e8       	ldi	r26, 0x80	; 128
    326a:	bf e3       	ldi	r27, 0x3F	; 63
    326c:	89 83       	std	Y+1, r24	; 0x01
    326e:	9a 83       	std	Y+2, r25	; 0x02
    3270:	ab 83       	std	Y+3, r26	; 0x03
    3272:	bc 83       	std	Y+4, r27	; 0x04

00003274 <.LM384>:
    3274:	2b ea       	ldi	r18, 0xAB	; 171
    3276:	3a ea       	ldi	r19, 0xAA	; 170
    3278:	4a ea       	ldi	r20, 0xAA	; 170
    327a:	50 e4       	ldi	r21, 0x40	; 64
    327c:	69 81       	ldd	r22, Y+1	; 0x01
    327e:	7a 81       	ldd	r23, Y+2	; 0x02
    3280:	8b 81       	ldd	r24, Y+3	; 0x03
    3282:	9c 81       	ldd	r25, Y+4	; 0x04
    3284:	0e 94 5f 29 	call	0x52be	; 0x52be <__mulsf3>
    3288:	c2 5c       	subi	r28, 0xC2	; 194
    328a:	de 4f       	sbci	r29, 0xFE	; 254
    328c:	68 83       	st	Y, r22
    328e:	79 83       	std	Y+1, r23	; 0x01
    3290:	8a 83       	std	Y+2, r24	; 0x02
    3292:	9b 83       	std	Y+3, r25	; 0x03
    3294:	ce 53       	subi	r28, 0x3E	; 62
    3296:	d1 40       	sbci	r29, 0x01	; 1
    3298:	c2 5c       	subi	r28, 0xC2	; 194
    329a:	de 4f       	sbci	r29, 0xFE	; 254
    329c:	88 81       	ld	r24, Y
    329e:	99 81       	ldd	r25, Y+1	; 0x01
    32a0:	aa 81       	ldd	r26, Y+2	; 0x02
    32a2:	bb 81       	ldd	r27, Y+3	; 0x03
    32a4:	ce 53       	subi	r28, 0x3E	; 62
    32a6:	d1 40       	sbci	r29, 0x01	; 1
    32a8:	8d 83       	std	Y+5, r24	; 0x05
    32aa:	9e 83       	std	Y+6, r25	; 0x06
    32ac:	af 83       	std	Y+7, r26	; 0x07
    32ae:	b8 87       	std	Y+8, r27	; 0x08

000032b0 <.LM385>:
    32b0:	20 e0       	ldi	r18, 0x00	; 0
    32b2:	30 e0       	ldi	r19, 0x00	; 0
    32b4:	40 e8       	ldi	r20, 0x80	; 128
    32b6:	50 e4       	ldi	r21, 0x40	; 64
    32b8:	69 81       	ldd	r22, Y+1	; 0x01
    32ba:	7a 81       	ldd	r23, Y+2	; 0x02
    32bc:	8b 81       	ldd	r24, Y+3	; 0x03
    32be:	9c 81       	ldd	r25, Y+4	; 0x04
    32c0:	0e 94 5f 29 	call	0x52be	; 0x52be <__mulsf3>
    32c4:	ce 5b       	subi	r28, 0xBE	; 190
    32c6:	de 4f       	sbci	r29, 0xFE	; 254
    32c8:	68 83       	st	Y, r22
    32ca:	79 83       	std	Y+1, r23	; 0x01
    32cc:	8a 83       	std	Y+2, r24	; 0x02
    32ce:	9b 83       	std	Y+3, r25	; 0x03
    32d0:	c2 54       	subi	r28, 0x42	; 66
    32d2:	d1 40       	sbci	r29, 0x01	; 1
    32d4:	ce 5b       	subi	r28, 0xBE	; 190
    32d6:	de 4f       	sbci	r29, 0xFE	; 254
    32d8:	88 81       	ld	r24, Y
    32da:	99 81       	ldd	r25, Y+1	; 0x01
    32dc:	aa 81       	ldd	r26, Y+2	; 0x02
    32de:	bb 81       	ldd	r27, Y+3	; 0x03
    32e0:	c2 54       	subi	r28, 0x42	; 66
    32e2:	d1 40       	sbci	r29, 0x01	; 1
    32e4:	89 87       	std	Y+9, r24	; 0x09
    32e6:	9a 87       	std	Y+10, r25	; 0x0a
    32e8:	ab 87       	std	Y+11, r26	; 0x0b
    32ea:	bc 87       	std	Y+12, r27	; 0x0c

000032ec <.LM386>:
    32ec:	20 e0       	ldi	r18, 0x00	; 0
    32ee:	30 e0       	ldi	r19, 0x00	; 0
    32f0:	40 e8       	ldi	r20, 0x80	; 128
    32f2:	5f e3       	ldi	r21, 0x3F	; 63
    32f4:	6d 81       	ldd	r22, Y+5	; 0x05
    32f6:	7e 81       	ldd	r23, Y+6	; 0x06
    32f8:	8f 81       	ldd	r24, Y+7	; 0x07
    32fa:	98 85       	ldd	r25, Y+8	; 0x08
    32fc:	0e 94 3f 28 	call	0x507e	; 0x507e <__cmpsf2>
    3300:	88 23       	and	r24, r24
    3302:	1c f4       	brge	.+6      	; 0x330a <.L303>

00003304 <.LM387>:
    3304:	81 e0       	ldi	r24, 0x01	; 1
    3306:	8d 87       	std	Y+13, r24	; 0x0d
    3308:	1d c1       	rjmp	.+570    	; 0x3544 <.L248>

0000330a <.L303>:
    330a:	20 e0       	ldi	r18, 0x00	; 0
    330c:	3f ef       	ldi	r19, 0xFF	; 255
    330e:	4f e7       	ldi	r20, 0x7F	; 127
    3310:	57 e4       	ldi	r21, 0x47	; 71
    3312:	69 85       	ldd	r22, Y+9	; 0x09
    3314:	7a 85       	ldd	r23, Y+10	; 0x0a
    3316:	8b 85       	ldd	r24, Y+11	; 0x0b
    3318:	9c 85       	ldd	r25, Y+12	; 0x0c
    331a:	0e 94 5a 29 	call	0x52b4	; 0x52b4 <__gesf2>
    331e:	18 16       	cp	r1, r24
    3320:	0c f0       	brlt	.+2      	; 0x3324 <.LM389>

00003322 <L0^A>:
    3322:	ce c0       	rjmp	.+412    	; 0x34c0 <.L304>

00003324 <.LM389>:
    3324:	20 e0       	ldi	r18, 0x00	; 0
    3326:	30 e0       	ldi	r19, 0x00	; 0
    3328:	4a e7       	ldi	r20, 0x7A	; 122
    332a:	54 e4       	ldi	r21, 0x44	; 68
    332c:	69 81       	ldd	r22, Y+1	; 0x01
    332e:	7a 81       	ldd	r23, Y+2	; 0x02
    3330:	8b 81       	ldd	r24, Y+3	; 0x03
    3332:	9c 81       	ldd	r25, Y+4	; 0x04
    3334:	0e 94 44 28 	call	0x5088	; 0x5088 <__divsf3>
    3338:	ca 5b       	subi	r28, 0xBA	; 186
    333a:	de 4f       	sbci	r29, 0xFE	; 254
    333c:	68 83       	st	Y, r22
    333e:	79 83       	std	Y+1, r23	; 0x01
    3340:	8a 83       	std	Y+2, r24	; 0x02
    3342:	9b 83       	std	Y+3, r25	; 0x03
    3344:	c6 54       	subi	r28, 0x46	; 70
    3346:	d1 40       	sbci	r29, 0x01	; 1
    3348:	ca 5b       	subi	r28, 0xBA	; 186
    334a:	de 4f       	sbci	r29, 0xFE	; 254
    334c:	88 81       	ld	r24, Y
    334e:	99 81       	ldd	r25, Y+1	; 0x01
    3350:	aa 81       	ldd	r26, Y+2	; 0x02
    3352:	bb 81       	ldd	r27, Y+3	; 0x03
    3354:	c6 54       	subi	r28, 0x46	; 70
    3356:	d1 40       	sbci	r29, 0x01	; 1
    3358:	8e 87       	std	Y+14, r24	; 0x0e
    335a:	9f 87       	std	Y+15, r25	; 0x0f
    335c:	a8 8b       	std	Y+16, r26	; 0x10
    335e:	b9 8b       	std	Y+17, r27	; 0x11

00003360 <.LM390>:
    3360:	20 e0       	ldi	r18, 0x00	; 0
    3362:	30 e0       	ldi	r19, 0x00	; 0
    3364:	4a e7       	ldi	r20, 0x7A	; 122
    3366:	55 e4       	ldi	r21, 0x45	; 69
    3368:	6e 85       	ldd	r22, Y+14	; 0x0e
    336a:	7f 85       	ldd	r23, Y+15	; 0x0f
    336c:	88 89       	ldd	r24, Y+16	; 0x10
    336e:	99 89       	ldd	r25, Y+17	; 0x11
    3370:	0e 94 5f 29 	call	0x52be	; 0x52be <__mulsf3>
    3374:	c6 5b       	subi	r28, 0xB6	; 182
    3376:	de 4f       	sbci	r29, 0xFE	; 254
    3378:	68 83       	st	Y, r22
    337a:	79 83       	std	Y+1, r23	; 0x01
    337c:	8a 83       	std	Y+2, r24	; 0x02
    337e:	9b 83       	std	Y+3, r25	; 0x03
    3380:	ca 54       	subi	r28, 0x4A	; 74
    3382:	d1 40       	sbci	r29, 0x01	; 1
    3384:	c6 5b       	subi	r28, 0xB6	; 182
    3386:	de 4f       	sbci	r29, 0xFE	; 254
    3388:	88 81       	ld	r24, Y
    338a:	99 81       	ldd	r25, Y+1	; 0x01
    338c:	aa 81       	ldd	r26, Y+2	; 0x02
    338e:	bb 81       	ldd	r27, Y+3	; 0x03
    3390:	ca 54       	subi	r28, 0x4A	; 74
    3392:	d1 40       	sbci	r29, 0x01	; 1
    3394:	8a 8b       	std	Y+18, r24	; 0x12
    3396:	9b 8b       	std	Y+19, r25	; 0x13
    3398:	ac 8b       	std	Y+20, r26	; 0x14
    339a:	bd 8b       	std	Y+21, r27	; 0x15

0000339c <.LM391>:
    339c:	20 e0       	ldi	r18, 0x00	; 0
    339e:	30 e0       	ldi	r19, 0x00	; 0
    33a0:	40 e8       	ldi	r20, 0x80	; 128
    33a2:	5f e3       	ldi	r21, 0x3F	; 63
    33a4:	6a 89       	ldd	r22, Y+18	; 0x12
    33a6:	7b 89       	ldd	r23, Y+19	; 0x13
    33a8:	8c 89       	ldd	r24, Y+20	; 0x14
    33aa:	9d 89       	ldd	r25, Y+21	; 0x15
    33ac:	0e 94 3f 28 	call	0x507e	; 0x507e <__cmpsf2>
    33b0:	88 23       	and	r24, r24
    33b2:	2c f4       	brge	.+10     	; 0x33be <.L305>

000033b4 <.LM392>:
    33b4:	81 e0       	ldi	r24, 0x01	; 1
    33b6:	90 e0       	ldi	r25, 0x00	; 0
    33b8:	9f 8b       	std	Y+23, r25	; 0x17
    33ba:	8e 8b       	std	Y+22, r24	; 0x16
    33bc:	75 c0       	rjmp	.+234    	; 0x34a8 <.L253>

000033be <.L305>:
    33be:	20 e0       	ldi	r18, 0x00	; 0
    33c0:	3f ef       	ldi	r19, 0xFF	; 255
    33c2:	4f e7       	ldi	r20, 0x7F	; 127
    33c4:	57 e4       	ldi	r21, 0x47	; 71
    33c6:	6a 89       	ldd	r22, Y+18	; 0x12
    33c8:	7b 89       	ldd	r23, Y+19	; 0x13
    33ca:	8c 89       	ldd	r24, Y+20	; 0x14
    33cc:	9d 89       	ldd	r25, Y+21	; 0x15
    33ce:	0e 94 5a 29 	call	0x52b4	; 0x52b4 <__gesf2>
    33d2:	18 16       	cp	r1, r24
    33d4:	0c f0       	brlt	.+2      	; 0x33d8 <.LM394>

000033d6 <L0^A>:
    33d6:	52 c0       	rjmp	.+164    	; 0x347c <.L306>

000033d8 <.LM394>:
    33d8:	20 e0       	ldi	r18, 0x00	; 0
    33da:	30 e0       	ldi	r19, 0x00	; 0
    33dc:	40 e2       	ldi	r20, 0x20	; 32
    33de:	51 e4       	ldi	r21, 0x41	; 65
    33e0:	6e 85       	ldd	r22, Y+14	; 0x0e
    33e2:	7f 85       	ldd	r23, Y+15	; 0x0f
    33e4:	88 89       	ldd	r24, Y+16	; 0x10
    33e6:	99 89       	ldd	r25, Y+17	; 0x11
    33e8:	0e 94 5f 29 	call	0x52be	; 0x52be <__mulsf3>
    33ec:	c2 5b       	subi	r28, 0xB2	; 178
    33ee:	de 4f       	sbci	r29, 0xFE	; 254
    33f0:	68 83       	st	Y, r22
    33f2:	79 83       	std	Y+1, r23	; 0x01
    33f4:	8a 83       	std	Y+2, r24	; 0x02
    33f6:	9b 83       	std	Y+3, r25	; 0x03
    33f8:	ce 54       	subi	r28, 0x4E	; 78
    33fa:	d1 40       	sbci	r29, 0x01	; 1
    33fc:	c2 5b       	subi	r28, 0xB2	; 178
    33fe:	de 4f       	sbci	r29, 0xFE	; 254
    3400:	88 81       	ld	r24, Y
    3402:	99 81       	ldd	r25, Y+1	; 0x01
    3404:	aa 81       	ldd	r26, Y+2	; 0x02
    3406:	bb 81       	ldd	r27, Y+3	; 0x03
    3408:	ce 54       	subi	r28, 0x4E	; 78
    340a:	d1 40       	sbci	r29, 0x01	; 1
    340c:	c6 56       	subi	r28, 0x66	; 102
    340e:	df 4f       	sbci	r29, 0xFF	; 255
    3410:	88 83       	st	Y, r24
    3412:	99 83       	std	Y+1, r25	; 0x01
    3414:	aa 83       	std	Y+2, r26	; 0x02
    3416:	bb 83       	std	Y+3, r27	; 0x03
    3418:	ca 59       	subi	r28, 0x9A	; 154
    341a:	d0 40       	sbci	r29, 0x00	; 0

0000341c <.LM395>:
    341c:	c6 56       	subi	r28, 0x66	; 102
    341e:	df 4f       	sbci	r29, 0xFF	; 255
    3420:	68 81       	ld	r22, Y
    3422:	79 81       	ldd	r23, Y+1	; 0x01
    3424:	8a 81       	ldd	r24, Y+2	; 0x02
    3426:	9b 81       	ldd	r25, Y+3	; 0x03
    3428:	ca 59       	subi	r28, 0x9A	; 154
    342a:	d0 40       	sbci	r29, 0x00	; 0
    342c:	0e 94 b6 28 	call	0x516c	; 0x516c <__fixunssfsi>
    3430:	ce 5a       	subi	r28, 0xAE	; 174
    3432:	de 4f       	sbci	r29, 0xFE	; 254
    3434:	68 83       	st	Y, r22
    3436:	79 83       	std	Y+1, r23	; 0x01
    3438:	8a 83       	std	Y+2, r24	; 0x02
    343a:	9b 83       	std	Y+3, r25	; 0x03
    343c:	c2 55       	subi	r28, 0x52	; 82
    343e:	d1 40       	sbci	r29, 0x01	; 1
    3440:	ce 5a       	subi	r28, 0xAE	; 174
    3442:	de 4f       	sbci	r29, 0xFE	; 254
    3444:	a8 81       	ld	r26, Y
    3446:	b9 81       	ldd	r27, Y+1	; 0x01
    3448:	c2 55       	subi	r28, 0x52	; 82
    344a:	d1 40       	sbci	r29, 0x01	; 1
    344c:	bf 8b       	std	Y+23, r27	; 0x17
    344e:	ae 8b       	std	Y+22, r26	; 0x16

00003450 <.LM396>:
    3450:	10 c0       	rjmp	.+32     	; 0x3472 <.L256>

00003452 <.L257>:
    3452:	80 e9       	ldi	r24, 0x90	; 144
    3454:	91 e0       	ldi	r25, 0x01	; 1
    3456:	99 8f       	std	Y+25, r25	; 0x19
    3458:	88 8f       	std	Y+24, r24	; 0x18

0000345a <.LM397>:
    345a:	88 8d       	ldd	r24, Y+24	; 0x18
    345c:	99 8d       	ldd	r25, Y+25	; 0x19

0000345e <.L1^B45>:
    345e:	01 97       	sbiw	r24, 0x01	; 1
    3460:	f1 f7       	brne	.-4      	; 0x345e <.L1^B45>
    3462:	99 8f       	std	Y+25, r25	; 0x19
    3464:	88 8f       	std	Y+24, r24	; 0x18

00003466 <.LM398>:
	...

00003468 <.LM399>:
    3468:	8e 89       	ldd	r24, Y+22	; 0x16
    346a:	9f 89       	ldd	r25, Y+23	; 0x17
    346c:	01 97       	sbiw	r24, 0x01	; 1
    346e:	9f 8b       	std	Y+23, r25	; 0x17
    3470:	8e 8b       	std	Y+22, r24	; 0x16

00003472 <.L256>:
    3472:	8e 89       	ldd	r24, Y+22	; 0x16
    3474:	9f 89       	ldd	r25, Y+23	; 0x17
    3476:	89 2b       	or	r24, r25
    3478:	61 f7       	brne	.-40     	; 0x3452 <.L257>

0000347a <.LM401>:
    347a:	21 c0       	rjmp	.+66     	; 0x34be <.L258>

0000347c <.L306>:
    347c:	6a 89       	ldd	r22, Y+18	; 0x12
    347e:	7b 89       	ldd	r23, Y+19	; 0x13
    3480:	8c 89       	ldd	r24, Y+20	; 0x14
    3482:	9d 89       	ldd	r25, Y+21	; 0x15
    3484:	0e 94 b6 28 	call	0x516c	; 0x516c <__fixunssfsi>
    3488:	ca 5a       	subi	r28, 0xAA	; 170
    348a:	de 4f       	sbci	r29, 0xFE	; 254
    348c:	68 83       	st	Y, r22
    348e:	79 83       	std	Y+1, r23	; 0x01
    3490:	8a 83       	std	Y+2, r24	; 0x02
    3492:	9b 83       	std	Y+3, r25	; 0x03
    3494:	c6 55       	subi	r28, 0x56	; 86
    3496:	d1 40       	sbci	r29, 0x01	; 1
    3498:	ca 5a       	subi	r28, 0xAA	; 170
    349a:	de 4f       	sbci	r29, 0xFE	; 254
    349c:	e8 81       	ld	r30, Y
    349e:	f9 81       	ldd	r31, Y+1	; 0x01
    34a0:	c6 55       	subi	r28, 0x56	; 86
    34a2:	d1 40       	sbci	r29, 0x01	; 1
    34a4:	ff 8b       	std	Y+23, r31	; 0x17
    34a6:	ee 8b       	std	Y+22, r30	; 0x16

000034a8 <.L253>:
    34a8:	8e 89       	ldd	r24, Y+22	; 0x16
    34aa:	9f 89       	ldd	r25, Y+23	; 0x17
    34ac:	9b 8f       	std	Y+27, r25	; 0x1b
    34ae:	8a 8f       	std	Y+26, r24	; 0x1a

000034b0 <.LM403>:
    34b0:	8a 8d       	ldd	r24, Y+26	; 0x1a
    34b2:	9b 8d       	ldd	r25, Y+27	; 0x1b

000034b4 <.L1^B46>:
    34b4:	01 97       	sbiw	r24, 0x01	; 1
    34b6:	f1 f7       	brne	.-4      	; 0x34b4 <.L1^B46>
    34b8:	9b 8f       	std	Y+27, r25	; 0x1b
    34ba:	8a 8f       	std	Y+26, r24	; 0x1a

000034bc <.LM404>:
	...

000034be <.L258>:
    34be:	49 c0       	rjmp	.+146    	; 0x3552 <.L259>

000034c0 <.L304>:
    34c0:	20 e0       	ldi	r18, 0x00	; 0
    34c2:	30 e0       	ldi	r19, 0x00	; 0
    34c4:	4f e7       	ldi	r20, 0x7F	; 127
    34c6:	53 e4       	ldi	r21, 0x43	; 67
    34c8:	6d 81       	ldd	r22, Y+5	; 0x05
    34ca:	7e 81       	ldd	r23, Y+6	; 0x06
    34cc:	8f 81       	ldd	r24, Y+7	; 0x07
    34ce:	98 85       	ldd	r25, Y+8	; 0x08
    34d0:	0e 94 5a 29 	call	0x52b4	; 0x52b4 <__gesf2>
    34d4:	18 16       	cp	r1, r24
    34d6:	14 f5       	brge	.+68     	; 0x351c <.L307>

000034d8 <.LM407>:
    34d8:	69 85       	ldd	r22, Y+9	; 0x09
    34da:	7a 85       	ldd	r23, Y+10	; 0x0a
    34dc:	8b 85       	ldd	r24, Y+11	; 0x0b
    34de:	9c 85       	ldd	r25, Y+12	; 0x0c
    34e0:	0e 94 b6 28 	call	0x516c	; 0x516c <__fixunssfsi>
    34e4:	c6 5a       	subi	r28, 0xA6	; 166
    34e6:	de 4f       	sbci	r29, 0xFE	; 254
    34e8:	68 83       	st	Y, r22
    34ea:	79 83       	std	Y+1, r23	; 0x01
    34ec:	8a 83       	std	Y+2, r24	; 0x02
    34ee:	9b 83       	std	Y+3, r25	; 0x03
    34f0:	ca 55       	subi	r28, 0x5A	; 90
    34f2:	d1 40       	sbci	r29, 0x01	; 1
    34f4:	c6 5a       	subi	r28, 0xA6	; 166
    34f6:	de 4f       	sbci	r29, 0xFE	; 254
    34f8:	88 81       	ld	r24, Y
    34fa:	99 81       	ldd	r25, Y+1	; 0x01
    34fc:	ca 55       	subi	r28, 0x5A	; 90
    34fe:	d1 40       	sbci	r29, 0x01	; 1
    3500:	9d 8f       	std	Y+29, r25	; 0x1d
    3502:	8c 8f       	std	Y+28, r24	; 0x1c
    3504:	8c 8d       	ldd	r24, Y+28	; 0x1c
    3506:	9d 8d       	ldd	r25, Y+29	; 0x1d
    3508:	9f 8f       	std	Y+31, r25	; 0x1f
    350a:	8e 8f       	std	Y+30, r24	; 0x1e

0000350c <.LM408>:
    350c:	8e 8d       	ldd	r24, Y+30	; 0x1e
    350e:	9f 8d       	ldd	r25, Y+31	; 0x1f

00003510 <.L1^B47>:
    3510:	01 97       	sbiw	r24, 0x01	; 1
    3512:	f1 f7       	brne	.-4      	; 0x3510 <.L1^B47>
    3514:	9f 8f       	std	Y+31, r25	; 0x1f
    3516:	8e 8f       	std	Y+30, r24	; 0x1e

00003518 <.LM409>:
	...

0000351a <.LM410>:
    351a:	1b c0       	rjmp	.+54     	; 0x3552 <.L259>

0000351c <.L307>:
    351c:	6d 81       	ldd	r22, Y+5	; 0x05
    351e:	7e 81       	ldd	r23, Y+6	; 0x06
    3520:	8f 81       	ldd	r24, Y+7	; 0x07
    3522:	98 85       	ldd	r25, Y+8	; 0x08
    3524:	0e 94 b6 28 	call	0x516c	; 0x516c <__fixunssfsi>
    3528:	c2 5a       	subi	r28, 0xA2	; 162
    352a:	de 4f       	sbci	r29, 0xFE	; 254
    352c:	68 83       	st	Y, r22
    352e:	79 83       	std	Y+1, r23	; 0x01
    3530:	8a 83       	std	Y+2, r24	; 0x02
    3532:	9b 83       	std	Y+3, r25	; 0x03
    3534:	ce 55       	subi	r28, 0x5E	; 94
    3536:	d1 40       	sbci	r29, 0x01	; 1
    3538:	c2 5a       	subi	r28, 0xA2	; 162
    353a:	de 4f       	sbci	r29, 0xFE	; 254
    353c:	98 81       	ld	r25, Y
    353e:	ce 55       	subi	r28, 0x5E	; 94
    3540:	d1 40       	sbci	r29, 0x01	; 1
    3542:	9d 87       	std	Y+13, r25	; 0x0d

00003544 <.L248>:
    3544:	8d 85       	ldd	r24, Y+13	; 0x0d
    3546:	88 a3       	std	Y+32, r24	; 0x20

00003548 <.LM412>:
    3548:	88 a1       	ldd	r24, Y+32	; 0x20

0000354a <.L1^B48>:
    354a:	8a 95       	dec	r24
    354c:	f1 f7       	brne	.-4      	; 0x354a <.L1^B48>
    354e:	88 a3       	std	Y+32, r24	; 0x20

00003550 <.LM413>:
	...

00003552 <.L259>:
    3552:	00 00       	nop
    3554:	cf 59       	subi	r28, 0x9F	; 159
    3556:	de 4f       	sbci	r29, 0xFE	; 254
    3558:	0f b6       	in	r0, 0x3f	; 63
    355a:	f8 94       	cli
    355c:	de bf       	out	0x3e, r29	; 62
    355e:	0f be       	out	0x3f, r0	; 63
    3560:	cd bf       	out	0x3d, r28	; 61
    3562:	df 91       	pop	r29
    3564:	cf 91       	pop	r28
    3566:	1f 91       	pop	r17
    3568:	0f 91       	pop	r16
    356a:	08 95       	ret

0000356c <LCD_displayString>:
    356c:	cf 93       	push	r28
    356e:	df 93       	push	r29
    3570:	00 d0       	rcall	.+0      	; 0x3572 <L0^A>

00003572 <L0^A>:
    3572:	0f 92       	push	r0
    3574:	cd b7       	in	r28, 0x3d	; 61
    3576:	de b7       	in	r29, 0x3e	; 62
    3578:	9b 83       	std	Y+3, r25	; 0x03
    357a:	8a 83       	std	Y+2, r24	; 0x02

0000357c <.LM416>:
    357c:	19 82       	std	Y+1, r1	; 0x01

0000357e <.LM417>:
    357e:	0e c0       	rjmp	.+28     	; 0x359c <.L309>

00003580 <.L310>:
    3580:	89 81       	ldd	r24, Y+1	; 0x01
    3582:	88 2f       	mov	r24, r24
    3584:	90 e0       	ldi	r25, 0x00	; 0
    3586:	2a 81       	ldd	r18, Y+2	; 0x02
    3588:	3b 81       	ldd	r19, Y+3	; 0x03
    358a:	82 0f       	add	r24, r18
    358c:	93 1f       	adc	r25, r19

0000358e <.LM419>:
    358e:	fc 01       	movw	r30, r24
    3590:	80 81       	ld	r24, Z
    3592:	0e 94 d1 10 	call	0x21a2	; 0x21a2 <LCD_displayCharacter>

00003596 <.LM420>:
    3596:	89 81       	ldd	r24, Y+1	; 0x01
    3598:	8f 5f       	subi	r24, 0xFF	; 255
    359a:	89 83       	std	Y+1, r24	; 0x01

0000359c <.L309>:
    359c:	89 81       	ldd	r24, Y+1	; 0x01
    359e:	88 2f       	mov	r24, r24
    35a0:	90 e0       	ldi	r25, 0x00	; 0
    35a2:	2a 81       	ldd	r18, Y+2	; 0x02
    35a4:	3b 81       	ldd	r19, Y+3	; 0x03
    35a6:	82 0f       	add	r24, r18
    35a8:	93 1f       	adc	r25, r19
    35aa:	fc 01       	movw	r30, r24
    35ac:	80 81       	ld	r24, Z

000035ae <.LM422>:
    35ae:	88 23       	and	r24, r24
    35b0:	39 f7       	brne	.-50     	; 0x3580 <.L310>

000035b2 <.LM423>:
    35b2:	00 00       	nop
    35b4:	00 00       	nop
    35b6:	0f 90       	pop	r0
    35b8:	0f 90       	pop	r0
    35ba:	0f 90       	pop	r0
    35bc:	df 91       	pop	r29
    35be:	cf 91       	pop	r28
    35c0:	08 95       	ret

000035c2 <LCD_integerToString>:
    35c2:	cf 93       	push	r28
    35c4:	df 93       	push	r29
    35c6:	cd b7       	in	r28, 0x3d	; 61
    35c8:	de b7       	in	r29, 0x3e	; 62
    35ca:	62 97       	sbiw	r28, 0x12	; 18
    35cc:	0f b6       	in	r0, 0x3f	; 63
    35ce:	f8 94       	cli
    35d0:	de bf       	out	0x3e, r29	; 62
    35d2:	0f be       	out	0x3f, r0	; 63
    35d4:	cd bf       	out	0x3d, r28	; 61
    35d6:	9a 8b       	std	Y+18, r25	; 0x12
    35d8:	89 8b       	std	Y+17, r24	; 0x11

000035da <.LM425>:
    35da:	89 89       	ldd	r24, Y+17	; 0x11
    35dc:	9a 89       	ldd	r25, Y+18	; 0x12
    35de:	4a e0       	ldi	r20, 0x0A	; 10
    35e0:	50 e0       	ldi	r21, 0x00	; 0
    35e2:	9e 01       	movw	r18, r28
    35e4:	2f 5f       	subi	r18, 0xFF	; 255
    35e6:	3f 4f       	sbci	r19, 0xFF	; 255
    35e8:	b9 01       	movw	r22, r18
    35ea:	0e 94 cc 29 	call	0x5398	; 0x5398 <itoa>

000035ee <.LM426>:
    35ee:	ce 01       	movw	r24, r28
    35f0:	01 96       	adiw	r24, 0x01	; 1
    35f2:	0e 94 b6 1a 	call	0x356c	; 0x356c <LCD_displayString>

000035f6 <.LM427>:
    35f6:	00 00       	nop
    35f8:	62 96       	adiw	r28, 0x12	; 18
    35fa:	0f b6       	in	r0, 0x3f	; 63
    35fc:	f8 94       	cli
    35fe:	de bf       	out	0x3e, r29	; 62
    3600:	0f be       	out	0x3f, r0	; 63
    3602:	cd bf       	out	0x3d, r28	; 61
    3604:	df 91       	pop	r29
    3606:	cf 91       	pop	r28
    3608:	08 95       	ret

0000360a <LCD_moveCursor>:
    360a:	cf 93       	push	r28
    360c:	df 93       	push	r29
    360e:	00 d0       	rcall	.+0      	; 0x3610 <L0^A>

00003610 <L0^A>:
    3610:	0f 92       	push	r0
    3612:	cd b7       	in	r28, 0x3d	; 61
    3614:	de b7       	in	r29, 0x3e	; 62
    3616:	8a 83       	std	Y+2, r24	; 0x02
    3618:	6b 83       	std	Y+3, r22	; 0x03

0000361a <.LM429>:
    361a:	8a 81       	ldd	r24, Y+2	; 0x02
    361c:	88 2f       	mov	r24, r24
    361e:	90 e0       	ldi	r25, 0x00	; 0
    3620:	83 30       	cpi	r24, 0x03	; 3
    3622:	91 05       	cpc	r25, r1
    3624:	c9 f0       	breq	.+50     	; 0x3658 <.L313>
    3626:	84 30       	cpi	r24, 0x04	; 4
    3628:	91 05       	cpc	r25, r1
    362a:	d4 f4       	brge	.+52     	; 0x3660 <.L314>
    362c:	82 30       	cpi	r24, 0x02	; 2
    362e:	91 05       	cpc	r25, r1
    3630:	79 f0       	breq	.+30     	; 0x3650 <.L315>
    3632:	83 30       	cpi	r24, 0x03	; 3
    3634:	91 05       	cpc	r25, r1
    3636:	a4 f4       	brge	.+40     	; 0x3660 <.L314>
    3638:	00 97       	sbiw	r24, 0x00	; 0
    363a:	19 f0       	breq	.+6      	; 0x3642 <.L316>
    363c:	01 97       	sbiw	r24, 0x01	; 1
    363e:	21 f0       	breq	.+8      	; 0x3648 <.L317>
    3640:	0f c0       	rjmp	.+30     	; 0x3660 <.L314>

00003642 <.L316>:
    3642:	8b 81       	ldd	r24, Y+3	; 0x03
    3644:	89 83       	std	Y+1, r24	; 0x01

00003646 <.LM431>:
    3646:	0c c0       	rjmp	.+24     	; 0x3660 <.L314>

00003648 <.L317>:
    3648:	8b 81       	ldd	r24, Y+3	; 0x03
    364a:	80 5c       	subi	r24, 0xC0	; 192
    364c:	89 83       	std	Y+1, r24	; 0x01

0000364e <.LM433>:
    364e:	08 c0       	rjmp	.+16     	; 0x3660 <.L314>

00003650 <.L315>:
    3650:	8b 81       	ldd	r24, Y+3	; 0x03
    3652:	80 5f       	subi	r24, 0xF0	; 240
    3654:	89 83       	std	Y+1, r24	; 0x01

00003656 <.LM435>:
    3656:	04 c0       	rjmp	.+8      	; 0x3660 <.L314>

00003658 <.L313>:
    3658:	8b 81       	ldd	r24, Y+3	; 0x03
    365a:	80 5c       	subi	r24, 0xC0	; 192
    365c:	89 83       	std	Y+1, r24	; 0x01

0000365e <.LM437>:
	...

00003660 <.L314>:
    3660:	89 81       	ldd	r24, Y+1	; 0x01
    3662:	80 68       	ori	r24, 0x80	; 128
    3664:	0e 94 ba 04 	call	0x974	; 0x974 <LCD_sendCommand>

00003668 <.LM439>:
    3668:	00 00       	nop
    366a:	0f 90       	pop	r0
    366c:	0f 90       	pop	r0
    366e:	0f 90       	pop	r0
    3670:	df 91       	pop	r29
    3672:	cf 91       	pop	r28
    3674:	08 95       	ret

00003676 <LCD_displayStringRowColumn>:
    3676:	cf 93       	push	r28
    3678:	df 93       	push	r29
    367a:	00 d0       	rcall	.+0      	; 0x367c <L0^A>

0000367c <L0^A>:
    367c:	00 d0       	rcall	.+0      	; 0x367e <L0^A>

0000367e <L0^A>:
    367e:	cd b7       	in	r28, 0x3d	; 61
    3680:	de b7       	in	r29, 0x3e	; 62
    3682:	89 83       	std	Y+1, r24	; 0x01
    3684:	6a 83       	std	Y+2, r22	; 0x02
    3686:	5c 83       	std	Y+4, r21	; 0x04
    3688:	4b 83       	std	Y+3, r20	; 0x03

0000368a <.LM441>:
    368a:	6a 81       	ldd	r22, Y+2	; 0x02
    368c:	89 81       	ldd	r24, Y+1	; 0x01
    368e:	0e 94 05 1b 	call	0x360a	; 0x360a <LCD_moveCursor>

00003692 <.LM442>:
    3692:	8b 81       	ldd	r24, Y+3	; 0x03
    3694:	9c 81       	ldd	r25, Y+4	; 0x04
    3696:	0e 94 b6 1a 	call	0x356c	; 0x356c <LCD_displayString>

0000369a <.LM443>:
    369a:	00 00       	nop
    369c:	0f 90       	pop	r0
    369e:	0f 90       	pop	r0
    36a0:	0f 90       	pop	r0
    36a2:	0f 90       	pop	r0
    36a4:	df 91       	pop	r29
    36a6:	cf 91       	pop	r28
    36a8:	08 95       	ret

000036aa <LCD_clearScreen>:
    36aa:	cf 93       	push	r28
    36ac:	df 93       	push	r29
    36ae:	cd b7       	in	r28, 0x3d	; 61
    36b0:	de b7       	in	r29, 0x3e	; 62

000036b2 <.LM445>:
    36b2:	81 e0       	ldi	r24, 0x01	; 1
    36b4:	0e 94 ba 04 	call	0x974	; 0x974 <LCD_sendCommand>

000036b8 <.LM446>:
    36b8:	00 00       	nop
    36ba:	df 91       	pop	r29
    36bc:	cf 91       	pop	r28
    36be:	08 95       	ret

000036c0 <KEYPAD_getPressedKey>:
    36c0:	cf 93       	push	r28
    36c2:	df 93       	push	r29
    36c4:	00 d0       	rcall	.+0      	; 0x36c6 <L0^A>

000036c6 <L0^A>:
    36c6:	cd b7       	in	r28, 0x3d	; 61
    36c8:	de b7       	in	r29, 0x3e	; 62

000036ca <.LM1>:
    36ca:	40 e0       	ldi	r20, 0x00	; 0
    36cc:	64 e0       	ldi	r22, 0x04	; 4
    36ce:	81 e0       	ldi	r24, 0x01	; 1
    36d0:	0e 94 49 00 	call	0x92	; 0x92 <GPIO_setupPinDirection>

000036d4 <.LM2>:
    36d4:	40 e0       	ldi	r20, 0x00	; 0
    36d6:	65 e0       	ldi	r22, 0x05	; 5
    36d8:	81 e0       	ldi	r24, 0x01	; 1
    36da:	0e 94 49 00 	call	0x92	; 0x92 <GPIO_setupPinDirection>

000036de <.LM3>:
    36de:	40 e0       	ldi	r20, 0x00	; 0
    36e0:	66 e0       	ldi	r22, 0x06	; 6
    36e2:	81 e0       	ldi	r24, 0x01	; 1
    36e4:	0e 94 49 00 	call	0x92	; 0x92 <GPIO_setupPinDirection>

000036e8 <.LM4>:
    36e8:	40 e0       	ldi	r20, 0x00	; 0
    36ea:	67 e0       	ldi	r22, 0x07	; 7
    36ec:	81 e0       	ldi	r24, 0x01	; 1
    36ee:	0e 94 49 00 	call	0x92	; 0x92 <GPIO_setupPinDirection>

000036f2 <.LM5>:
    36f2:	40 e0       	ldi	r20, 0x00	; 0
    36f4:	62 e0       	ldi	r22, 0x02	; 2
    36f6:	83 e0       	ldi	r24, 0x03	; 3
    36f8:	0e 94 49 00 	call	0x92	; 0x92 <GPIO_setupPinDirection>

000036fc <.LM6>:
    36fc:	40 e0       	ldi	r20, 0x00	; 0
    36fe:	63 e0       	ldi	r22, 0x03	; 3
    3700:	83 e0       	ldi	r24, 0x03	; 3
    3702:	0e 94 49 00 	call	0x92	; 0x92 <GPIO_setupPinDirection>

00003706 <.LM7>:
    3706:	40 e0       	ldi	r20, 0x00	; 0
    3708:	64 e0       	ldi	r22, 0x04	; 4
    370a:	83 e0       	ldi	r24, 0x03	; 3
    370c:	0e 94 49 00 	call	0x92	; 0x92 <GPIO_setupPinDirection>

00003710 <.LM8>:
    3710:	40 e0       	ldi	r20, 0x00	; 0
    3712:	65 e0       	ldi	r22, 0x05	; 5
    3714:	81 e0       	ldi	r24, 0x01	; 1
    3716:	0e 94 49 00 	call	0x92	; 0x92 <GPIO_setupPinDirection>

0000371a <.L8>:
    371a:	19 82       	std	Y+1, r1	; 0x01

0000371c <.LM10>:
    371c:	30 c0       	rjmp	.+96     	; 0x377e <.L2>

0000371e <.L7>:
    371e:	89 81       	ldd	r24, Y+1	; 0x01
    3720:	8c 5f       	subi	r24, 0xFC	; 252
    3722:	41 e0       	ldi	r20, 0x01	; 1
    3724:	68 2f       	mov	r22, r24
    3726:	81 e0       	ldi	r24, 0x01	; 1
    3728:	0e 94 49 00 	call	0x92	; 0x92 <GPIO_setupPinDirection>

0000372c <.LM12>:
    372c:	89 81       	ldd	r24, Y+1	; 0x01
    372e:	8c 5f       	subi	r24, 0xFC	; 252
    3730:	40 e0       	ldi	r20, 0x00	; 0
    3732:	68 2f       	mov	r22, r24
    3734:	81 e0       	ldi	r24, 0x01	; 1
    3736:	0e 94 6e 01 	call	0x2dc	; 0x2dc <GPIO_writePin>

0000373a <.LM13>:
    373a:	1a 82       	std	Y+2, r1	; 0x02

0000373c <.LM14>:
    373c:	13 c0       	rjmp	.+38     	; 0x3764 <.L3>

0000373e <.L6>:
    373e:	8a 81       	ldd	r24, Y+2	; 0x02
    3740:	8e 5f       	subi	r24, 0xFE	; 254
    3742:	68 2f       	mov	r22, r24
    3744:	83 e0       	ldi	r24, 0x03	; 3
    3746:	0e 94 9a 02 	call	0x534	; 0x534 <GPIO_readPin>

0000374a <.LM16>:
    374a:	88 23       	and	r24, r24
    374c:	41 f4       	brne	.+16     	; 0x375e <.L4>

0000374e <.LM17>:
    374e:	89 81       	ldd	r24, Y+1	; 0x01
    3750:	98 2f       	mov	r25, r24
    3752:	99 0f       	add	r25, r25
    3754:	99 0f       	add	r25, r25
    3756:	8a 81       	ldd	r24, Y+2	; 0x02
    3758:	89 0f       	add	r24, r25

0000375a <.LM18>:
    375a:	8f 5f       	subi	r24, 0xFF	; 255
    375c:	14 c0       	rjmp	.+40     	; 0x3786 <.L9>

0000375e <.L4>:
    375e:	8a 81       	ldd	r24, Y+2	; 0x02
    3760:	8f 5f       	subi	r24, 0xFF	; 255
    3762:	8a 83       	std	Y+2, r24	; 0x02

00003764 <.L3>:
    3764:	8a 81       	ldd	r24, Y+2	; 0x02
    3766:	84 30       	cpi	r24, 0x04	; 4
    3768:	50 f3       	brcs	.-44     	; 0x373e <.L6>

0000376a <.LM21>:
    376a:	89 81       	ldd	r24, Y+1	; 0x01
    376c:	8c 5f       	subi	r24, 0xFC	; 252
    376e:	40 e0       	ldi	r20, 0x00	; 0
    3770:	68 2f       	mov	r22, r24
    3772:	81 e0       	ldi	r24, 0x01	; 1
    3774:	0e 94 49 00 	call	0x92	; 0x92 <GPIO_setupPinDirection>

00003778 <.LM22>:
    3778:	89 81       	ldd	r24, Y+1	; 0x01
    377a:	8f 5f       	subi	r24, 0xFF	; 255
    377c:	89 83       	std	Y+1, r24	; 0x01

0000377e <.L2>:
    377e:	89 81       	ldd	r24, Y+1	; 0x01
    3780:	84 30       	cpi	r24, 0x04	; 4
    3782:	68 f2       	brcs	.-102    	; 0x371e <.L7>

00003784 <.LM24>:
    3784:	ca cf       	rjmp	.-108    	; 0x371a <.L8>

00003786 <.L9>:
    3786:	0f 90       	pop	r0
    3788:	0f 90       	pop	r0
    378a:	df 91       	pop	r29
    378c:	cf 91       	pop	r28
    378e:	08 95       	ret

00003790 <APP_voidInit>:
    3790:	cf 93       	push	r28
    3792:	df 93       	push	r29
    3794:	cd b7       	in	r28, 0x3d	; 61
    3796:	de b7       	in	r29, 0x3e	; 62

00003798 <.LM1>:
    3798:	0e 94 54 03 	call	0x6a8	; 0x6a8 <LCD_init>

0000379c <.LM2>:
    379c:	00 00       	nop
    379e:	df 91       	pop	r29
    37a0:	cf 91       	pop	r28
    37a2:	08 95       	ret

000037a4 <APP_WelcomeScreen>:
    37a4:	0f 93       	push	r16
    37a6:	1f 93       	push	r17
    37a8:	cf 93       	push	r28
    37aa:	df 93       	push	r29
    37ac:	cd b7       	in	r28, 0x3d	; 61
    37ae:	de b7       	in	r29, 0x3e	; 62
    37b0:	ca 5a       	subi	r28, 0xAA	; 170
    37b2:	d1 09       	sbc	r29, r1
    37b4:	0f b6       	in	r0, 0x3f	; 63
    37b6:	f8 94       	cli
    37b8:	de bf       	out	0x3e, r29	; 62
    37ba:	0f be       	out	0x3f, r0	; 63
    37bc:	cd bf       	out	0x3d, r28	; 61

000037be <.LM4>:
    37be:	80 e6       	ldi	r24, 0x60	; 96
    37c0:	90 e0       	ldi	r25, 0x00	; 0
    37c2:	0e 94 b6 1a 	call	0x356c	; 0x356c <LCD_displayString>
    37c6:	80 e0       	ldi	r24, 0x00	; 0
    37c8:	90 e8       	ldi	r25, 0x80	; 128
    37ca:	ab e3       	ldi	r26, 0x3B	; 59
    37cc:	b5 e4       	ldi	r27, 0x45	; 69
    37ce:	89 af       	std	Y+57, r24	; 0x39
    37d0:	9a af       	std	Y+58, r25	; 0x3a
    37d2:	ab af       	std	Y+59, r26	; 0x3b
    37d4:	bc af       	std	Y+60, r27	; 0x3c

000037d6 <.LM5>:
    37d6:	20 e0       	ldi	r18, 0x00	; 0
    37d8:	30 e0       	ldi	r19, 0x00	; 0
    37da:	4a e7       	ldi	r20, 0x7A	; 122
    37dc:	55 e4       	ldi	r21, 0x45	; 69
    37de:	69 ad       	ldd	r22, Y+57	; 0x39
    37e0:	7a ad       	ldd	r23, Y+58	; 0x3a
    37e2:	8b ad       	ldd	r24, Y+59	; 0x3b
    37e4:	9c ad       	ldd	r25, Y+60	; 0x3c
    37e6:	0e 94 5f 29 	call	0x52be	; 0x52be <__mulsf3>
    37ea:	6f 96       	adiw	r28, 0x1f	; 31
    37ec:	6c af       	std	Y+60, r22	; 0x3c
    37ee:	7d af       	std	Y+61, r23	; 0x3d
    37f0:	8e af       	std	Y+62, r24	; 0x3e
    37f2:	9f af       	std	Y+63, r25	; 0x3f
    37f4:	6f 97       	sbiw	r28, 0x1f	; 31
    37f6:	ce 01       	movw	r24, r28
    37f8:	cd 96       	adiw	r24, 0x3d	; 61
    37fa:	6f 96       	adiw	r28, 0x1f	; 31
    37fc:	2c ad       	ldd	r18, Y+60	; 0x3c
    37fe:	3d ad       	ldd	r19, Y+61	; 0x3d
    3800:	4e ad       	ldd	r20, Y+62	; 0x3e
    3802:	5f ad       	ldd	r21, Y+63	; 0x3f
    3804:	6f 97       	sbiw	r28, 0x1f	; 31
    3806:	dc 01       	movw	r26, r24
    3808:	2d 93       	st	X+, r18
    380a:	3d 93       	st	X+, r19
    380c:	4d 93       	st	X+, r20
    380e:	5c 93       	st	X, r21
    3810:	13 97       	sbiw	r26, 0x03	; 3

00003812 <.LM6>:
    3812:	20 e0       	ldi	r18, 0x00	; 0
    3814:	30 e0       	ldi	r19, 0x00	; 0
    3816:	40 e8       	ldi	r20, 0x80	; 128
    3818:	5f e3       	ldi	r21, 0x3F	; 63
    381a:	ce 01       	movw	r24, r28
    381c:	cd 96       	adiw	r24, 0x3d	; 61
    381e:	fc 01       	movw	r30, r24
    3820:	60 81       	ld	r22, Z
    3822:	71 81       	ldd	r23, Z+1	; 0x01
    3824:	82 81       	ldd	r24, Z+2	; 0x02
    3826:	93 81       	ldd	r25, Z+3	; 0x03
    3828:	0e 94 3f 28 	call	0x507e	; 0x507e <__cmpsf2>
    382c:	88 23       	and	r24, r24
    382e:	4c f4       	brge	.+18     	; 0x3842 <.L53>

00003830 <.LM7>:
    3830:	ce 01       	movw	r24, r28
    3832:	8f 5b       	subi	r24, 0xBF	; 191
    3834:	9f 4f       	sbci	r25, 0xFF	; 255
    3836:	21 e0       	ldi	r18, 0x01	; 1
    3838:	30 e0       	ldi	r19, 0x00	; 0
    383a:	dc 01       	movw	r26, r24
    383c:	2d 93       	st	X+, r18
    383e:	3c 93       	st	X, r19
    3840:	8c c0       	rjmp	.+280    	; 0x395a <.L5>

00003842 <.L53>:
    3842:	20 e0       	ldi	r18, 0x00	; 0
    3844:	3f ef       	ldi	r19, 0xFF	; 255
    3846:	4f e7       	ldi	r20, 0x7F	; 127
    3848:	57 e4       	ldi	r21, 0x47	; 71
    384a:	ce 01       	movw	r24, r28
    384c:	cd 96       	adiw	r24, 0x3d	; 61
    384e:	fc 01       	movw	r30, r24
    3850:	60 81       	ld	r22, Z
    3852:	71 81       	ldd	r23, Z+1	; 0x01
    3854:	82 81       	ldd	r24, Z+2	; 0x02
    3856:	93 81       	ldd	r25, Z+3	; 0x03
    3858:	0e 94 5a 29 	call	0x52b4	; 0x52b4 <__gesf2>
    385c:	18 16       	cp	r1, r24
    385e:	0c f0       	brlt	.+2      	; 0x3862 <.LM9>

00003860 <L0^A>:
    3860:	63 c0       	rjmp	.+198    	; 0x3928 <.L54>

00003862 <.LM9>:
    3862:	20 e0       	ldi	r18, 0x00	; 0
    3864:	30 e0       	ldi	r19, 0x00	; 0
    3866:	40 e2       	ldi	r20, 0x20	; 32
    3868:	51 e4       	ldi	r21, 0x41	; 65
    386a:	69 ad       	ldd	r22, Y+57	; 0x39
    386c:	7a ad       	ldd	r23, Y+58	; 0x3a
    386e:	8b ad       	ldd	r24, Y+59	; 0x3b
    3870:	9c ad       	ldd	r25, Y+60	; 0x3c
    3872:	0e 94 5f 29 	call	0x52be	; 0x52be <__mulsf3>
    3876:	a3 96       	adiw	r28, 0x23	; 35
    3878:	6c af       	std	Y+60, r22	; 0x3c
    387a:	7d af       	std	Y+61, r23	; 0x3d
    387c:	8e af       	std	Y+62, r24	; 0x3e
    387e:	9f af       	std	Y+63, r25	; 0x3f
    3880:	a3 97       	sbiw	r28, 0x23	; 35
    3882:	a3 96       	adiw	r28, 0x23	; 35
    3884:	2c ad       	ldd	r18, Y+60	; 0x3c
    3886:	3d ad       	ldd	r19, Y+61	; 0x3d
    3888:	4e ad       	ldd	r20, Y+62	; 0x3e
    388a:	5f ad       	ldd	r21, Y+63	; 0x3f
    388c:	a3 97       	sbiw	r28, 0x23	; 35
    388e:	6b 96       	adiw	r28, 0x1b	; 27
    3890:	2c af       	std	Y+60, r18	; 0x3c
    3892:	3d af       	std	Y+61, r19	; 0x3d
    3894:	4e af       	std	Y+62, r20	; 0x3e
    3896:	5f af       	std	Y+63, r21	; 0x3f
    3898:	6b 97       	sbiw	r28, 0x1b	; 27

0000389a <.LM10>:
    389a:	8e 01       	movw	r16, r28
    389c:	0f 5b       	subi	r16, 0xBF	; 191
    389e:	1f 4f       	sbci	r17, 0xFF	; 255
    38a0:	6b 96       	adiw	r28, 0x1b	; 27
    38a2:	6c ad       	ldd	r22, Y+60	; 0x3c
    38a4:	7d ad       	ldd	r23, Y+61	; 0x3d
    38a6:	8e ad       	ldd	r24, Y+62	; 0x3e
    38a8:	9f ad       	ldd	r25, Y+63	; 0x3f
    38aa:	6b 97       	sbiw	r28, 0x1b	; 27
    38ac:	0e 94 b6 28 	call	0x516c	; 0x516c <__fixunssfsi>
    38b0:	a7 96       	adiw	r28, 0x27	; 39
    38b2:	6c af       	std	Y+60, r22	; 0x3c
    38b4:	7d af       	std	Y+61, r23	; 0x3d
    38b6:	8e af       	std	Y+62, r24	; 0x3e
    38b8:	9f af       	std	Y+63, r25	; 0x3f
    38ba:	a7 97       	sbiw	r28, 0x27	; 39
    38bc:	a5 96       	adiw	r28, 0x25	; 37
    38be:	ee ad       	ldd	r30, Y+62	; 0x3e
    38c0:	ff ad       	ldd	r31, Y+63	; 0x3f
    38c2:	a5 97       	sbiw	r28, 0x25	; 37
    38c4:	d8 01       	movw	r26, r16
    38c6:	ed 93       	st	X+, r30
    38c8:	fc 93       	st	X, r31

000038ca <.LM11>:
    38ca:	25 c0       	rjmp	.+74     	; 0x3916 <.L8>

000038cc <.L9>:
    38cc:	ce 01       	movw	r24, r28
    38ce:	8d 5b       	subi	r24, 0xBD	; 189
    38d0:	9f 4f       	sbci	r25, 0xFF	; 255
    38d2:	20 e9       	ldi	r18, 0x90	; 144
    38d4:	31 e0       	ldi	r19, 0x01	; 1
    38d6:	dc 01       	movw	r26, r24
    38d8:	2d 93       	st	X+, r18
    38da:	3c 93       	st	X, r19

000038dc <.LM12>:
    38dc:	ce 01       	movw	r24, r28
    38de:	8d 5b       	subi	r24, 0xBD	; 189
    38e0:	9f 4f       	sbci	r25, 0xFF	; 255
    38e2:	fc 01       	movw	r30, r24
    38e4:	80 81       	ld	r24, Z
    38e6:	91 81       	ldd	r25, Z+1	; 0x01

000038e8 <.L1^B1>:
    38e8:	01 97       	sbiw	r24, 0x01	; 1
    38ea:	f1 f7       	brne	.-4      	; 0x38e8 <.L1^B1>
    38ec:	9e 01       	movw	r18, r28
    38ee:	2d 5b       	subi	r18, 0xBD	; 189
    38f0:	3f 4f       	sbci	r19, 0xFF	; 255
    38f2:	d9 01       	movw	r26, r18
    38f4:	8d 93       	st	X+, r24
    38f6:	9c 93       	st	X, r25

000038f8 <.LM13>:
	...

000038fa <.LM14>:
    38fa:	ce 01       	movw	r24, r28
    38fc:	8f 5b       	subi	r24, 0xBF	; 191
    38fe:	9f 4f       	sbci	r25, 0xFF	; 255
    3900:	9e 01       	movw	r18, r28
    3902:	2f 5b       	subi	r18, 0xBF	; 191
    3904:	3f 4f       	sbci	r19, 0xFF	; 255
    3906:	f9 01       	movw	r30, r18
    3908:	20 81       	ld	r18, Z
    390a:	31 81       	ldd	r19, Z+1	; 0x01
    390c:	21 50       	subi	r18, 0x01	; 1
    390e:	31 09       	sbc	r19, r1
    3910:	dc 01       	movw	r26, r24
    3912:	2d 93       	st	X+, r18
    3914:	3c 93       	st	X, r19

00003916 <.L8>:
    3916:	ce 01       	movw	r24, r28
    3918:	8f 5b       	subi	r24, 0xBF	; 191
    391a:	9f 4f       	sbci	r25, 0xFF	; 255
    391c:	fc 01       	movw	r30, r24
    391e:	80 81       	ld	r24, Z
    3920:	91 81       	ldd	r25, Z+1	; 0x01
    3922:	89 2b       	or	r24, r25
    3924:	99 f6       	brne	.-90     	; 0x38cc <.L9>

00003926 <.LM16>:
    3926:	34 c0       	rjmp	.+104    	; 0x3990 <.L10>

00003928 <.L54>:
    3928:	8e 01       	movw	r16, r28
    392a:	0f 5b       	subi	r16, 0xBF	; 191
    392c:	1f 4f       	sbci	r17, 0xFF	; 255
    392e:	ce 01       	movw	r24, r28
    3930:	cd 96       	adiw	r24, 0x3d	; 61
    3932:	dc 01       	movw	r26, r24
    3934:	6d 91       	ld	r22, X+
    3936:	7d 91       	ld	r23, X+
    3938:	8d 91       	ld	r24, X+
    393a:	9c 91       	ld	r25, X
    393c:	0e 94 b6 28 	call	0x516c	; 0x516c <__fixunssfsi>
    3940:	ab 96       	adiw	r28, 0x2b	; 43
    3942:	6c af       	std	Y+60, r22	; 0x3c
    3944:	7d af       	std	Y+61, r23	; 0x3d
    3946:	8e af       	std	Y+62, r24	; 0x3e
    3948:	9f af       	std	Y+63, r25	; 0x3f
    394a:	ab 97       	sbiw	r28, 0x2b	; 43
    394c:	a9 96       	adiw	r28, 0x29	; 41
    394e:	2e ad       	ldd	r18, Y+62	; 0x3e
    3950:	3f ad       	ldd	r19, Y+63	; 0x3f
    3952:	a9 97       	sbiw	r28, 0x29	; 41
    3954:	f8 01       	movw	r30, r16
    3956:	31 83       	std	Z+1, r19	; 0x01
    3958:	20 83       	st	Z, r18

0000395a <.L5>:
    395a:	ce 01       	movw	r24, r28
    395c:	8b 5b       	subi	r24, 0xBB	; 187
    395e:	9f 4f       	sbci	r25, 0xFF	; 255
    3960:	9e 01       	movw	r18, r28
    3962:	2f 5b       	subi	r18, 0xBF	; 191
    3964:	3f 4f       	sbci	r19, 0xFF	; 255
    3966:	d9 01       	movw	r26, r18
    3968:	2d 91       	ld	r18, X+
    396a:	3c 91       	ld	r19, X
    396c:	fc 01       	movw	r30, r24
    396e:	31 83       	std	Z+1, r19	; 0x01
    3970:	20 83       	st	Z, r18

00003972 <.LM18>:
    3972:	ce 01       	movw	r24, r28
    3974:	8b 5b       	subi	r24, 0xBB	; 187
    3976:	9f 4f       	sbci	r25, 0xFF	; 255
    3978:	dc 01       	movw	r26, r24
    397a:	8d 91       	ld	r24, X+
    397c:	9c 91       	ld	r25, X

0000397e <.L1^B2>:
    397e:	01 97       	sbiw	r24, 0x01	; 1
    3980:	f1 f7       	brne	.-4      	; 0x397e <.L1^B2>
    3982:	9e 01       	movw	r18, r28
    3984:	2b 5b       	subi	r18, 0xBB	; 187
    3986:	3f 4f       	sbci	r19, 0xFF	; 255
    3988:	f9 01       	movw	r30, r18
    398a:	91 83       	std	Z+1, r25	; 0x01
    398c:	80 83       	st	Z, r24

0000398e <.LM19>:
	...

00003990 <.L10>:
    3990:	0e 94 55 1b 	call	0x36aa	; 0x36aa <LCD_clearScreen>

00003994 <.LM21>:
    3994:	80 e7       	ldi	r24, 0x70	; 112
    3996:	90 e0       	ldi	r25, 0x00	; 0
    3998:	0e 94 b6 1a 	call	0x356c	; 0x356c <LCD_displayString>

0000399c <.LM22>:
    399c:	60 e0       	ldi	r22, 0x00	; 0
    399e:	81 e0       	ldi	r24, 0x01	; 1
    39a0:	0e 94 05 1b 	call	0x360a	; 0x360a <LCD_moveCursor>

000039a4 <.LM23>:
    39a4:	8b e7       	ldi	r24, 0x7B	; 123
    39a6:	90 e0       	ldi	r25, 0x00	; 0
    39a8:	0e 94 b6 1a 	call	0x356c	; 0x356c <LCD_displayString>
    39ac:	80 e0       	ldi	r24, 0x00	; 0
    39ae:	90 e8       	ldi	r25, 0x80	; 128
    39b0:	ab e3       	ldi	r26, 0x3B	; 59
    39b2:	b5 e4       	ldi	r27, 0x45	; 69
    39b4:	8b a7       	std	Y+43, r24	; 0x2b
    39b6:	9c a7       	std	Y+44, r25	; 0x2c
    39b8:	ad a7       	std	Y+45, r26	; 0x2d
    39ba:	be a7       	std	Y+46, r27	; 0x2e

000039bc <.LM24>:
    39bc:	20 e0       	ldi	r18, 0x00	; 0
    39be:	30 e0       	ldi	r19, 0x00	; 0
    39c0:	4a e7       	ldi	r20, 0x7A	; 122
    39c2:	55 e4       	ldi	r21, 0x45	; 69
    39c4:	6b a5       	ldd	r22, Y+43	; 0x2b
    39c6:	7c a5       	ldd	r23, Y+44	; 0x2c
    39c8:	8d a5       	ldd	r24, Y+45	; 0x2d
    39ca:	9e a5       	ldd	r25, Y+46	; 0x2e
    39cc:	0e 94 5f 29 	call	0x52be	; 0x52be <__mulsf3>
    39d0:	af 96       	adiw	r28, 0x2f	; 47
    39d2:	6c af       	std	Y+60, r22	; 0x3c
    39d4:	7d af       	std	Y+61, r23	; 0x3d
    39d6:	8e af       	std	Y+62, r24	; 0x3e
    39d8:	9f af       	std	Y+63, r25	; 0x3f
    39da:	af 97       	sbiw	r28, 0x2f	; 47
    39dc:	af 96       	adiw	r28, 0x2f	; 47
    39de:	2c ad       	ldd	r18, Y+60	; 0x3c
    39e0:	3d ad       	ldd	r19, Y+61	; 0x3d
    39e2:	4e ad       	ldd	r20, Y+62	; 0x3e
    39e4:	5f ad       	ldd	r21, Y+63	; 0x3f
    39e6:	af 97       	sbiw	r28, 0x2f	; 47
    39e8:	2f a7       	std	Y+47, r18	; 0x2f
    39ea:	38 ab       	std	Y+48, r19	; 0x30
    39ec:	49 ab       	std	Y+49, r20	; 0x31
    39ee:	5a ab       	std	Y+50, r21	; 0x32

000039f0 <.LM25>:
    39f0:	20 e0       	ldi	r18, 0x00	; 0
    39f2:	30 e0       	ldi	r19, 0x00	; 0
    39f4:	40 e8       	ldi	r20, 0x80	; 128
    39f6:	5f e3       	ldi	r21, 0x3F	; 63
    39f8:	6f a5       	ldd	r22, Y+47	; 0x2f
    39fa:	78 a9       	ldd	r23, Y+48	; 0x30
    39fc:	89 a9       	ldd	r24, Y+49	; 0x31
    39fe:	9a a9       	ldd	r25, Y+50	; 0x32
    3a00:	0e 94 3f 28 	call	0x507e	; 0x507e <__cmpsf2>
    3a04:	88 23       	and	r24, r24
    3a06:	2c f4       	brge	.+10     	; 0x3a12 <.L55>

00003a08 <.LM26>:
    3a08:	81 e0       	ldi	r24, 0x01	; 1
    3a0a:	90 e0       	ldi	r25, 0x00	; 0
    3a0c:	9c ab       	std	Y+52, r25	; 0x34
    3a0e:	8b ab       	std	Y+51, r24	; 0x33
    3a10:	65 c0       	rjmp	.+202    	; 0x3adc <.L13>

00003a12 <.L55>:
    3a12:	20 e0       	ldi	r18, 0x00	; 0
    3a14:	3f ef       	ldi	r19, 0xFF	; 255
    3a16:	4f e7       	ldi	r20, 0x7F	; 127
    3a18:	57 e4       	ldi	r21, 0x47	; 71
    3a1a:	6f a5       	ldd	r22, Y+47	; 0x2f
    3a1c:	78 a9       	ldd	r23, Y+48	; 0x30
    3a1e:	89 a9       	ldd	r24, Y+49	; 0x31
    3a20:	9a a9       	ldd	r25, Y+50	; 0x32
    3a22:	0e 94 5a 29 	call	0x52b4	; 0x52b4 <__gesf2>
    3a26:	18 16       	cp	r1, r24
    3a28:	0c f0       	brlt	.+2      	; 0x3a2c <.LM28>

00003a2a <L0^A>:
    3a2a:	46 c0       	rjmp	.+140    	; 0x3ab8 <.L56>

00003a2c <.LM28>:
    3a2c:	20 e0       	ldi	r18, 0x00	; 0
    3a2e:	30 e0       	ldi	r19, 0x00	; 0
    3a30:	40 e2       	ldi	r20, 0x20	; 32
    3a32:	51 e4       	ldi	r21, 0x41	; 65
    3a34:	6b a5       	ldd	r22, Y+43	; 0x2b
    3a36:	7c a5       	ldd	r23, Y+44	; 0x2c
    3a38:	8d a5       	ldd	r24, Y+45	; 0x2d
    3a3a:	9e a5       	ldd	r25, Y+46	; 0x2e
    3a3c:	0e 94 5f 29 	call	0x52be	; 0x52be <__mulsf3>
    3a40:	e3 96       	adiw	r28, 0x33	; 51
    3a42:	6c af       	std	Y+60, r22	; 0x3c
    3a44:	7d af       	std	Y+61, r23	; 0x3d
    3a46:	8e af       	std	Y+62, r24	; 0x3e
    3a48:	9f af       	std	Y+63, r25	; 0x3f
    3a4a:	e3 97       	sbiw	r28, 0x33	; 51
    3a4c:	e3 96       	adiw	r28, 0x33	; 51
    3a4e:	8c ad       	ldd	r24, Y+60	; 0x3c
    3a50:	9d ad       	ldd	r25, Y+61	; 0x3d
    3a52:	ae ad       	ldd	r26, Y+62	; 0x3e
    3a54:	bf ad       	ldd	r27, Y+63	; 0x3f
    3a56:	e3 97       	sbiw	r28, 0x33	; 51
    3a58:	67 96       	adiw	r28, 0x17	; 23
    3a5a:	8c af       	std	Y+60, r24	; 0x3c
    3a5c:	9d af       	std	Y+61, r25	; 0x3d
    3a5e:	ae af       	std	Y+62, r26	; 0x3e
    3a60:	bf af       	std	Y+63, r27	; 0x3f
    3a62:	67 97       	sbiw	r28, 0x17	; 23

00003a64 <.LM29>:
    3a64:	67 96       	adiw	r28, 0x17	; 23
    3a66:	6c ad       	ldd	r22, Y+60	; 0x3c
    3a68:	7d ad       	ldd	r23, Y+61	; 0x3d
    3a6a:	8e ad       	ldd	r24, Y+62	; 0x3e
    3a6c:	9f ad       	ldd	r25, Y+63	; 0x3f
    3a6e:	67 97       	sbiw	r28, 0x17	; 23
    3a70:	0e 94 b6 28 	call	0x516c	; 0x516c <__fixunssfsi>
    3a74:	e7 96       	adiw	r28, 0x37	; 55
    3a76:	6c af       	std	Y+60, r22	; 0x3c
    3a78:	7d af       	std	Y+61, r23	; 0x3d
    3a7a:	8e af       	std	Y+62, r24	; 0x3e
    3a7c:	9f af       	std	Y+63, r25	; 0x3f
    3a7e:	e7 97       	sbiw	r28, 0x37	; 55
    3a80:	e5 96       	adiw	r28, 0x35	; 53
    3a82:	ae ad       	ldd	r26, Y+62	; 0x3e
    3a84:	bf ad       	ldd	r27, Y+63	; 0x3f
    3a86:	e5 97       	sbiw	r28, 0x35	; 53
    3a88:	bc ab       	std	Y+52, r27	; 0x34
    3a8a:	ab ab       	std	Y+51, r26	; 0x33

00003a8c <.LM30>:
    3a8c:	10 c0       	rjmp	.+32     	; 0x3aae <.L16>

00003a8e <.L17>:
    3a8e:	80 e9       	ldi	r24, 0x90	; 144
    3a90:	91 e0       	ldi	r25, 0x01	; 1
    3a92:	9e ab       	std	Y+54, r25	; 0x36
    3a94:	8d ab       	std	Y+53, r24	; 0x35

00003a96 <.LM31>:
    3a96:	8d a9       	ldd	r24, Y+53	; 0x35
    3a98:	9e a9       	ldd	r25, Y+54	; 0x36

00003a9a <.L1^B3>:
    3a9a:	01 97       	sbiw	r24, 0x01	; 1
    3a9c:	f1 f7       	brne	.-4      	; 0x3a9a <.L1^B3>
    3a9e:	9e ab       	std	Y+54, r25	; 0x36
    3aa0:	8d ab       	std	Y+53, r24	; 0x35

00003aa2 <.LM32>:
	...

00003aa4 <.LM33>:
    3aa4:	8b a9       	ldd	r24, Y+51	; 0x33
    3aa6:	9c a9       	ldd	r25, Y+52	; 0x34
    3aa8:	01 97       	sbiw	r24, 0x01	; 1
    3aaa:	9c ab       	std	Y+52, r25	; 0x34
    3aac:	8b ab       	std	Y+51, r24	; 0x33

00003aae <.L16>:
    3aae:	8b a9       	ldd	r24, Y+51	; 0x33
    3ab0:	9c a9       	ldd	r25, Y+52	; 0x34
    3ab2:	89 2b       	or	r24, r25
    3ab4:	61 f7       	brne	.-40     	; 0x3a8e <.L17>

00003ab6 <.LM35>:
    3ab6:	1d c0       	rjmp	.+58     	; 0x3af2 <.L18>

00003ab8 <.L56>:
    3ab8:	6f a5       	ldd	r22, Y+47	; 0x2f
    3aba:	78 a9       	ldd	r23, Y+48	; 0x30
    3abc:	89 a9       	ldd	r24, Y+49	; 0x31
    3abe:	9a a9       	ldd	r25, Y+50	; 0x32
    3ac0:	0e 94 b6 28 	call	0x516c	; 0x516c <__fixunssfsi>
    3ac4:	eb 96       	adiw	r28, 0x3b	; 59
    3ac6:	6c af       	std	Y+60, r22	; 0x3c
    3ac8:	7d af       	std	Y+61, r23	; 0x3d
    3aca:	8e af       	std	Y+62, r24	; 0x3e
    3acc:	9f af       	std	Y+63, r25	; 0x3f
    3ace:	eb 97       	sbiw	r28, 0x3b	; 59
    3ad0:	e9 96       	adiw	r28, 0x39	; 57
    3ad2:	ee ad       	ldd	r30, Y+62	; 0x3e
    3ad4:	ff ad       	ldd	r31, Y+63	; 0x3f
    3ad6:	e9 97       	sbiw	r28, 0x39	; 57
    3ad8:	fc ab       	std	Y+52, r31	; 0x34
    3ada:	eb ab       	std	Y+51, r30	; 0x33

00003adc <.L13>:
    3adc:	8b a9       	ldd	r24, Y+51	; 0x33
    3ade:	9c a9       	ldd	r25, Y+52	; 0x34
    3ae0:	98 af       	std	Y+56, r25	; 0x38
    3ae2:	8f ab       	std	Y+55, r24	; 0x37

00003ae4 <.LM37>:
    3ae4:	8f a9       	ldd	r24, Y+55	; 0x37
    3ae6:	98 ad       	ldd	r25, Y+56	; 0x38

00003ae8 <.L1^B4>:
    3ae8:	01 97       	sbiw	r24, 0x01	; 1
    3aea:	f1 f7       	brne	.-4      	; 0x3ae8 <.L1^B4>
    3aec:	98 af       	std	Y+56, r25	; 0x38
    3aee:	8f ab       	std	Y+55, r24	; 0x37

00003af0 <.LM38>:
	...

00003af2 <.L18>:
    3af2:	0e 94 55 1b 	call	0x36aa	; 0x36aa <LCD_clearScreen>

00003af6 <.LM40>:
    3af6:	8a e8       	ldi	r24, 0x8A	; 138
    3af8:	90 e0       	ldi	r25, 0x00	; 0
    3afa:	0e 94 b6 1a 	call	0x356c	; 0x356c <LCD_displayString>

00003afe <.LM41>:
    3afe:	60 e0       	ldi	r22, 0x00	; 0
    3b00:	81 e0       	ldi	r24, 0x01	; 1
    3b02:	0e 94 05 1b 	call	0x360a	; 0x360a <LCD_moveCursor>

00003b06 <.LM42>:
    3b06:	88 e9       	ldi	r24, 0x98	; 152
    3b08:	90 e0       	ldi	r25, 0x00	; 0
    3b0a:	0e 94 b6 1a 	call	0x356c	; 0x356c <LCD_displayString>
    3b0e:	80 e0       	ldi	r24, 0x00	; 0
    3b10:	90 e8       	ldi	r25, 0x80	; 128
    3b12:	ab e3       	ldi	r26, 0x3B	; 59
    3b14:	b5 e4       	ldi	r27, 0x45	; 69
    3b16:	8d 8f       	std	Y+29, r24	; 0x1d
    3b18:	9e 8f       	std	Y+30, r25	; 0x1e
    3b1a:	af 8f       	std	Y+31, r26	; 0x1f
    3b1c:	b8 a3       	std	Y+32, r27	; 0x20

00003b1e <.LM43>:
    3b1e:	20 e0       	ldi	r18, 0x00	; 0
    3b20:	30 e0       	ldi	r19, 0x00	; 0
    3b22:	4a e7       	ldi	r20, 0x7A	; 122
    3b24:	55 e4       	ldi	r21, 0x45	; 69
    3b26:	6d 8d       	ldd	r22, Y+29	; 0x1d
    3b28:	7e 8d       	ldd	r23, Y+30	; 0x1e
    3b2a:	8f 8d       	ldd	r24, Y+31	; 0x1f
    3b2c:	98 a1       	ldd	r25, Y+32	; 0x20
    3b2e:	0e 94 5f 29 	call	0x52be	; 0x52be <__mulsf3>
    3b32:	ef 96       	adiw	r28, 0x3f	; 63
    3b34:	6c af       	std	Y+60, r22	; 0x3c
    3b36:	7d af       	std	Y+61, r23	; 0x3d
    3b38:	8e af       	std	Y+62, r24	; 0x3e
    3b3a:	9f af       	std	Y+63, r25	; 0x3f
    3b3c:	ef 97       	sbiw	r28, 0x3f	; 63
    3b3e:	ef 96       	adiw	r28, 0x3f	; 63
    3b40:	2c ad       	ldd	r18, Y+60	; 0x3c
    3b42:	3d ad       	ldd	r19, Y+61	; 0x3d
    3b44:	4e ad       	ldd	r20, Y+62	; 0x3e
    3b46:	5f ad       	ldd	r21, Y+63	; 0x3f
    3b48:	ef 97       	sbiw	r28, 0x3f	; 63
    3b4a:	29 a3       	std	Y+33, r18	; 0x21
    3b4c:	3a a3       	std	Y+34, r19	; 0x22
    3b4e:	4b a3       	std	Y+35, r20	; 0x23
    3b50:	5c a3       	std	Y+36, r21	; 0x24

00003b52 <.LM44>:
    3b52:	20 e0       	ldi	r18, 0x00	; 0
    3b54:	30 e0       	ldi	r19, 0x00	; 0
    3b56:	40 e8       	ldi	r20, 0x80	; 128
    3b58:	5f e3       	ldi	r21, 0x3F	; 63
    3b5a:	69 a1       	ldd	r22, Y+33	; 0x21
    3b5c:	7a a1       	ldd	r23, Y+34	; 0x22
    3b5e:	8b a1       	ldd	r24, Y+35	; 0x23
    3b60:	9c a1       	ldd	r25, Y+36	; 0x24
    3b62:	0e 94 3f 28 	call	0x507e	; 0x507e <__cmpsf2>
    3b66:	88 23       	and	r24, r24
    3b68:	2c f4       	brge	.+10     	; 0x3b74 <.L57>

00003b6a <.LM45>:
    3b6a:	81 e0       	ldi	r24, 0x01	; 1
    3b6c:	90 e0       	ldi	r25, 0x00	; 0
    3b6e:	9e a3       	std	Y+38, r25	; 0x26
    3b70:	8d a3       	std	Y+37, r24	; 0x25
    3b72:	71 c0       	rjmp	.+226    	; 0x3c56 <.L21>

00003b74 <.L57>:
    3b74:	20 e0       	ldi	r18, 0x00	; 0
    3b76:	3f ef       	ldi	r19, 0xFF	; 255
    3b78:	4f e7       	ldi	r20, 0x7F	; 127
    3b7a:	57 e4       	ldi	r21, 0x47	; 71
    3b7c:	69 a1       	ldd	r22, Y+33	; 0x21
    3b7e:	7a a1       	ldd	r23, Y+34	; 0x22
    3b80:	8b a1       	ldd	r24, Y+35	; 0x23
    3b82:	9c a1       	ldd	r25, Y+36	; 0x24
    3b84:	0e 94 5a 29 	call	0x52b4	; 0x52b4 <__gesf2>
    3b88:	18 16       	cp	r1, r24
    3b8a:	0c f0       	brlt	.+2      	; 0x3b8e <.LM47>

00003b8c <L0^A>:
    3b8c:	4e c0       	rjmp	.+156    	; 0x3c2a <.L58>

00003b8e <.LM47>:
    3b8e:	20 e0       	ldi	r18, 0x00	; 0
    3b90:	30 e0       	ldi	r19, 0x00	; 0
    3b92:	40 e2       	ldi	r20, 0x20	; 32
    3b94:	51 e4       	ldi	r21, 0x41	; 65
    3b96:	6d 8d       	ldd	r22, Y+29	; 0x1d
    3b98:	7e 8d       	ldd	r23, Y+30	; 0x1e
    3b9a:	8f 8d       	ldd	r24, Y+31	; 0x1f
    3b9c:	98 a1       	ldd	r25, Y+32	; 0x20
    3b9e:	0e 94 5f 29 	call	0x52be	; 0x52be <__mulsf3>
    3ba2:	c1 58       	subi	r28, 0x81	; 129
    3ba4:	df 4f       	sbci	r29, 0xFF	; 255
    3ba6:	68 83       	st	Y, r22
    3ba8:	79 83       	std	Y+1, r23	; 0x01
    3baa:	8a 83       	std	Y+2, r24	; 0x02
    3bac:	9b 83       	std	Y+3, r25	; 0x03
    3bae:	cf 57       	subi	r28, 0x7F	; 127
    3bb0:	d0 40       	sbci	r29, 0x00	; 0
    3bb2:	c1 58       	subi	r28, 0x81	; 129
    3bb4:	df 4f       	sbci	r29, 0xFF	; 255
    3bb6:	88 81       	ld	r24, Y
    3bb8:	99 81       	ldd	r25, Y+1	; 0x01
    3bba:	aa 81       	ldd	r26, Y+2	; 0x02
    3bbc:	bb 81       	ldd	r27, Y+3	; 0x03
    3bbe:	cf 57       	subi	r28, 0x7F	; 127
    3bc0:	d0 40       	sbci	r29, 0x00	; 0
    3bc2:	63 96       	adiw	r28, 0x13	; 19
    3bc4:	8c af       	std	Y+60, r24	; 0x3c
    3bc6:	9d af       	std	Y+61, r25	; 0x3d
    3bc8:	ae af       	std	Y+62, r26	; 0x3e
    3bca:	bf af       	std	Y+63, r27	; 0x3f
    3bcc:	63 97       	sbiw	r28, 0x13	; 19

00003bce <.LM48>:
    3bce:	63 96       	adiw	r28, 0x13	; 19
    3bd0:	6c ad       	ldd	r22, Y+60	; 0x3c
    3bd2:	7d ad       	ldd	r23, Y+61	; 0x3d
    3bd4:	8e ad       	ldd	r24, Y+62	; 0x3e
    3bd6:	9f ad       	ldd	r25, Y+63	; 0x3f
    3bd8:	63 97       	sbiw	r28, 0x13	; 19
    3bda:	0e 94 b6 28 	call	0x516c	; 0x516c <__fixunssfsi>
    3bde:	cd 57       	subi	r28, 0x7D	; 125
    3be0:	df 4f       	sbci	r29, 0xFF	; 255
    3be2:	68 83       	st	Y, r22
    3be4:	79 83       	std	Y+1, r23	; 0x01
    3be6:	8a 83       	std	Y+2, r24	; 0x02
    3be8:	9b 83       	std	Y+3, r25	; 0x03
    3bea:	c3 58       	subi	r28, 0x83	; 131
    3bec:	d0 40       	sbci	r29, 0x00	; 0
    3bee:	cd 57       	subi	r28, 0x7D	; 125
    3bf0:	df 4f       	sbci	r29, 0xFF	; 255
    3bf2:	a8 81       	ld	r26, Y
    3bf4:	b9 81       	ldd	r27, Y+1	; 0x01
    3bf6:	c3 58       	subi	r28, 0x83	; 131
    3bf8:	d0 40       	sbci	r29, 0x00	; 0
    3bfa:	be a3       	std	Y+38, r27	; 0x26
    3bfc:	ad a3       	std	Y+37, r26	; 0x25

00003bfe <.LM49>:
    3bfe:	10 c0       	rjmp	.+32     	; 0x3c20 <.L24>

00003c00 <.L25>:
    3c00:	80 e9       	ldi	r24, 0x90	; 144
    3c02:	91 e0       	ldi	r25, 0x01	; 1
    3c04:	98 a7       	std	Y+40, r25	; 0x28
    3c06:	8f a3       	std	Y+39, r24	; 0x27

00003c08 <.LM50>:
    3c08:	8f a1       	ldd	r24, Y+39	; 0x27
    3c0a:	98 a5       	ldd	r25, Y+40	; 0x28

00003c0c <.L1^B5>:
    3c0c:	01 97       	sbiw	r24, 0x01	; 1
    3c0e:	f1 f7       	brne	.-4      	; 0x3c0c <.L1^B5>
    3c10:	98 a7       	std	Y+40, r25	; 0x28
    3c12:	8f a3       	std	Y+39, r24	; 0x27

00003c14 <.LM51>:
	...

00003c16 <.LM52>:
    3c16:	8d a1       	ldd	r24, Y+37	; 0x25
    3c18:	9e a1       	ldd	r25, Y+38	; 0x26
    3c1a:	01 97       	sbiw	r24, 0x01	; 1
    3c1c:	9e a3       	std	Y+38, r25	; 0x26
    3c1e:	8d a3       	std	Y+37, r24	; 0x25

00003c20 <.L24>:
    3c20:	8d a1       	ldd	r24, Y+37	; 0x25
    3c22:	9e a1       	ldd	r25, Y+38	; 0x26
    3c24:	89 2b       	or	r24, r25
    3c26:	61 f7       	brne	.-40     	; 0x3c00 <.L25>

00003c28 <.LM54>:
    3c28:	21 c0       	rjmp	.+66     	; 0x3c6c <.L26>

00003c2a <.L58>:
    3c2a:	69 a1       	ldd	r22, Y+33	; 0x21
    3c2c:	7a a1       	ldd	r23, Y+34	; 0x22
    3c2e:	8b a1       	ldd	r24, Y+35	; 0x23
    3c30:	9c a1       	ldd	r25, Y+36	; 0x24
    3c32:	0e 94 b6 28 	call	0x516c	; 0x516c <__fixunssfsi>
    3c36:	c9 57       	subi	r28, 0x79	; 121
    3c38:	df 4f       	sbci	r29, 0xFF	; 255
    3c3a:	68 83       	st	Y, r22
    3c3c:	79 83       	std	Y+1, r23	; 0x01
    3c3e:	8a 83       	std	Y+2, r24	; 0x02
    3c40:	9b 83       	std	Y+3, r25	; 0x03
    3c42:	c7 58       	subi	r28, 0x87	; 135
    3c44:	d0 40       	sbci	r29, 0x00	; 0
    3c46:	c9 57       	subi	r28, 0x79	; 121
    3c48:	df 4f       	sbci	r29, 0xFF	; 255
    3c4a:	e8 81       	ld	r30, Y
    3c4c:	f9 81       	ldd	r31, Y+1	; 0x01
    3c4e:	c7 58       	subi	r28, 0x87	; 135
    3c50:	d0 40       	sbci	r29, 0x00	; 0
    3c52:	fe a3       	std	Y+38, r31	; 0x26
    3c54:	ed a3       	std	Y+37, r30	; 0x25

00003c56 <.L21>:
    3c56:	8d a1       	ldd	r24, Y+37	; 0x25
    3c58:	9e a1       	ldd	r25, Y+38	; 0x26
    3c5a:	9a a7       	std	Y+42, r25	; 0x2a
    3c5c:	89 a7       	std	Y+41, r24	; 0x29

00003c5e <.LM56>:
    3c5e:	89 a5       	ldd	r24, Y+41	; 0x29
    3c60:	9a a5       	ldd	r25, Y+42	; 0x2a

00003c62 <.L1^B6>:
    3c62:	01 97       	sbiw	r24, 0x01	; 1
    3c64:	f1 f7       	brne	.-4      	; 0x3c62 <.L1^B6>
    3c66:	9a a7       	std	Y+42, r25	; 0x2a
    3c68:	89 a7       	std	Y+41, r24	; 0x29

00003c6a <.LM57>:
	...

00003c6c <.L26>:
    3c6c:	0e 94 55 1b 	call	0x36aa	; 0x36aa <LCD_clearScreen>

00003c70 <.LM59>:
    3c70:	85 ea       	ldi	r24, 0xA5	; 165
    3c72:	90 e0       	ldi	r25, 0x00	; 0
    3c74:	0e 94 b6 1a 	call	0x356c	; 0x356c <LCD_displayString>

00003c78 <.LM60>:
    3c78:	60 e0       	ldi	r22, 0x00	; 0
    3c7a:	81 e0       	ldi	r24, 0x01	; 1
    3c7c:	0e 94 05 1b 	call	0x360a	; 0x360a <LCD_moveCursor>

00003c80 <.LM61>:
    3c80:	8d ea       	ldi	r24, 0xAD	; 173
    3c82:	90 e0       	ldi	r25, 0x00	; 0
    3c84:	0e 94 b6 1a 	call	0x356c	; 0x356c <LCD_displayString>
    3c88:	80 e0       	ldi	r24, 0x00	; 0
    3c8a:	90 e8       	ldi	r25, 0x80	; 128
    3c8c:	ab e3       	ldi	r26, 0x3B	; 59
    3c8e:	b5 e4       	ldi	r27, 0x45	; 69
    3c90:	8f 87       	std	Y+15, r24	; 0x0f
    3c92:	98 8b       	std	Y+16, r25	; 0x10
    3c94:	a9 8b       	std	Y+17, r26	; 0x11
    3c96:	ba 8b       	std	Y+18, r27	; 0x12

00003c98 <.LM62>:
    3c98:	20 e0       	ldi	r18, 0x00	; 0
    3c9a:	30 e0       	ldi	r19, 0x00	; 0
    3c9c:	4a e7       	ldi	r20, 0x7A	; 122
    3c9e:	55 e4       	ldi	r21, 0x45	; 69
    3ca0:	6f 85       	ldd	r22, Y+15	; 0x0f
    3ca2:	78 89       	ldd	r23, Y+16	; 0x10
    3ca4:	89 89       	ldd	r24, Y+17	; 0x11
    3ca6:	9a 89       	ldd	r25, Y+18	; 0x12
    3ca8:	0e 94 5f 29 	call	0x52be	; 0x52be <__mulsf3>
    3cac:	c5 57       	subi	r28, 0x75	; 117
    3cae:	df 4f       	sbci	r29, 0xFF	; 255
    3cb0:	68 83       	st	Y, r22
    3cb2:	79 83       	std	Y+1, r23	; 0x01
    3cb4:	8a 83       	std	Y+2, r24	; 0x02
    3cb6:	9b 83       	std	Y+3, r25	; 0x03
    3cb8:	cb 58       	subi	r28, 0x8B	; 139
    3cba:	d0 40       	sbci	r29, 0x00	; 0
    3cbc:	c5 57       	subi	r28, 0x75	; 117
    3cbe:	df 4f       	sbci	r29, 0xFF	; 255
    3cc0:	28 81       	ld	r18, Y
    3cc2:	39 81       	ldd	r19, Y+1	; 0x01
    3cc4:	4a 81       	ldd	r20, Y+2	; 0x02
    3cc6:	5b 81       	ldd	r21, Y+3	; 0x03
    3cc8:	cb 58       	subi	r28, 0x8B	; 139
    3cca:	d0 40       	sbci	r29, 0x00	; 0
    3ccc:	2b 8b       	std	Y+19, r18	; 0x13
    3cce:	3c 8b       	std	Y+20, r19	; 0x14
    3cd0:	4d 8b       	std	Y+21, r20	; 0x15
    3cd2:	5e 8b       	std	Y+22, r21	; 0x16

00003cd4 <.LM63>:
    3cd4:	20 e0       	ldi	r18, 0x00	; 0
    3cd6:	30 e0       	ldi	r19, 0x00	; 0
    3cd8:	40 e8       	ldi	r20, 0x80	; 128
    3cda:	5f e3       	ldi	r21, 0x3F	; 63
    3cdc:	6b 89       	ldd	r22, Y+19	; 0x13
    3cde:	7c 89       	ldd	r23, Y+20	; 0x14
    3ce0:	8d 89       	ldd	r24, Y+21	; 0x15
    3ce2:	9e 89       	ldd	r25, Y+22	; 0x16
    3ce4:	0e 94 3f 28 	call	0x507e	; 0x507e <__cmpsf2>
    3ce8:	88 23       	and	r24, r24
    3cea:	2c f4       	brge	.+10     	; 0x3cf6 <.L59>

00003cec <.LM64>:
    3cec:	81 e0       	ldi	r24, 0x01	; 1
    3cee:	90 e0       	ldi	r25, 0x00	; 0
    3cf0:	98 8f       	std	Y+24, r25	; 0x18
    3cf2:	8f 8b       	std	Y+23, r24	; 0x17
    3cf4:	71 c0       	rjmp	.+226    	; 0x3dd8 <.L29>

00003cf6 <.L59>:
    3cf6:	20 e0       	ldi	r18, 0x00	; 0
    3cf8:	3f ef       	ldi	r19, 0xFF	; 255
    3cfa:	4f e7       	ldi	r20, 0x7F	; 127
    3cfc:	57 e4       	ldi	r21, 0x47	; 71
    3cfe:	6b 89       	ldd	r22, Y+19	; 0x13
    3d00:	7c 89       	ldd	r23, Y+20	; 0x14
    3d02:	8d 89       	ldd	r24, Y+21	; 0x15
    3d04:	9e 89       	ldd	r25, Y+22	; 0x16
    3d06:	0e 94 5a 29 	call	0x52b4	; 0x52b4 <__gesf2>
    3d0a:	18 16       	cp	r1, r24
    3d0c:	0c f0       	brlt	.+2      	; 0x3d10 <.LM66>

00003d0e <L0^A>:
    3d0e:	4e c0       	rjmp	.+156    	; 0x3dac <.L60>

00003d10 <.LM66>:
    3d10:	20 e0       	ldi	r18, 0x00	; 0
    3d12:	30 e0       	ldi	r19, 0x00	; 0
    3d14:	40 e2       	ldi	r20, 0x20	; 32
    3d16:	51 e4       	ldi	r21, 0x41	; 65
    3d18:	6f 85       	ldd	r22, Y+15	; 0x0f
    3d1a:	78 89       	ldd	r23, Y+16	; 0x10
    3d1c:	89 89       	ldd	r24, Y+17	; 0x11
    3d1e:	9a 89       	ldd	r25, Y+18	; 0x12
    3d20:	0e 94 5f 29 	call	0x52be	; 0x52be <__mulsf3>
    3d24:	c1 57       	subi	r28, 0x71	; 113
    3d26:	df 4f       	sbci	r29, 0xFF	; 255
    3d28:	68 83       	st	Y, r22
    3d2a:	79 83       	std	Y+1, r23	; 0x01
    3d2c:	8a 83       	std	Y+2, r24	; 0x02
    3d2e:	9b 83       	std	Y+3, r25	; 0x03
    3d30:	cf 58       	subi	r28, 0x8F	; 143
    3d32:	d0 40       	sbci	r29, 0x00	; 0
    3d34:	c1 57       	subi	r28, 0x71	; 113
    3d36:	df 4f       	sbci	r29, 0xFF	; 255
    3d38:	88 81       	ld	r24, Y
    3d3a:	99 81       	ldd	r25, Y+1	; 0x01
    3d3c:	aa 81       	ldd	r26, Y+2	; 0x02
    3d3e:	bb 81       	ldd	r27, Y+3	; 0x03
    3d40:	cf 58       	subi	r28, 0x8F	; 143
    3d42:	d0 40       	sbci	r29, 0x00	; 0
    3d44:	2f 96       	adiw	r28, 0x0f	; 15
    3d46:	8c af       	std	Y+60, r24	; 0x3c
    3d48:	9d af       	std	Y+61, r25	; 0x3d
    3d4a:	ae af       	std	Y+62, r26	; 0x3e
    3d4c:	bf af       	std	Y+63, r27	; 0x3f
    3d4e:	2f 97       	sbiw	r28, 0x0f	; 15

00003d50 <.LM67>:
    3d50:	2f 96       	adiw	r28, 0x0f	; 15
    3d52:	6c ad       	ldd	r22, Y+60	; 0x3c
    3d54:	7d ad       	ldd	r23, Y+61	; 0x3d
    3d56:	8e ad       	ldd	r24, Y+62	; 0x3e
    3d58:	9f ad       	ldd	r25, Y+63	; 0x3f
    3d5a:	2f 97       	sbiw	r28, 0x0f	; 15
    3d5c:	0e 94 b6 28 	call	0x516c	; 0x516c <__fixunssfsi>
    3d60:	cd 56       	subi	r28, 0x6D	; 109
    3d62:	df 4f       	sbci	r29, 0xFF	; 255
    3d64:	68 83       	st	Y, r22
    3d66:	79 83       	std	Y+1, r23	; 0x01
    3d68:	8a 83       	std	Y+2, r24	; 0x02
    3d6a:	9b 83       	std	Y+3, r25	; 0x03
    3d6c:	c3 59       	subi	r28, 0x93	; 147
    3d6e:	d0 40       	sbci	r29, 0x00	; 0
    3d70:	cd 56       	subi	r28, 0x6D	; 109
    3d72:	df 4f       	sbci	r29, 0xFF	; 255
    3d74:	a8 81       	ld	r26, Y
    3d76:	b9 81       	ldd	r27, Y+1	; 0x01
    3d78:	c3 59       	subi	r28, 0x93	; 147
    3d7a:	d0 40       	sbci	r29, 0x00	; 0
    3d7c:	b8 8f       	std	Y+24, r27	; 0x18
    3d7e:	af 8b       	std	Y+23, r26	; 0x17

00003d80 <.LM68>:
    3d80:	10 c0       	rjmp	.+32     	; 0x3da2 <.L32>

00003d82 <.L33>:
    3d82:	80 e9       	ldi	r24, 0x90	; 144
    3d84:	91 e0       	ldi	r25, 0x01	; 1
    3d86:	9a 8f       	std	Y+26, r25	; 0x1a
    3d88:	89 8f       	std	Y+25, r24	; 0x19

00003d8a <.LM69>:
    3d8a:	89 8d       	ldd	r24, Y+25	; 0x19
    3d8c:	9a 8d       	ldd	r25, Y+26	; 0x1a

00003d8e <.L1^B7>:
    3d8e:	01 97       	sbiw	r24, 0x01	; 1
    3d90:	f1 f7       	brne	.-4      	; 0x3d8e <.L1^B7>
    3d92:	9a 8f       	std	Y+26, r25	; 0x1a
    3d94:	89 8f       	std	Y+25, r24	; 0x19

00003d96 <.LM70>:
	...

00003d98 <.LM71>:
    3d98:	8f 89       	ldd	r24, Y+23	; 0x17
    3d9a:	98 8d       	ldd	r25, Y+24	; 0x18
    3d9c:	01 97       	sbiw	r24, 0x01	; 1
    3d9e:	98 8f       	std	Y+24, r25	; 0x18
    3da0:	8f 8b       	std	Y+23, r24	; 0x17

00003da2 <.L32>:
    3da2:	8f 89       	ldd	r24, Y+23	; 0x17
    3da4:	98 8d       	ldd	r25, Y+24	; 0x18
    3da6:	89 2b       	or	r24, r25
    3da8:	61 f7       	brne	.-40     	; 0x3d82 <.L33>

00003daa <.LM73>:
    3daa:	21 c0       	rjmp	.+66     	; 0x3dee <.L34>

00003dac <.L60>:
    3dac:	6b 89       	ldd	r22, Y+19	; 0x13
    3dae:	7c 89       	ldd	r23, Y+20	; 0x14
    3db0:	8d 89       	ldd	r24, Y+21	; 0x15
    3db2:	9e 89       	ldd	r25, Y+22	; 0x16
    3db4:	0e 94 b6 28 	call	0x516c	; 0x516c <__fixunssfsi>
    3db8:	c9 56       	subi	r28, 0x69	; 105
    3dba:	df 4f       	sbci	r29, 0xFF	; 255
    3dbc:	68 83       	st	Y, r22
    3dbe:	79 83       	std	Y+1, r23	; 0x01
    3dc0:	8a 83       	std	Y+2, r24	; 0x02
    3dc2:	9b 83       	std	Y+3, r25	; 0x03
    3dc4:	c7 59       	subi	r28, 0x97	; 151
    3dc6:	d0 40       	sbci	r29, 0x00	; 0
    3dc8:	c9 56       	subi	r28, 0x69	; 105
    3dca:	df 4f       	sbci	r29, 0xFF	; 255
    3dcc:	e8 81       	ld	r30, Y
    3dce:	f9 81       	ldd	r31, Y+1	; 0x01
    3dd0:	c7 59       	subi	r28, 0x97	; 151
    3dd2:	d0 40       	sbci	r29, 0x00	; 0
    3dd4:	f8 8f       	std	Y+24, r31	; 0x18
    3dd6:	ef 8b       	std	Y+23, r30	; 0x17

00003dd8 <.L29>:
    3dd8:	8f 89       	ldd	r24, Y+23	; 0x17
    3dda:	98 8d       	ldd	r25, Y+24	; 0x18
    3ddc:	9c 8f       	std	Y+28, r25	; 0x1c
    3dde:	8b 8f       	std	Y+27, r24	; 0x1b

00003de0 <.LM75>:
    3de0:	8b 8d       	ldd	r24, Y+27	; 0x1b
    3de2:	9c 8d       	ldd	r25, Y+28	; 0x1c

00003de4 <.L1^B8>:
    3de4:	01 97       	sbiw	r24, 0x01	; 1
    3de6:	f1 f7       	brne	.-4      	; 0x3de4 <.L1^B8>
    3de8:	9c 8f       	std	Y+28, r25	; 0x1c
    3dea:	8b 8f       	std	Y+27, r24	; 0x1b

00003dec <.LM76>:
	...

00003dee <.L34>:
    3dee:	0e 94 55 1b 	call	0x36aa	; 0x36aa <LCD_clearScreen>

00003df2 <.LM78>:
    3df2:	8e eb       	ldi	r24, 0xBE	; 190
    3df4:	90 e0       	ldi	r25, 0x00	; 0
    3df6:	0e 94 b6 1a 	call	0x356c	; 0x356c <LCD_displayString>
    3dfa:	80 e0       	ldi	r24, 0x00	; 0
    3dfc:	90 e8       	ldi	r25, 0x80	; 128
    3dfe:	ab e3       	ldi	r26, 0x3B	; 59
    3e00:	b5 e4       	ldi	r27, 0x45	; 69
    3e02:	89 83       	std	Y+1, r24	; 0x01
    3e04:	9a 83       	std	Y+2, r25	; 0x02
    3e06:	ab 83       	std	Y+3, r26	; 0x03
    3e08:	bc 83       	std	Y+4, r27	; 0x04

00003e0a <.LM79>:
    3e0a:	20 e0       	ldi	r18, 0x00	; 0
    3e0c:	30 e0       	ldi	r19, 0x00	; 0
    3e0e:	4a e7       	ldi	r20, 0x7A	; 122
    3e10:	55 e4       	ldi	r21, 0x45	; 69
    3e12:	69 81       	ldd	r22, Y+1	; 0x01
    3e14:	7a 81       	ldd	r23, Y+2	; 0x02
    3e16:	8b 81       	ldd	r24, Y+3	; 0x03
    3e18:	9c 81       	ldd	r25, Y+4	; 0x04
    3e1a:	0e 94 5f 29 	call	0x52be	; 0x52be <__mulsf3>
    3e1e:	c5 56       	subi	r28, 0x65	; 101
    3e20:	df 4f       	sbci	r29, 0xFF	; 255
    3e22:	68 83       	st	Y, r22
    3e24:	79 83       	std	Y+1, r23	; 0x01
    3e26:	8a 83       	std	Y+2, r24	; 0x02
    3e28:	9b 83       	std	Y+3, r25	; 0x03
    3e2a:	cb 59       	subi	r28, 0x9B	; 155
    3e2c:	d0 40       	sbci	r29, 0x00	; 0
    3e2e:	c5 56       	subi	r28, 0x65	; 101
    3e30:	df 4f       	sbci	r29, 0xFF	; 255
    3e32:	28 81       	ld	r18, Y
    3e34:	39 81       	ldd	r19, Y+1	; 0x01
    3e36:	4a 81       	ldd	r20, Y+2	; 0x02
    3e38:	5b 81       	ldd	r21, Y+3	; 0x03
    3e3a:	cb 59       	subi	r28, 0x9B	; 155
    3e3c:	d0 40       	sbci	r29, 0x00	; 0
    3e3e:	2d 83       	std	Y+5, r18	; 0x05
    3e40:	3e 83       	std	Y+6, r19	; 0x06
    3e42:	4f 83       	std	Y+7, r20	; 0x07
    3e44:	58 87       	std	Y+8, r21	; 0x08

00003e46 <.LM80>:
    3e46:	20 e0       	ldi	r18, 0x00	; 0
    3e48:	30 e0       	ldi	r19, 0x00	; 0
    3e4a:	40 e8       	ldi	r20, 0x80	; 128
    3e4c:	5f e3       	ldi	r21, 0x3F	; 63
    3e4e:	6d 81       	ldd	r22, Y+5	; 0x05
    3e50:	7e 81       	ldd	r23, Y+6	; 0x06
    3e52:	8f 81       	ldd	r24, Y+7	; 0x07
    3e54:	98 85       	ldd	r25, Y+8	; 0x08
    3e56:	0e 94 3f 28 	call	0x507e	; 0x507e <__cmpsf2>
    3e5a:	88 23       	and	r24, r24
    3e5c:	2c f4       	brge	.+10     	; 0x3e68 <.L61>

00003e5e <.LM81>:
    3e5e:	81 e0       	ldi	r24, 0x01	; 1
    3e60:	90 e0       	ldi	r25, 0x00	; 0
    3e62:	9a 87       	std	Y+10, r25	; 0x0a
    3e64:	89 87       	std	Y+9, r24	; 0x09
    3e66:	71 c0       	rjmp	.+226    	; 0x3f4a <.L37>

00003e68 <.L61>:
    3e68:	20 e0       	ldi	r18, 0x00	; 0
    3e6a:	3f ef       	ldi	r19, 0xFF	; 255
    3e6c:	4f e7       	ldi	r20, 0x7F	; 127
    3e6e:	57 e4       	ldi	r21, 0x47	; 71
    3e70:	6d 81       	ldd	r22, Y+5	; 0x05
    3e72:	7e 81       	ldd	r23, Y+6	; 0x06
    3e74:	8f 81       	ldd	r24, Y+7	; 0x07
    3e76:	98 85       	ldd	r25, Y+8	; 0x08
    3e78:	0e 94 5a 29 	call	0x52b4	; 0x52b4 <__gesf2>
    3e7c:	18 16       	cp	r1, r24
    3e7e:	0c f0       	brlt	.+2      	; 0x3e82 <.LM83>

00003e80 <L0^A>:
    3e80:	4e c0       	rjmp	.+156    	; 0x3f1e <.L62>

00003e82 <.LM83>:
    3e82:	20 e0       	ldi	r18, 0x00	; 0
    3e84:	30 e0       	ldi	r19, 0x00	; 0
    3e86:	40 e2       	ldi	r20, 0x20	; 32
    3e88:	51 e4       	ldi	r21, 0x41	; 65
    3e8a:	69 81       	ldd	r22, Y+1	; 0x01
    3e8c:	7a 81       	ldd	r23, Y+2	; 0x02
    3e8e:	8b 81       	ldd	r24, Y+3	; 0x03
    3e90:	9c 81       	ldd	r25, Y+4	; 0x04
    3e92:	0e 94 5f 29 	call	0x52be	; 0x52be <__mulsf3>
    3e96:	c1 56       	subi	r28, 0x61	; 97
    3e98:	df 4f       	sbci	r29, 0xFF	; 255
    3e9a:	68 83       	st	Y, r22
    3e9c:	79 83       	std	Y+1, r23	; 0x01
    3e9e:	8a 83       	std	Y+2, r24	; 0x02
    3ea0:	9b 83       	std	Y+3, r25	; 0x03
    3ea2:	cf 59       	subi	r28, 0x9F	; 159
    3ea4:	d0 40       	sbci	r29, 0x00	; 0
    3ea6:	c1 56       	subi	r28, 0x61	; 97
    3ea8:	df 4f       	sbci	r29, 0xFF	; 255
    3eaa:	88 81       	ld	r24, Y
    3eac:	99 81       	ldd	r25, Y+1	; 0x01
    3eae:	aa 81       	ldd	r26, Y+2	; 0x02
    3eb0:	bb 81       	ldd	r27, Y+3	; 0x03
    3eb2:	cf 59       	subi	r28, 0x9F	; 159
    3eb4:	d0 40       	sbci	r29, 0x00	; 0
    3eb6:	2b 96       	adiw	r28, 0x0b	; 11
    3eb8:	8c af       	std	Y+60, r24	; 0x3c
    3eba:	9d af       	std	Y+61, r25	; 0x3d
    3ebc:	ae af       	std	Y+62, r26	; 0x3e
    3ebe:	bf af       	std	Y+63, r27	; 0x3f
    3ec0:	2b 97       	sbiw	r28, 0x0b	; 11

00003ec2 <.LM84>:
    3ec2:	2b 96       	adiw	r28, 0x0b	; 11
    3ec4:	6c ad       	ldd	r22, Y+60	; 0x3c
    3ec6:	7d ad       	ldd	r23, Y+61	; 0x3d
    3ec8:	8e ad       	ldd	r24, Y+62	; 0x3e
    3eca:	9f ad       	ldd	r25, Y+63	; 0x3f
    3ecc:	2b 97       	sbiw	r28, 0x0b	; 11
    3ece:	0e 94 b6 28 	call	0x516c	; 0x516c <__fixunssfsi>
    3ed2:	cd 55       	subi	r28, 0x5D	; 93
    3ed4:	df 4f       	sbci	r29, 0xFF	; 255
    3ed6:	68 83       	st	Y, r22
    3ed8:	79 83       	std	Y+1, r23	; 0x01
    3eda:	8a 83       	std	Y+2, r24	; 0x02
    3edc:	9b 83       	std	Y+3, r25	; 0x03
    3ede:	c3 5a       	subi	r28, 0xA3	; 163
    3ee0:	d0 40       	sbci	r29, 0x00	; 0
    3ee2:	cd 55       	subi	r28, 0x5D	; 93
    3ee4:	df 4f       	sbci	r29, 0xFF	; 255
    3ee6:	a8 81       	ld	r26, Y
    3ee8:	b9 81       	ldd	r27, Y+1	; 0x01
    3eea:	c3 5a       	subi	r28, 0xA3	; 163
    3eec:	d0 40       	sbci	r29, 0x00	; 0
    3eee:	ba 87       	std	Y+10, r27	; 0x0a
    3ef0:	a9 87       	std	Y+9, r26	; 0x09

00003ef2 <.LM85>:
    3ef2:	10 c0       	rjmp	.+32     	; 0x3f14 <.L40>

00003ef4 <.L41>:
    3ef4:	80 e9       	ldi	r24, 0x90	; 144
    3ef6:	91 e0       	ldi	r25, 0x01	; 1
    3ef8:	9c 87       	std	Y+12, r25	; 0x0c
    3efa:	8b 87       	std	Y+11, r24	; 0x0b

00003efc <.LM86>:
    3efc:	8b 85       	ldd	r24, Y+11	; 0x0b
    3efe:	9c 85       	ldd	r25, Y+12	; 0x0c

00003f00 <.L1^B9>:
    3f00:	01 97       	sbiw	r24, 0x01	; 1
    3f02:	f1 f7       	brne	.-4      	; 0x3f00 <.L1^B9>
    3f04:	9c 87       	std	Y+12, r25	; 0x0c
    3f06:	8b 87       	std	Y+11, r24	; 0x0b

00003f08 <.LM87>:
	...

00003f0a <.LM88>:
    3f0a:	89 85       	ldd	r24, Y+9	; 0x09
    3f0c:	9a 85       	ldd	r25, Y+10	; 0x0a
    3f0e:	01 97       	sbiw	r24, 0x01	; 1
    3f10:	9a 87       	std	Y+10, r25	; 0x0a
    3f12:	89 87       	std	Y+9, r24	; 0x09

00003f14 <.L40>:
    3f14:	89 85       	ldd	r24, Y+9	; 0x09
    3f16:	9a 85       	ldd	r25, Y+10	; 0x0a
    3f18:	89 2b       	or	r24, r25
    3f1a:	61 f7       	brne	.-40     	; 0x3ef4 <.L41>

00003f1c <.LM90>:
    3f1c:	21 c0       	rjmp	.+66     	; 0x3f60 <.L42>

00003f1e <.L62>:
    3f1e:	6d 81       	ldd	r22, Y+5	; 0x05
    3f20:	7e 81       	ldd	r23, Y+6	; 0x06
    3f22:	8f 81       	ldd	r24, Y+7	; 0x07
    3f24:	98 85       	ldd	r25, Y+8	; 0x08
    3f26:	0e 94 b6 28 	call	0x516c	; 0x516c <__fixunssfsi>
    3f2a:	c9 55       	subi	r28, 0x59	; 89
    3f2c:	df 4f       	sbci	r29, 0xFF	; 255
    3f2e:	68 83       	st	Y, r22
    3f30:	79 83       	std	Y+1, r23	; 0x01
    3f32:	8a 83       	std	Y+2, r24	; 0x02
    3f34:	9b 83       	std	Y+3, r25	; 0x03
    3f36:	c7 5a       	subi	r28, 0xA7	; 167
    3f38:	d0 40       	sbci	r29, 0x00	; 0
    3f3a:	c9 55       	subi	r28, 0x59	; 89
    3f3c:	df 4f       	sbci	r29, 0xFF	; 255
    3f3e:	e8 81       	ld	r30, Y
    3f40:	f9 81       	ldd	r31, Y+1	; 0x01
    3f42:	c7 5a       	subi	r28, 0xA7	; 167
    3f44:	d0 40       	sbci	r29, 0x00	; 0
    3f46:	fa 87       	std	Y+10, r31	; 0x0a
    3f48:	e9 87       	std	Y+9, r30	; 0x09

00003f4a <.L37>:
    3f4a:	89 85       	ldd	r24, Y+9	; 0x09
    3f4c:	9a 85       	ldd	r25, Y+10	; 0x0a
    3f4e:	9e 87       	std	Y+14, r25	; 0x0e
    3f50:	8d 87       	std	Y+13, r24	; 0x0d

00003f52 <.LM92>:
    3f52:	8d 85       	ldd	r24, Y+13	; 0x0d
    3f54:	9e 85       	ldd	r25, Y+14	; 0x0e

00003f56 <.L1^B10>:
    3f56:	01 97       	sbiw	r24, 0x01	; 1
    3f58:	f1 f7       	brne	.-4      	; 0x3f56 <.L1^B10>
    3f5a:	9e 87       	std	Y+14, r25	; 0x0e
    3f5c:	8d 87       	std	Y+13, r24	; 0x0d

00003f5e <.LM93>:
	...

00003f60 <.L42>:
    3f60:	0e 94 bf 1f 	call	0x3f7e	; 0x3f7e <APP_Selector>

00003f64 <.LM95>:
    3f64:	00 00       	nop
    3f66:	c6 55       	subi	r28, 0x56	; 86
    3f68:	df 4f       	sbci	r29, 0xFF	; 255
    3f6a:	0f b6       	in	r0, 0x3f	; 63
    3f6c:	f8 94       	cli
    3f6e:	de bf       	out	0x3e, r29	; 62
    3f70:	0f be       	out	0x3f, r0	; 63
    3f72:	cd bf       	out	0x3d, r28	; 61
    3f74:	df 91       	pop	r29
    3f76:	cf 91       	pop	r28
    3f78:	1f 91       	pop	r17
    3f7a:	0f 91       	pop	r16
    3f7c:	08 95       	ret

00003f7e <APP_Selector>:
    3f7e:	cf 93       	push	r28
    3f80:	df 93       	push	r29
    3f82:	cd b7       	in	r28, 0x3d	; 61
    3f84:	de b7       	in	r29, 0x3e	; 62

00003f86 <.LM97>:
    3f86:	0e 94 55 1b 	call	0x36aa	; 0x36aa <LCD_clearScreen>

00003f8a <.LM98>:
    3f8a:	8d ec       	ldi	r24, 0xCD	; 205
    3f8c:	90 e0       	ldi	r25, 0x00	; 0
    3f8e:	0e 94 b6 1a 	call	0x356c	; 0x356c <LCD_displayString>

00003f92 <.LM99>:
    3f92:	80 91 38 01 	lds	r24, 0x0138	; 0x800138 <A>
    3f96:	88 2f       	mov	r24, r24
    3f98:	90 e0       	ldi	r25, 0x00	; 0
    3f9a:	0e 94 e1 1a 	call	0x35c2	; 0x35c2 <LCD_integerToString>

00003f9e <.LM100>:
    3f9e:	68 e0       	ldi	r22, 0x08	; 8
    3fa0:	80 e0       	ldi	r24, 0x00	; 0
    3fa2:	0e 94 05 1b 	call	0x360a	; 0x360a <LCD_moveCursor>

00003fa6 <.LM101>:
    3fa6:	80 ed       	ldi	r24, 0xD0	; 208
    3fa8:	90 e0       	ldi	r25, 0x00	; 0
    3faa:	0e 94 b6 1a 	call	0x356c	; 0x356c <LCD_displayString>

00003fae <.LM102>:
    3fae:	80 91 39 01 	lds	r24, 0x0139	; 0x800139 <B>
    3fb2:	88 2f       	mov	r24, r24
    3fb4:	90 e0       	ldi	r25, 0x00	; 0
    3fb6:	0e 94 e1 1a 	call	0x35c2	; 0x35c2 <LCD_integerToString>

00003fba <.LM103>:
    3fba:	60 e0       	ldi	r22, 0x00	; 0
    3fbc:	81 e0       	ldi	r24, 0x01	; 1
    3fbe:	0e 94 05 1b 	call	0x360a	; 0x360a <LCD_moveCursor>

00003fc2 <.LM104>:
    3fc2:	83 ed       	ldi	r24, 0xD3	; 211
    3fc4:	90 e0       	ldi	r25, 0x00	; 0
    3fc6:	0e 94 b6 1a 	call	0x356c	; 0x356c <LCD_displayString>

00003fca <.LM105>:
    3fca:	80 91 3a 01 	lds	r24, 0x013A	; 0x80013a <C>
    3fce:	88 2f       	mov	r24, r24
    3fd0:	90 e0       	ldi	r25, 0x00	; 0
    3fd2:	0e 94 e1 1a 	call	0x35c2	; 0x35c2 <LCD_integerToString>

00003fd6 <.LM106>:
    3fd6:	68 e0       	ldi	r22, 0x08	; 8
    3fd8:	81 e0       	ldi	r24, 0x01	; 1
    3fda:	0e 94 05 1b 	call	0x360a	; 0x360a <LCD_moveCursor>

00003fde <.LM107>:
    3fde:	86 ed       	ldi	r24, 0xD6	; 214
    3fe0:	90 e0       	ldi	r25, 0x00	; 0
    3fe2:	0e 94 b6 1a 	call	0x356c	; 0x356c <LCD_displayString>

00003fe6 <.LM108>:
    3fe6:	80 91 3b 01 	lds	r24, 0x013B	; 0x80013b <D>
    3fea:	88 2f       	mov	r24, r24
    3fec:	90 e0       	ldi	r25, 0x00	; 0
    3fee:	0e 94 e1 1a 	call	0x35c2	; 0x35c2 <LCD_integerToString>

00003ff2 <.LM109>:
    3ff2:	00 00       	nop
    3ff4:	df 91       	pop	r29
    3ff6:	cf 91       	pop	r28
    3ff8:	08 95       	ret

00003ffa <INCREMENT>:
    3ffa:	0f 93       	push	r16
    3ffc:	1f 93       	push	r17
    3ffe:	cf 93       	push	r28
    4000:	df 93       	push	r29
    4002:	cd b7       	in	r28, 0x3d	; 61
    4004:	de b7       	in	r29, 0x3e	; 62
    4006:	cf 5e       	subi	r28, 0xEF	; 239
    4008:	d1 09       	sbc	r29, r1
    400a:	0f b6       	in	r0, 0x3f	; 63
    400c:	f8 94       	cli
    400e:	de bf       	out	0x3e, r29	; 62
    4010:	0f be       	out	0x3f, r0	; 63
    4012:	cd bf       	out	0x3d, r28	; 61

00004014 <.LM111>:
    4014:	0e 94 60 1b 	call	0x36c0	; 0x36c0 <KEYPAD_getPressedKey>
    4018:	89 83       	std	Y+1, r24	; 0x01

0000401a <.LM112>:
    401a:	89 81       	ldd	r24, Y+1	; 0x01
    401c:	87 30       	cpi	r24, 0x07	; 7
    401e:	08 f4       	brcc	.+2      	; 0x4022 <.LM113>

00004020 <L0^A>:
    4020:	be c0       	rjmp	.+380    	; 0x419e <.L65>

00004022 <.LM113>:
    4022:	0e 94 55 1b 	call	0x36aa	; 0x36aa <LCD_clearScreen>

00004026 <.LM114>:
    4026:	89 ed       	ldi	r24, 0xD9	; 217
    4028:	90 e0       	ldi	r25, 0x00	; 0
    402a:	0e 94 b6 1a 	call	0x356c	; 0x356c <LCD_displayString>
    402e:	80 e0       	ldi	r24, 0x00	; 0
    4030:	90 e8       	ldi	r25, 0x80	; 128
    4032:	ab e3       	ldi	r26, 0x3B	; 59
    4034:	b5 e4       	ldi	r27, 0x45	; 69
    4036:	8a 83       	std	Y+2, r24	; 0x02
    4038:	9b 83       	std	Y+3, r25	; 0x03
    403a:	ac 83       	std	Y+4, r26	; 0x04
    403c:	bd 83       	std	Y+5, r27	; 0x05

0000403e <.LM115>:
    403e:	20 e0       	ldi	r18, 0x00	; 0
    4040:	30 e0       	ldi	r19, 0x00	; 0
    4042:	4a e7       	ldi	r20, 0x7A	; 122
    4044:	55 e4       	ldi	r21, 0x45	; 69
    4046:	6a 81       	ldd	r22, Y+2	; 0x02
    4048:	7b 81       	ldd	r23, Y+3	; 0x03
    404a:	8c 81       	ldd	r24, Y+4	; 0x04
    404c:	9d 81       	ldd	r25, Y+5	; 0x05
    404e:	0e 94 5f 29 	call	0x52be	; 0x52be <__mulsf3>
    4052:	c0 58       	subi	r28, 0x80	; 128
    4054:	df 4f       	sbci	r29, 0xFF	; 255
    4056:	68 83       	st	Y, r22
    4058:	79 83       	std	Y+1, r23	; 0x01
    405a:	8a 83       	std	Y+2, r24	; 0x02
    405c:	9b 83       	std	Y+3, r25	; 0x03
    405e:	c0 58       	subi	r28, 0x80	; 128
    4060:	d0 40       	sbci	r29, 0x00	; 0
    4062:	c0 58       	subi	r28, 0x80	; 128
    4064:	df 4f       	sbci	r29, 0xFF	; 255
    4066:	88 81       	ld	r24, Y
    4068:	99 81       	ldd	r25, Y+1	; 0x01
    406a:	aa 81       	ldd	r26, Y+2	; 0x02
    406c:	bb 81       	ldd	r27, Y+3	; 0x03
    406e:	c0 58       	subi	r28, 0x80	; 128
    4070:	d0 40       	sbci	r29, 0x00	; 0
    4072:	8e 83       	std	Y+6, r24	; 0x06
    4074:	9f 83       	std	Y+7, r25	; 0x07
    4076:	a8 87       	std	Y+8, r26	; 0x08
    4078:	b9 87       	std	Y+9, r27	; 0x09

0000407a <.LM116>:
    407a:	20 e0       	ldi	r18, 0x00	; 0
    407c:	30 e0       	ldi	r19, 0x00	; 0
    407e:	40 e8       	ldi	r20, 0x80	; 128
    4080:	5f e3       	ldi	r21, 0x3F	; 63
    4082:	6e 81       	ldd	r22, Y+6	; 0x06
    4084:	7f 81       	ldd	r23, Y+7	; 0x07
    4086:	88 85       	ldd	r24, Y+8	; 0x08
    4088:	99 85       	ldd	r25, Y+9	; 0x09
    408a:	0e 94 3f 28 	call	0x507e	; 0x507e <__cmpsf2>
    408e:	88 23       	and	r24, r24
    4090:	2c f4       	brge	.+10     	; 0x409c <.L143>

00004092 <.LM117>:
    4092:	81 e0       	ldi	r24, 0x01	; 1
    4094:	90 e0       	ldi	r25, 0x00	; 0
    4096:	9b 87       	std	Y+11, r25	; 0x0b
    4098:	8a 87       	std	Y+10, r24	; 0x0a
    409a:	71 c0       	rjmp	.+226    	; 0x417e <.L68>

0000409c <.L143>:
    409c:	20 e0       	ldi	r18, 0x00	; 0
    409e:	3f ef       	ldi	r19, 0xFF	; 255
    40a0:	4f e7       	ldi	r20, 0x7F	; 127
    40a2:	57 e4       	ldi	r21, 0x47	; 71
    40a4:	6e 81       	ldd	r22, Y+6	; 0x06
    40a6:	7f 81       	ldd	r23, Y+7	; 0x07
    40a8:	88 85       	ldd	r24, Y+8	; 0x08
    40aa:	99 85       	ldd	r25, Y+9	; 0x09
    40ac:	0e 94 5a 29 	call	0x52b4	; 0x52b4 <__gesf2>
    40b0:	18 16       	cp	r1, r24
    40b2:	0c f0       	brlt	.+2      	; 0x40b6 <.LM119>

000040b4 <L0^A>:
    40b4:	4e c0       	rjmp	.+156    	; 0x4152 <.L144>

000040b6 <.LM119>:
    40b6:	20 e0       	ldi	r18, 0x00	; 0
    40b8:	30 e0       	ldi	r19, 0x00	; 0
    40ba:	40 e2       	ldi	r20, 0x20	; 32
    40bc:	51 e4       	ldi	r21, 0x41	; 65
    40be:	6a 81       	ldd	r22, Y+2	; 0x02
    40c0:	7b 81       	ldd	r23, Y+3	; 0x03
    40c2:	8c 81       	ldd	r24, Y+4	; 0x04
    40c4:	9d 81       	ldd	r25, Y+5	; 0x05
    40c6:	0e 94 5f 29 	call	0x52be	; 0x52be <__mulsf3>
    40ca:	cc 57       	subi	r28, 0x7C	; 124
    40cc:	df 4f       	sbci	r29, 0xFF	; 255
    40ce:	68 83       	st	Y, r22
    40d0:	79 83       	std	Y+1, r23	; 0x01
    40d2:	8a 83       	std	Y+2, r24	; 0x02
    40d4:	9b 83       	std	Y+3, r25	; 0x03
    40d6:	c4 58       	subi	r28, 0x84	; 132
    40d8:	d0 40       	sbci	r29, 0x00	; 0
    40da:	cc 57       	subi	r28, 0x7C	; 124
    40dc:	df 4f       	sbci	r29, 0xFF	; 255
    40de:	88 81       	ld	r24, Y
    40e0:	99 81       	ldd	r25, Y+1	; 0x01
    40e2:	aa 81       	ldd	r26, Y+2	; 0x02
    40e4:	bb 81       	ldd	r27, Y+3	; 0x03
    40e6:	c4 58       	subi	r28, 0x84	; 132
    40e8:	d0 40       	sbci	r29, 0x00	; 0
    40ea:	a8 96       	adiw	r28, 0x28	; 40
    40ec:	8c af       	std	Y+60, r24	; 0x3c
    40ee:	9d af       	std	Y+61, r25	; 0x3d
    40f0:	ae af       	std	Y+62, r26	; 0x3e
    40f2:	bf af       	std	Y+63, r27	; 0x3f
    40f4:	a8 97       	sbiw	r28, 0x28	; 40

000040f6 <.LM120>:
    40f6:	a8 96       	adiw	r28, 0x28	; 40
    40f8:	6c ad       	ldd	r22, Y+60	; 0x3c
    40fa:	7d ad       	ldd	r23, Y+61	; 0x3d
    40fc:	8e ad       	ldd	r24, Y+62	; 0x3e
    40fe:	9f ad       	ldd	r25, Y+63	; 0x3f
    4100:	a8 97       	sbiw	r28, 0x28	; 40
    4102:	0e 94 b6 28 	call	0x516c	; 0x516c <__fixunssfsi>
    4106:	c8 57       	subi	r28, 0x78	; 120
    4108:	df 4f       	sbci	r29, 0xFF	; 255
    410a:	68 83       	st	Y, r22
    410c:	79 83       	std	Y+1, r23	; 0x01
    410e:	8a 83       	std	Y+2, r24	; 0x02
    4110:	9b 83       	std	Y+3, r25	; 0x03
    4112:	c8 58       	subi	r28, 0x88	; 136
    4114:	d0 40       	sbci	r29, 0x00	; 0
    4116:	c8 57       	subi	r28, 0x78	; 120
    4118:	df 4f       	sbci	r29, 0xFF	; 255
    411a:	a8 81       	ld	r26, Y
    411c:	b9 81       	ldd	r27, Y+1	; 0x01
    411e:	c8 58       	subi	r28, 0x88	; 136
    4120:	d0 40       	sbci	r29, 0x00	; 0
    4122:	bb 87       	std	Y+11, r27	; 0x0b
    4124:	aa 87       	std	Y+10, r26	; 0x0a

00004126 <.LM121>:
    4126:	10 c0       	rjmp	.+32     	; 0x4148 <.L71>

00004128 <.L72>:
    4128:	80 e9       	ldi	r24, 0x90	; 144
    412a:	91 e0       	ldi	r25, 0x01	; 1
    412c:	9d 87       	std	Y+13, r25	; 0x0d
    412e:	8c 87       	std	Y+12, r24	; 0x0c

00004130 <.LM122>:
    4130:	8c 85       	ldd	r24, Y+12	; 0x0c
    4132:	9d 85       	ldd	r25, Y+13	; 0x0d

00004134 <.L1^B11>:
    4134:	01 97       	sbiw	r24, 0x01	; 1
    4136:	f1 f7       	brne	.-4      	; 0x4134 <.L1^B11>
    4138:	9d 87       	std	Y+13, r25	; 0x0d
    413a:	8c 87       	std	Y+12, r24	; 0x0c

0000413c <.LM123>:
	...

0000413e <.LM124>:
    413e:	8a 85       	ldd	r24, Y+10	; 0x0a
    4140:	9b 85       	ldd	r25, Y+11	; 0x0b
    4142:	01 97       	sbiw	r24, 0x01	; 1
    4144:	9b 87       	std	Y+11, r25	; 0x0b
    4146:	8a 87       	std	Y+10, r24	; 0x0a

00004148 <.L71>:
    4148:	8a 85       	ldd	r24, Y+10	; 0x0a
    414a:	9b 85       	ldd	r25, Y+11	; 0x0b
    414c:	89 2b       	or	r24, r25
    414e:	61 f7       	brne	.-40     	; 0x4128 <.L72>

00004150 <.LM126>:
    4150:	21 c0       	rjmp	.+66     	; 0x4194 <.L73>

00004152 <.L144>:
    4152:	6e 81       	ldd	r22, Y+6	; 0x06
    4154:	7f 81       	ldd	r23, Y+7	; 0x07
    4156:	88 85       	ldd	r24, Y+8	; 0x08
    4158:	99 85       	ldd	r25, Y+9	; 0x09
    415a:	0e 94 b6 28 	call	0x516c	; 0x516c <__fixunssfsi>
    415e:	c4 57       	subi	r28, 0x74	; 116
    4160:	df 4f       	sbci	r29, 0xFF	; 255
    4162:	68 83       	st	Y, r22
    4164:	79 83       	std	Y+1, r23	; 0x01
    4166:	8a 83       	std	Y+2, r24	; 0x02
    4168:	9b 83       	std	Y+3, r25	; 0x03
    416a:	cc 58       	subi	r28, 0x8C	; 140
    416c:	d0 40       	sbci	r29, 0x00	; 0
    416e:	c4 57       	subi	r28, 0x74	; 116
    4170:	df 4f       	sbci	r29, 0xFF	; 255
    4172:	e8 81       	ld	r30, Y
    4174:	f9 81       	ldd	r31, Y+1	; 0x01
    4176:	cc 58       	subi	r28, 0x8C	; 140
    4178:	d0 40       	sbci	r29, 0x00	; 0
    417a:	fb 87       	std	Y+11, r31	; 0x0b
    417c:	ea 87       	std	Y+10, r30	; 0x0a

0000417e <.L68>:
    417e:	8a 85       	ldd	r24, Y+10	; 0x0a
    4180:	9b 85       	ldd	r25, Y+11	; 0x0b
    4182:	9f 87       	std	Y+15, r25	; 0x0f
    4184:	8e 87       	std	Y+14, r24	; 0x0e

00004186 <.LM128>:
    4186:	8e 85       	ldd	r24, Y+14	; 0x0e
    4188:	9f 85       	ldd	r25, Y+15	; 0x0f

0000418a <.L1^B12>:
    418a:	01 97       	sbiw	r24, 0x01	; 1
    418c:	f1 f7       	brne	.-4      	; 0x418a <.L1^B12>
    418e:	9f 87       	std	Y+15, r25	; 0x0f
    4190:	8e 87       	std	Y+14, r24	; 0x0e

00004192 <.LM129>:
	...

00004194 <.L73>:
    4194:	0e 94 55 1b 	call	0x36aa	; 0x36aa <LCD_clearScreen>

00004198 <.LM131>:
    4198:	0e 94 bf 1f 	call	0x3f7e	; 0x3f7e <APP_Selector>

0000419c <.LM132>:
    419c:	8a c5       	rjmp	.+2836   	; 0x4cb2 <.L157>

0000419e <.L65>:
    419e:	89 81       	ldd	r24, Y+1	; 0x01
    41a0:	88 2f       	mov	r24, r24
    41a2:	90 e0       	ldi	r25, 0x00	; 0
    41a4:	86 30       	cpi	r24, 0x06	; 6
    41a6:	91 05       	cpc	r25, r1
    41a8:	09 f4       	brne	.+2      	; 0x41ac <L0^A+0x2>

000041aa <L0^A>:
    41aa:	78 c4       	rjmp	.+2288   	; 0x4a9c <.L75>
    41ac:	87 30       	cpi	r24, 0x07	; 7
    41ae:	91 05       	cpc	r25, r1
    41b0:	0c f0       	brlt	.+2      	; 0x41b4 <L0^A+0x2>

000041b2 <L0^A>:
    41b2:	7f c5       	rjmp	.+2814   	; 0x4cb2 <.L157>
    41b4:	85 30       	cpi	r24, 0x05	; 5
    41b6:	91 05       	cpc	r25, r1
    41b8:	09 f4       	brne	.+2      	; 0x41bc <L0^A+0x2>

000041ba <L0^A>:
    41ba:	69 c3       	rjmp	.+1746   	; 0x488e <.L76>
    41bc:	86 30       	cpi	r24, 0x06	; 6
    41be:	91 05       	cpc	r25, r1
    41c0:	0c f0       	brlt	.+2      	; 0x41c4 <L0^A+0x2>

000041c2 <L0^A>:
    41c2:	77 c5       	rjmp	.+2798   	; 0x4cb2 <.L157>
    41c4:	84 30       	cpi	r24, 0x04	; 4
    41c6:	91 05       	cpc	r25, r1
    41c8:	09 f4       	brne	.+2      	; 0x41cc <L0^A+0x2>

000041ca <L0^A>:
    41ca:	5c c2       	rjmp	.+1208   	; 0x4684 <.L77>
    41cc:	85 30       	cpi	r24, 0x05	; 5
    41ce:	91 05       	cpc	r25, r1
    41d0:	0c f0       	brlt	.+2      	; 0x41d4 <L0^A+0x2>

000041d2 <L0^A>:
    41d2:	6f c5       	rjmp	.+2782   	; 0x4cb2 <.L157>
    41d4:	83 30       	cpi	r24, 0x03	; 3
    41d6:	91 05       	cpc	r25, r1
    41d8:	09 f4       	brne	.+2      	; 0x41dc <L0^A+0x2>

000041da <L0^A>:
    41da:	91 c1       	rjmp	.+802    	; 0x44fe <.L78>
    41dc:	84 30       	cpi	r24, 0x04	; 4
    41de:	91 05       	cpc	r25, r1
    41e0:	0c f0       	brlt	.+2      	; 0x41e4 <L0^A+0x2>

000041e2 <L0^A>:
    41e2:	67 c5       	rjmp	.+2766   	; 0x4cb2 <.L157>
    41e4:	81 30       	cpi	r24, 0x01	; 1
    41e6:	91 05       	cpc	r25, r1
    41e8:	21 f0       	breq	.+8      	; 0x41f2 <.L79>
    41ea:	02 97       	sbiw	r24, 0x02	; 2
    41ec:	09 f4       	brne	.+2      	; 0x41f0 <.LM134>

000041ee <L0^A>:
    41ee:	c4 c0       	rjmp	.+392    	; 0x4378 <.L80>

000041f0 <.LM134>:
    41f0:	60 c5       	rjmp	.+2752   	; 0x4cb2 <.L157>

000041f2 <.L79>:
    41f2:	80 e0       	ldi	r24, 0x00	; 0
    41f4:	90 e0       	ldi	r25, 0x00	; 0
    41f6:	aa ef       	ldi	r26, 0xFA	; 250
    41f8:	b3 e4       	ldi	r27, 0x43	; 67
    41fa:	88 8b       	std	Y+16, r24	; 0x10
    41fc:	99 8b       	std	Y+17, r25	; 0x11
    41fe:	aa 8b       	std	Y+18, r26	; 0x12
    4200:	bb 8b       	std	Y+19, r27	; 0x13

00004202 <.LM135>:
    4202:	20 e0       	ldi	r18, 0x00	; 0
    4204:	30 e0       	ldi	r19, 0x00	; 0
    4206:	4a e7       	ldi	r20, 0x7A	; 122
    4208:	55 e4       	ldi	r21, 0x45	; 69
    420a:	68 89       	ldd	r22, Y+16	; 0x10
    420c:	79 89       	ldd	r23, Y+17	; 0x11
    420e:	8a 89       	ldd	r24, Y+18	; 0x12
    4210:	9b 89       	ldd	r25, Y+19	; 0x13
    4212:	0e 94 5f 29 	call	0x52be	; 0x52be <__mulsf3>
    4216:	c0 57       	subi	r28, 0x70	; 112
    4218:	df 4f       	sbci	r29, 0xFF	; 255
    421a:	68 83       	st	Y, r22
    421c:	79 83       	std	Y+1, r23	; 0x01
    421e:	8a 83       	std	Y+2, r24	; 0x02
    4220:	9b 83       	std	Y+3, r25	; 0x03
    4222:	c0 59       	subi	r28, 0x90	; 144
    4224:	d0 40       	sbci	r29, 0x00	; 0
    4226:	c0 57       	subi	r28, 0x70	; 112
    4228:	df 4f       	sbci	r29, 0xFF	; 255
    422a:	88 81       	ld	r24, Y
    422c:	99 81       	ldd	r25, Y+1	; 0x01
    422e:	aa 81       	ldd	r26, Y+2	; 0x02
    4230:	bb 81       	ldd	r27, Y+3	; 0x03
    4232:	c0 59       	subi	r28, 0x90	; 144
    4234:	d0 40       	sbci	r29, 0x00	; 0
    4236:	8c 8b       	std	Y+20, r24	; 0x14
    4238:	9d 8b       	std	Y+21, r25	; 0x15
    423a:	ae 8b       	std	Y+22, r26	; 0x16
    423c:	bf 8b       	std	Y+23, r27	; 0x17

0000423e <.LM136>:
    423e:	20 e0       	ldi	r18, 0x00	; 0
    4240:	30 e0       	ldi	r19, 0x00	; 0
    4242:	40 e8       	ldi	r20, 0x80	; 128
    4244:	5f e3       	ldi	r21, 0x3F	; 63
    4246:	6c 89       	ldd	r22, Y+20	; 0x14
    4248:	7d 89       	ldd	r23, Y+21	; 0x15
    424a:	8e 89       	ldd	r24, Y+22	; 0x16
    424c:	9f 89       	ldd	r25, Y+23	; 0x17
    424e:	0e 94 3f 28 	call	0x507e	; 0x507e <__cmpsf2>
    4252:	88 23       	and	r24, r24
    4254:	2c f4       	brge	.+10     	; 0x4260 <.L145>

00004256 <.LM137>:
    4256:	81 e0       	ldi	r24, 0x01	; 1
    4258:	90 e0       	ldi	r25, 0x00	; 0
    425a:	99 8f       	std	Y+25, r25	; 0x19
    425c:	88 8f       	std	Y+24, r24	; 0x18
    425e:	71 c0       	rjmp	.+226    	; 0x4342 <.L83>

00004260 <.L145>:
    4260:	20 e0       	ldi	r18, 0x00	; 0
    4262:	3f ef       	ldi	r19, 0xFF	; 255
    4264:	4f e7       	ldi	r20, 0x7F	; 127
    4266:	57 e4       	ldi	r21, 0x47	; 71
    4268:	6c 89       	ldd	r22, Y+20	; 0x14
    426a:	7d 89       	ldd	r23, Y+21	; 0x15
    426c:	8e 89       	ldd	r24, Y+22	; 0x16
    426e:	9f 89       	ldd	r25, Y+23	; 0x17
    4270:	0e 94 5a 29 	call	0x52b4	; 0x52b4 <__gesf2>
    4274:	18 16       	cp	r1, r24
    4276:	0c f0       	brlt	.+2      	; 0x427a <.LM139>

00004278 <L0^A>:
    4278:	4e c0       	rjmp	.+156    	; 0x4316 <.L146>

0000427a <.LM139>:
    427a:	20 e0       	ldi	r18, 0x00	; 0
    427c:	30 e0       	ldi	r19, 0x00	; 0
    427e:	40 e2       	ldi	r20, 0x20	; 32
    4280:	51 e4       	ldi	r21, 0x41	; 65
    4282:	68 89       	ldd	r22, Y+16	; 0x10
    4284:	79 89       	ldd	r23, Y+17	; 0x11
    4286:	8a 89       	ldd	r24, Y+18	; 0x12
    4288:	9b 89       	ldd	r25, Y+19	; 0x13
    428a:	0e 94 5f 29 	call	0x52be	; 0x52be <__mulsf3>
    428e:	cc 56       	subi	r28, 0x6C	; 108
    4290:	df 4f       	sbci	r29, 0xFF	; 255
    4292:	68 83       	st	Y, r22
    4294:	79 83       	std	Y+1, r23	; 0x01
    4296:	8a 83       	std	Y+2, r24	; 0x02
    4298:	9b 83       	std	Y+3, r25	; 0x03
    429a:	c4 59       	subi	r28, 0x94	; 148
    429c:	d0 40       	sbci	r29, 0x00	; 0
    429e:	cc 56       	subi	r28, 0x6C	; 108
    42a0:	df 4f       	sbci	r29, 0xFF	; 255
    42a2:	88 81       	ld	r24, Y
    42a4:	99 81       	ldd	r25, Y+1	; 0x01
    42a6:	aa 81       	ldd	r26, Y+2	; 0x02
    42a8:	bb 81       	ldd	r27, Y+3	; 0x03
    42aa:	c4 59       	subi	r28, 0x94	; 148
    42ac:	d0 40       	sbci	r29, 0x00	; 0
    42ae:	ac 96       	adiw	r28, 0x2c	; 44
    42b0:	8c af       	std	Y+60, r24	; 0x3c
    42b2:	9d af       	std	Y+61, r25	; 0x3d
    42b4:	ae af       	std	Y+62, r26	; 0x3e
    42b6:	bf af       	std	Y+63, r27	; 0x3f
    42b8:	ac 97       	sbiw	r28, 0x2c	; 44

000042ba <.LM140>:
    42ba:	ac 96       	adiw	r28, 0x2c	; 44
    42bc:	6c ad       	ldd	r22, Y+60	; 0x3c
    42be:	7d ad       	ldd	r23, Y+61	; 0x3d
    42c0:	8e ad       	ldd	r24, Y+62	; 0x3e
    42c2:	9f ad       	ldd	r25, Y+63	; 0x3f
    42c4:	ac 97       	sbiw	r28, 0x2c	; 44
    42c6:	0e 94 b6 28 	call	0x516c	; 0x516c <__fixunssfsi>
    42ca:	c8 56       	subi	r28, 0x68	; 104
    42cc:	df 4f       	sbci	r29, 0xFF	; 255
    42ce:	68 83       	st	Y, r22
    42d0:	79 83       	std	Y+1, r23	; 0x01
    42d2:	8a 83       	std	Y+2, r24	; 0x02
    42d4:	9b 83       	std	Y+3, r25	; 0x03
    42d6:	c8 59       	subi	r28, 0x98	; 152
    42d8:	d0 40       	sbci	r29, 0x00	; 0
    42da:	c8 56       	subi	r28, 0x68	; 104
    42dc:	df 4f       	sbci	r29, 0xFF	; 255
    42de:	a8 81       	ld	r26, Y
    42e0:	b9 81       	ldd	r27, Y+1	; 0x01
    42e2:	c8 59       	subi	r28, 0x98	; 152
    42e4:	d0 40       	sbci	r29, 0x00	; 0
    42e6:	b9 8f       	std	Y+25, r27	; 0x19
    42e8:	a8 8f       	std	Y+24, r26	; 0x18

000042ea <.LM141>:
    42ea:	10 c0       	rjmp	.+32     	; 0x430c <.L86>

000042ec <.L87>:
    42ec:	80 e9       	ldi	r24, 0x90	; 144
    42ee:	91 e0       	ldi	r25, 0x01	; 1
    42f0:	9b 8f       	std	Y+27, r25	; 0x1b
    42f2:	8a 8f       	std	Y+26, r24	; 0x1a

000042f4 <.LM142>:
    42f4:	8a 8d       	ldd	r24, Y+26	; 0x1a
    42f6:	9b 8d       	ldd	r25, Y+27	; 0x1b

000042f8 <.L1^B13>:
    42f8:	01 97       	sbiw	r24, 0x01	; 1
    42fa:	f1 f7       	brne	.-4      	; 0x42f8 <.L1^B13>
    42fc:	9b 8f       	std	Y+27, r25	; 0x1b
    42fe:	8a 8f       	std	Y+26, r24	; 0x1a

00004300 <.LM143>:
	...

00004302 <.LM144>:
    4302:	88 8d       	ldd	r24, Y+24	; 0x18
    4304:	99 8d       	ldd	r25, Y+25	; 0x19
    4306:	01 97       	sbiw	r24, 0x01	; 1
    4308:	99 8f       	std	Y+25, r25	; 0x19
    430a:	88 8f       	std	Y+24, r24	; 0x18

0000430c <.L86>:
    430c:	88 8d       	ldd	r24, Y+24	; 0x18
    430e:	99 8d       	ldd	r25, Y+25	; 0x19
    4310:	89 2b       	or	r24, r25
    4312:	61 f7       	brne	.-40     	; 0x42ec <.L87>

00004314 <.LM146>:
    4314:	21 c0       	rjmp	.+66     	; 0x4358 <.L88>

00004316 <.L146>:
    4316:	6c 89       	ldd	r22, Y+20	; 0x14
    4318:	7d 89       	ldd	r23, Y+21	; 0x15
    431a:	8e 89       	ldd	r24, Y+22	; 0x16
    431c:	9f 89       	ldd	r25, Y+23	; 0x17
    431e:	0e 94 b6 28 	call	0x516c	; 0x516c <__fixunssfsi>
    4322:	c4 56       	subi	r28, 0x64	; 100
    4324:	df 4f       	sbci	r29, 0xFF	; 255
    4326:	68 83       	st	Y, r22
    4328:	79 83       	std	Y+1, r23	; 0x01
    432a:	8a 83       	std	Y+2, r24	; 0x02
    432c:	9b 83       	std	Y+3, r25	; 0x03
    432e:	cc 59       	subi	r28, 0x9C	; 156
    4330:	d0 40       	sbci	r29, 0x00	; 0
    4332:	c4 56       	subi	r28, 0x64	; 100
    4334:	df 4f       	sbci	r29, 0xFF	; 255
    4336:	e8 81       	ld	r30, Y
    4338:	f9 81       	ldd	r31, Y+1	; 0x01
    433a:	cc 59       	subi	r28, 0x9C	; 156
    433c:	d0 40       	sbci	r29, 0x00	; 0
    433e:	f9 8f       	std	Y+25, r31	; 0x19
    4340:	e8 8f       	std	Y+24, r30	; 0x18

00004342 <.L83>:
    4342:	88 8d       	ldd	r24, Y+24	; 0x18
    4344:	99 8d       	ldd	r25, Y+25	; 0x19
    4346:	9d 8f       	std	Y+29, r25	; 0x1d
    4348:	8c 8f       	std	Y+28, r24	; 0x1c

0000434a <.LM148>:
    434a:	8c 8d       	ldd	r24, Y+28	; 0x1c
    434c:	9d 8d       	ldd	r25, Y+29	; 0x1d

0000434e <.L1^B14>:
    434e:	01 97       	sbiw	r24, 0x01	; 1
    4350:	f1 f7       	brne	.-4      	; 0x434e <.L1^B14>
    4352:	9d 8f       	std	Y+29, r25	; 0x1d
    4354:	8c 8f       	std	Y+28, r24	; 0x1c

00004356 <.LM149>:
	...

00004358 <.L88>:
    4358:	80 91 38 01 	lds	r24, 0x0138	; 0x800138 <A>
    435c:	8f 5f       	subi	r24, 0xFF	; 255
    435e:	80 93 38 01 	sts	0x0138, r24	; 0x800138 <A>

00004362 <.LM151>:
    4362:	62 e0       	ldi	r22, 0x02	; 2
    4364:	80 e0       	ldi	r24, 0x00	; 0
    4366:	0e 94 05 1b 	call	0x360a	; 0x360a <LCD_moveCursor>

0000436a <.LM152>:
    436a:	80 91 38 01 	lds	r24, 0x0138	; 0x800138 <A>
    436e:	88 2f       	mov	r24, r24
    4370:	90 e0       	ldi	r25, 0x00	; 0
    4372:	0e 94 e1 1a 	call	0x35c2	; 0x35c2 <LCD_integerToString>

00004376 <.LM153>:
    4376:	9d c4       	rjmp	.+2362   	; 0x4cb2 <.L157>

00004378 <.L80>:
    4378:	80 e0       	ldi	r24, 0x00	; 0
    437a:	90 e0       	ldi	r25, 0x00	; 0
    437c:	aa ef       	ldi	r26, 0xFA	; 250
    437e:	b3 e4       	ldi	r27, 0x43	; 67
    4380:	8e 8f       	std	Y+30, r24	; 0x1e
    4382:	9f 8f       	std	Y+31, r25	; 0x1f
    4384:	a8 a3       	std	Y+32, r26	; 0x20
    4386:	b9 a3       	std	Y+33, r27	; 0x21

00004388 <.LM154>:
    4388:	20 e0       	ldi	r18, 0x00	; 0
    438a:	30 e0       	ldi	r19, 0x00	; 0
    438c:	4a e7       	ldi	r20, 0x7A	; 122
    438e:	55 e4       	ldi	r21, 0x45	; 69
    4390:	6e 8d       	ldd	r22, Y+30	; 0x1e
    4392:	7f 8d       	ldd	r23, Y+31	; 0x1f
    4394:	88 a1       	ldd	r24, Y+32	; 0x20
    4396:	99 a1       	ldd	r25, Y+33	; 0x21
    4398:	0e 94 5f 29 	call	0x52be	; 0x52be <__mulsf3>
    439c:	c0 56       	subi	r28, 0x60	; 96
    439e:	df 4f       	sbci	r29, 0xFF	; 255
    43a0:	68 83       	st	Y, r22
    43a2:	79 83       	std	Y+1, r23	; 0x01
    43a4:	8a 83       	std	Y+2, r24	; 0x02
    43a6:	9b 83       	std	Y+3, r25	; 0x03
    43a8:	c0 5a       	subi	r28, 0xA0	; 160
    43aa:	d0 40       	sbci	r29, 0x00	; 0
    43ac:	c0 56       	subi	r28, 0x60	; 96
    43ae:	df 4f       	sbci	r29, 0xFF	; 255
    43b0:	88 81       	ld	r24, Y
    43b2:	99 81       	ldd	r25, Y+1	; 0x01
    43b4:	aa 81       	ldd	r26, Y+2	; 0x02
    43b6:	bb 81       	ldd	r27, Y+3	; 0x03
    43b8:	c0 5a       	subi	r28, 0xA0	; 160
    43ba:	d0 40       	sbci	r29, 0x00	; 0
    43bc:	8a a3       	std	Y+34, r24	; 0x22
    43be:	9b a3       	std	Y+35, r25	; 0x23
    43c0:	ac a3       	std	Y+36, r26	; 0x24
    43c2:	bd a3       	std	Y+37, r27	; 0x25

000043c4 <.LM155>:
    43c4:	20 e0       	ldi	r18, 0x00	; 0
    43c6:	30 e0       	ldi	r19, 0x00	; 0
    43c8:	40 e8       	ldi	r20, 0x80	; 128
    43ca:	5f e3       	ldi	r21, 0x3F	; 63
    43cc:	6a a1       	ldd	r22, Y+34	; 0x22
    43ce:	7b a1       	ldd	r23, Y+35	; 0x23
    43d0:	8c a1       	ldd	r24, Y+36	; 0x24
    43d2:	9d a1       	ldd	r25, Y+37	; 0x25
    43d4:	0e 94 3f 28 	call	0x507e	; 0x507e <__cmpsf2>
    43d8:	88 23       	and	r24, r24
    43da:	2c f4       	brge	.+10     	; 0x43e6 <.L147>

000043dc <.LM156>:
    43dc:	81 e0       	ldi	r24, 0x01	; 1
    43de:	90 e0       	ldi	r25, 0x00	; 0
    43e0:	9f a3       	std	Y+39, r25	; 0x27
    43e2:	8e a3       	std	Y+38, r24	; 0x26
    43e4:	71 c0       	rjmp	.+226    	; 0x44c8 <.L91>

000043e6 <.L147>:
    43e6:	20 e0       	ldi	r18, 0x00	; 0
    43e8:	3f ef       	ldi	r19, 0xFF	; 255
    43ea:	4f e7       	ldi	r20, 0x7F	; 127
    43ec:	57 e4       	ldi	r21, 0x47	; 71
    43ee:	6a a1       	ldd	r22, Y+34	; 0x22
    43f0:	7b a1       	ldd	r23, Y+35	; 0x23
    43f2:	8c a1       	ldd	r24, Y+36	; 0x24
    43f4:	9d a1       	ldd	r25, Y+37	; 0x25
    43f6:	0e 94 5a 29 	call	0x52b4	; 0x52b4 <__gesf2>
    43fa:	18 16       	cp	r1, r24
    43fc:	0c f0       	brlt	.+2      	; 0x4400 <.LM158>

000043fe <L0^A>:
    43fe:	4e c0       	rjmp	.+156    	; 0x449c <.L148>

00004400 <.LM158>:
    4400:	20 e0       	ldi	r18, 0x00	; 0
    4402:	30 e0       	ldi	r19, 0x00	; 0
    4404:	40 e2       	ldi	r20, 0x20	; 32
    4406:	51 e4       	ldi	r21, 0x41	; 65
    4408:	6e 8d       	ldd	r22, Y+30	; 0x1e
    440a:	7f 8d       	ldd	r23, Y+31	; 0x1f
    440c:	88 a1       	ldd	r24, Y+32	; 0x20
    440e:	99 a1       	ldd	r25, Y+33	; 0x21
    4410:	0e 94 5f 29 	call	0x52be	; 0x52be <__mulsf3>
    4414:	cc 55       	subi	r28, 0x5C	; 92
    4416:	df 4f       	sbci	r29, 0xFF	; 255
    4418:	68 83       	st	Y, r22
    441a:	79 83       	std	Y+1, r23	; 0x01
    441c:	8a 83       	std	Y+2, r24	; 0x02
    441e:	9b 83       	std	Y+3, r25	; 0x03
    4420:	c4 5a       	subi	r28, 0xA4	; 164
    4422:	d0 40       	sbci	r29, 0x00	; 0
    4424:	cc 55       	subi	r28, 0x5C	; 92
    4426:	df 4f       	sbci	r29, 0xFF	; 255
    4428:	88 81       	ld	r24, Y
    442a:	99 81       	ldd	r25, Y+1	; 0x01
    442c:	aa 81       	ldd	r26, Y+2	; 0x02
    442e:	bb 81       	ldd	r27, Y+3	; 0x03
    4430:	c4 5a       	subi	r28, 0xA4	; 164
    4432:	d0 40       	sbci	r29, 0x00	; 0
    4434:	e0 96       	adiw	r28, 0x30	; 48
    4436:	8c af       	std	Y+60, r24	; 0x3c
    4438:	9d af       	std	Y+61, r25	; 0x3d
    443a:	ae af       	std	Y+62, r26	; 0x3e
    443c:	bf af       	std	Y+63, r27	; 0x3f
    443e:	e0 97       	sbiw	r28, 0x30	; 48

00004440 <.LM159>:
    4440:	e0 96       	adiw	r28, 0x30	; 48
    4442:	6c ad       	ldd	r22, Y+60	; 0x3c
    4444:	7d ad       	ldd	r23, Y+61	; 0x3d
    4446:	8e ad       	ldd	r24, Y+62	; 0x3e
    4448:	9f ad       	ldd	r25, Y+63	; 0x3f
    444a:	e0 97       	sbiw	r28, 0x30	; 48
    444c:	0e 94 b6 28 	call	0x516c	; 0x516c <__fixunssfsi>
    4450:	c8 55       	subi	r28, 0x58	; 88
    4452:	df 4f       	sbci	r29, 0xFF	; 255
    4454:	68 83       	st	Y, r22
    4456:	79 83       	std	Y+1, r23	; 0x01
    4458:	8a 83       	std	Y+2, r24	; 0x02
    445a:	9b 83       	std	Y+3, r25	; 0x03
    445c:	c8 5a       	subi	r28, 0xA8	; 168
    445e:	d0 40       	sbci	r29, 0x00	; 0
    4460:	c8 55       	subi	r28, 0x58	; 88
    4462:	df 4f       	sbci	r29, 0xFF	; 255
    4464:	a8 81       	ld	r26, Y
    4466:	b9 81       	ldd	r27, Y+1	; 0x01
    4468:	c8 5a       	subi	r28, 0xA8	; 168
    446a:	d0 40       	sbci	r29, 0x00	; 0
    446c:	bf a3       	std	Y+39, r27	; 0x27
    446e:	ae a3       	std	Y+38, r26	; 0x26

00004470 <.LM160>:
    4470:	10 c0       	rjmp	.+32     	; 0x4492 <.L94>

00004472 <.L95>:
    4472:	80 e9       	ldi	r24, 0x90	; 144
    4474:	91 e0       	ldi	r25, 0x01	; 1
    4476:	99 a7       	std	Y+41, r25	; 0x29
    4478:	88 a7       	std	Y+40, r24	; 0x28

0000447a <.LM161>:
    447a:	88 a5       	ldd	r24, Y+40	; 0x28
    447c:	99 a5       	ldd	r25, Y+41	; 0x29

0000447e <.L1^B15>:
    447e:	01 97       	sbiw	r24, 0x01	; 1
    4480:	f1 f7       	brne	.-4      	; 0x447e <.L1^B15>
    4482:	99 a7       	std	Y+41, r25	; 0x29
    4484:	88 a7       	std	Y+40, r24	; 0x28

00004486 <.LM162>:
	...

00004488 <.LM163>:
    4488:	8e a1       	ldd	r24, Y+38	; 0x26
    448a:	9f a1       	ldd	r25, Y+39	; 0x27
    448c:	01 97       	sbiw	r24, 0x01	; 1
    448e:	9f a3       	std	Y+39, r25	; 0x27
    4490:	8e a3       	std	Y+38, r24	; 0x26

00004492 <.L94>:
    4492:	8e a1       	ldd	r24, Y+38	; 0x26
    4494:	9f a1       	ldd	r25, Y+39	; 0x27
    4496:	89 2b       	or	r24, r25
    4498:	61 f7       	brne	.-40     	; 0x4472 <.L95>

0000449a <.LM165>:
    449a:	21 c0       	rjmp	.+66     	; 0x44de <.L96>

0000449c <.L148>:
    449c:	6a a1       	ldd	r22, Y+34	; 0x22
    449e:	7b a1       	ldd	r23, Y+35	; 0x23
    44a0:	8c a1       	ldd	r24, Y+36	; 0x24
    44a2:	9d a1       	ldd	r25, Y+37	; 0x25
    44a4:	0e 94 b6 28 	call	0x516c	; 0x516c <__fixunssfsi>
    44a8:	c4 55       	subi	r28, 0x54	; 84
    44aa:	df 4f       	sbci	r29, 0xFF	; 255
    44ac:	68 83       	st	Y, r22
    44ae:	79 83       	std	Y+1, r23	; 0x01
    44b0:	8a 83       	std	Y+2, r24	; 0x02
    44b2:	9b 83       	std	Y+3, r25	; 0x03
    44b4:	cc 5a       	subi	r28, 0xAC	; 172
    44b6:	d0 40       	sbci	r29, 0x00	; 0
    44b8:	c4 55       	subi	r28, 0x54	; 84
    44ba:	df 4f       	sbci	r29, 0xFF	; 255
    44bc:	e8 81       	ld	r30, Y
    44be:	f9 81       	ldd	r31, Y+1	; 0x01
    44c0:	cc 5a       	subi	r28, 0xAC	; 172
    44c2:	d0 40       	sbci	r29, 0x00	; 0
    44c4:	ff a3       	std	Y+39, r31	; 0x27
    44c6:	ee a3       	std	Y+38, r30	; 0x26

000044c8 <.L91>:
    44c8:	8e a1       	ldd	r24, Y+38	; 0x26
    44ca:	9f a1       	ldd	r25, Y+39	; 0x27
    44cc:	9b a7       	std	Y+43, r25	; 0x2b
    44ce:	8a a7       	std	Y+42, r24	; 0x2a

000044d0 <.LM167>:
    44d0:	8a a5       	ldd	r24, Y+42	; 0x2a
    44d2:	9b a5       	ldd	r25, Y+43	; 0x2b

000044d4 <.L1^B16>:
    44d4:	01 97       	sbiw	r24, 0x01	; 1
    44d6:	f1 f7       	brne	.-4      	; 0x44d4 <.L1^B16>
    44d8:	9b a7       	std	Y+43, r25	; 0x2b
    44da:	8a a7       	std	Y+42, r24	; 0x2a

000044dc <.LM168>:
	...

000044de <.L96>:
    44de:	80 91 39 01 	lds	r24, 0x0139	; 0x800139 <B>
    44e2:	8f 5f       	subi	r24, 0xFF	; 255
    44e4:	80 93 39 01 	sts	0x0139, r24	; 0x800139 <B>

000044e8 <.LM170>:
    44e8:	6a e0       	ldi	r22, 0x0A	; 10
    44ea:	80 e0       	ldi	r24, 0x00	; 0
    44ec:	0e 94 05 1b 	call	0x360a	; 0x360a <LCD_moveCursor>

000044f0 <.LM171>:
    44f0:	80 91 39 01 	lds	r24, 0x0139	; 0x800139 <B>
    44f4:	88 2f       	mov	r24, r24
    44f6:	90 e0       	ldi	r25, 0x00	; 0
    44f8:	0e 94 e1 1a 	call	0x35c2	; 0x35c2 <LCD_integerToString>

000044fc <.LM172>:
    44fc:	da c3       	rjmp	.+1972   	; 0x4cb2 <.L157>

000044fe <.L78>:
    44fe:	80 e0       	ldi	r24, 0x00	; 0
    4500:	90 e0       	ldi	r25, 0x00	; 0
    4502:	aa ef       	ldi	r26, 0xFA	; 250
    4504:	b3 e4       	ldi	r27, 0x43	; 67
    4506:	8c a7       	std	Y+44, r24	; 0x2c
    4508:	9d a7       	std	Y+45, r25	; 0x2d
    450a:	ae a7       	std	Y+46, r26	; 0x2e
    450c:	bf a7       	std	Y+47, r27	; 0x2f

0000450e <.LM173>:
    450e:	20 e0       	ldi	r18, 0x00	; 0
    4510:	30 e0       	ldi	r19, 0x00	; 0
    4512:	4a e7       	ldi	r20, 0x7A	; 122
    4514:	55 e4       	ldi	r21, 0x45	; 69
    4516:	6c a5       	ldd	r22, Y+44	; 0x2c
    4518:	7d a5       	ldd	r23, Y+45	; 0x2d
    451a:	8e a5       	ldd	r24, Y+46	; 0x2e
    451c:	9f a5       	ldd	r25, Y+47	; 0x2f
    451e:	0e 94 5f 29 	call	0x52be	; 0x52be <__mulsf3>
    4522:	c0 55       	subi	r28, 0x50	; 80
    4524:	df 4f       	sbci	r29, 0xFF	; 255
    4526:	68 83       	st	Y, r22
    4528:	79 83       	std	Y+1, r23	; 0x01
    452a:	8a 83       	std	Y+2, r24	; 0x02
    452c:	9b 83       	std	Y+3, r25	; 0x03
    452e:	c0 5b       	subi	r28, 0xB0	; 176
    4530:	d0 40       	sbci	r29, 0x00	; 0
    4532:	c0 55       	subi	r28, 0x50	; 80
    4534:	df 4f       	sbci	r29, 0xFF	; 255
    4536:	88 81       	ld	r24, Y
    4538:	99 81       	ldd	r25, Y+1	; 0x01
    453a:	aa 81       	ldd	r26, Y+2	; 0x02
    453c:	bb 81       	ldd	r27, Y+3	; 0x03
    453e:	c0 5b       	subi	r28, 0xB0	; 176
    4540:	d0 40       	sbci	r29, 0x00	; 0
    4542:	88 ab       	std	Y+48, r24	; 0x30
    4544:	99 ab       	std	Y+49, r25	; 0x31
    4546:	aa ab       	std	Y+50, r26	; 0x32
    4548:	bb ab       	std	Y+51, r27	; 0x33

0000454a <.LM174>:
    454a:	20 e0       	ldi	r18, 0x00	; 0
    454c:	30 e0       	ldi	r19, 0x00	; 0
    454e:	40 e8       	ldi	r20, 0x80	; 128
    4550:	5f e3       	ldi	r21, 0x3F	; 63
    4552:	68 a9       	ldd	r22, Y+48	; 0x30
    4554:	79 a9       	ldd	r23, Y+49	; 0x31
    4556:	8a a9       	ldd	r24, Y+50	; 0x32
    4558:	9b a9       	ldd	r25, Y+51	; 0x33
    455a:	0e 94 3f 28 	call	0x507e	; 0x507e <__cmpsf2>
    455e:	88 23       	and	r24, r24
    4560:	2c f4       	brge	.+10     	; 0x456c <.L149>

00004562 <.LM175>:
    4562:	81 e0       	ldi	r24, 0x01	; 1
    4564:	90 e0       	ldi	r25, 0x00	; 0
    4566:	9d ab       	std	Y+53, r25	; 0x35
    4568:	8c ab       	std	Y+52, r24	; 0x34
    456a:	71 c0       	rjmp	.+226    	; 0x464e <.L99>

0000456c <.L149>:
    456c:	20 e0       	ldi	r18, 0x00	; 0
    456e:	3f ef       	ldi	r19, 0xFF	; 255
    4570:	4f e7       	ldi	r20, 0x7F	; 127
    4572:	57 e4       	ldi	r21, 0x47	; 71
    4574:	68 a9       	ldd	r22, Y+48	; 0x30
    4576:	79 a9       	ldd	r23, Y+49	; 0x31
    4578:	8a a9       	ldd	r24, Y+50	; 0x32
    457a:	9b a9       	ldd	r25, Y+51	; 0x33
    457c:	0e 94 5a 29 	call	0x52b4	; 0x52b4 <__gesf2>
    4580:	18 16       	cp	r1, r24
    4582:	0c f0       	brlt	.+2      	; 0x4586 <.LM177>

00004584 <L0^A>:
    4584:	4e c0       	rjmp	.+156    	; 0x4622 <.L150>

00004586 <.LM177>:
    4586:	20 e0       	ldi	r18, 0x00	; 0
    4588:	30 e0       	ldi	r19, 0x00	; 0
    458a:	40 e2       	ldi	r20, 0x20	; 32
    458c:	51 e4       	ldi	r21, 0x41	; 65
    458e:	6c a5       	ldd	r22, Y+44	; 0x2c
    4590:	7d a5       	ldd	r23, Y+45	; 0x2d
    4592:	8e a5       	ldd	r24, Y+46	; 0x2e
    4594:	9f a5       	ldd	r25, Y+47	; 0x2f
    4596:	0e 94 5f 29 	call	0x52be	; 0x52be <__mulsf3>
    459a:	cc 54       	subi	r28, 0x4C	; 76
    459c:	df 4f       	sbci	r29, 0xFF	; 255
    459e:	68 83       	st	Y, r22
    45a0:	79 83       	std	Y+1, r23	; 0x01
    45a2:	8a 83       	std	Y+2, r24	; 0x02
    45a4:	9b 83       	std	Y+3, r25	; 0x03
    45a6:	c4 5b       	subi	r28, 0xB4	; 180
    45a8:	d0 40       	sbci	r29, 0x00	; 0
    45aa:	cc 54       	subi	r28, 0x4C	; 76
    45ac:	df 4f       	sbci	r29, 0xFF	; 255
    45ae:	88 81       	ld	r24, Y
    45b0:	99 81       	ldd	r25, Y+1	; 0x01
    45b2:	aa 81       	ldd	r26, Y+2	; 0x02
    45b4:	bb 81       	ldd	r27, Y+3	; 0x03
    45b6:	c4 5b       	subi	r28, 0xB4	; 180
    45b8:	d0 40       	sbci	r29, 0x00	; 0
    45ba:	e4 96       	adiw	r28, 0x34	; 52
    45bc:	8c af       	std	Y+60, r24	; 0x3c
    45be:	9d af       	std	Y+61, r25	; 0x3d
    45c0:	ae af       	std	Y+62, r26	; 0x3e
    45c2:	bf af       	std	Y+63, r27	; 0x3f
    45c4:	e4 97       	sbiw	r28, 0x34	; 52

000045c6 <.LM178>:
    45c6:	e4 96       	adiw	r28, 0x34	; 52
    45c8:	6c ad       	ldd	r22, Y+60	; 0x3c
    45ca:	7d ad       	ldd	r23, Y+61	; 0x3d
    45cc:	8e ad       	ldd	r24, Y+62	; 0x3e
    45ce:	9f ad       	ldd	r25, Y+63	; 0x3f
    45d0:	e4 97       	sbiw	r28, 0x34	; 52
    45d2:	0e 94 b6 28 	call	0x516c	; 0x516c <__fixunssfsi>
    45d6:	c8 54       	subi	r28, 0x48	; 72
    45d8:	df 4f       	sbci	r29, 0xFF	; 255
    45da:	68 83       	st	Y, r22
    45dc:	79 83       	std	Y+1, r23	; 0x01
    45de:	8a 83       	std	Y+2, r24	; 0x02
    45e0:	9b 83       	std	Y+3, r25	; 0x03
    45e2:	c8 5b       	subi	r28, 0xB8	; 184
    45e4:	d0 40       	sbci	r29, 0x00	; 0
    45e6:	c8 54       	subi	r28, 0x48	; 72
    45e8:	df 4f       	sbci	r29, 0xFF	; 255
    45ea:	a8 81       	ld	r26, Y
    45ec:	b9 81       	ldd	r27, Y+1	; 0x01
    45ee:	c8 5b       	subi	r28, 0xB8	; 184
    45f0:	d0 40       	sbci	r29, 0x00	; 0
    45f2:	bd ab       	std	Y+53, r27	; 0x35
    45f4:	ac ab       	std	Y+52, r26	; 0x34

000045f6 <.LM179>:
    45f6:	10 c0       	rjmp	.+32     	; 0x4618 <.L102>

000045f8 <.L103>:
    45f8:	80 e9       	ldi	r24, 0x90	; 144
    45fa:	91 e0       	ldi	r25, 0x01	; 1
    45fc:	9f ab       	std	Y+55, r25	; 0x37
    45fe:	8e ab       	std	Y+54, r24	; 0x36

00004600 <.LM180>:
    4600:	8e a9       	ldd	r24, Y+54	; 0x36
    4602:	9f a9       	ldd	r25, Y+55	; 0x37

00004604 <.L1^B17>:
    4604:	01 97       	sbiw	r24, 0x01	; 1
    4606:	f1 f7       	brne	.-4      	; 0x4604 <.L1^B17>
    4608:	9f ab       	std	Y+55, r25	; 0x37
    460a:	8e ab       	std	Y+54, r24	; 0x36

0000460c <.LM181>:
	...

0000460e <.LM182>:
    460e:	8c a9       	ldd	r24, Y+52	; 0x34
    4610:	9d a9       	ldd	r25, Y+53	; 0x35
    4612:	01 97       	sbiw	r24, 0x01	; 1
    4614:	9d ab       	std	Y+53, r25	; 0x35
    4616:	8c ab       	std	Y+52, r24	; 0x34

00004618 <.L102>:
    4618:	8c a9       	ldd	r24, Y+52	; 0x34
    461a:	9d a9       	ldd	r25, Y+53	; 0x35
    461c:	89 2b       	or	r24, r25
    461e:	61 f7       	brne	.-40     	; 0x45f8 <.L103>

00004620 <.LM184>:
    4620:	21 c0       	rjmp	.+66     	; 0x4664 <.L104>

00004622 <.L150>:
    4622:	68 a9       	ldd	r22, Y+48	; 0x30
    4624:	79 a9       	ldd	r23, Y+49	; 0x31
    4626:	8a a9       	ldd	r24, Y+50	; 0x32
    4628:	9b a9       	ldd	r25, Y+51	; 0x33
    462a:	0e 94 b6 28 	call	0x516c	; 0x516c <__fixunssfsi>
    462e:	c4 54       	subi	r28, 0x44	; 68
    4630:	df 4f       	sbci	r29, 0xFF	; 255
    4632:	68 83       	st	Y, r22
    4634:	79 83       	std	Y+1, r23	; 0x01
    4636:	8a 83       	std	Y+2, r24	; 0x02
    4638:	9b 83       	std	Y+3, r25	; 0x03
    463a:	cc 5b       	subi	r28, 0xBC	; 188
    463c:	d0 40       	sbci	r29, 0x00	; 0
    463e:	c4 54       	subi	r28, 0x44	; 68
    4640:	df 4f       	sbci	r29, 0xFF	; 255
    4642:	e8 81       	ld	r30, Y
    4644:	f9 81       	ldd	r31, Y+1	; 0x01
    4646:	cc 5b       	subi	r28, 0xBC	; 188
    4648:	d0 40       	sbci	r29, 0x00	; 0
    464a:	fd ab       	std	Y+53, r31	; 0x35
    464c:	ec ab       	std	Y+52, r30	; 0x34

0000464e <.L99>:
    464e:	8c a9       	ldd	r24, Y+52	; 0x34
    4650:	9d a9       	ldd	r25, Y+53	; 0x35
    4652:	99 af       	std	Y+57, r25	; 0x39
    4654:	88 af       	std	Y+56, r24	; 0x38

00004656 <.LM186>:
    4656:	88 ad       	ldd	r24, Y+56	; 0x38
    4658:	99 ad       	ldd	r25, Y+57	; 0x39

0000465a <.L1^B18>:
    465a:	01 97       	sbiw	r24, 0x01	; 1
    465c:	f1 f7       	brne	.-4      	; 0x465a <.L1^B18>
    465e:	99 af       	std	Y+57, r25	; 0x39
    4660:	88 af       	std	Y+56, r24	; 0x38

00004662 <.LM187>:
	...

00004664 <.L104>:
    4664:	80 91 3a 01 	lds	r24, 0x013A	; 0x80013a <C>
    4668:	8f 5f       	subi	r24, 0xFF	; 255
    466a:	80 93 3a 01 	sts	0x013A, r24	; 0x80013a <C>

0000466e <.LM189>:
    466e:	62 e0       	ldi	r22, 0x02	; 2
    4670:	81 e0       	ldi	r24, 0x01	; 1
    4672:	0e 94 05 1b 	call	0x360a	; 0x360a <LCD_moveCursor>

00004676 <.LM190>:
    4676:	80 91 3a 01 	lds	r24, 0x013A	; 0x80013a <C>
    467a:	88 2f       	mov	r24, r24
    467c:	90 e0       	ldi	r25, 0x00	; 0
    467e:	0e 94 e1 1a 	call	0x35c2	; 0x35c2 <LCD_integerToString>

00004682 <.LM191>:
    4682:	17 c3       	rjmp	.+1582   	; 0x4cb2 <.L157>

00004684 <.L77>:
    4684:	80 e0       	ldi	r24, 0x00	; 0
    4686:	90 e0       	ldi	r25, 0x00	; 0
    4688:	aa ef       	ldi	r26, 0xFA	; 250
    468a:	b3 e4       	ldi	r27, 0x43	; 67
    468c:	8a af       	std	Y+58, r24	; 0x3a
    468e:	9b af       	std	Y+59, r25	; 0x3b
    4690:	ac af       	std	Y+60, r26	; 0x3c
    4692:	bd af       	std	Y+61, r27	; 0x3d

00004694 <.LM192>:
    4694:	8e 01       	movw	r16, r28
    4696:	02 5c       	subi	r16, 0xC2	; 194
    4698:	1f 4f       	sbci	r17, 0xFF	; 255
    469a:	20 e0       	ldi	r18, 0x00	; 0
    469c:	30 e0       	ldi	r19, 0x00	; 0
    469e:	4a e7       	ldi	r20, 0x7A	; 122
    46a0:	55 e4       	ldi	r21, 0x45	; 69
    46a2:	6a ad       	ldd	r22, Y+58	; 0x3a
    46a4:	7b ad       	ldd	r23, Y+59	; 0x3b
    46a6:	8c ad       	ldd	r24, Y+60	; 0x3c
    46a8:	9d ad       	ldd	r25, Y+61	; 0x3d
    46aa:	0e 94 5f 29 	call	0x52be	; 0x52be <__mulsf3>
    46ae:	c0 54       	subi	r28, 0x40	; 64
    46b0:	df 4f       	sbci	r29, 0xFF	; 255
    46b2:	68 83       	st	Y, r22
    46b4:	79 83       	std	Y+1, r23	; 0x01
    46b6:	8a 83       	std	Y+2, r24	; 0x02
    46b8:	9b 83       	std	Y+3, r25	; 0x03
    46ba:	c0 5c       	subi	r28, 0xC0	; 192
    46bc:	d0 40       	sbci	r29, 0x00	; 0
    46be:	c0 54       	subi	r28, 0x40	; 64
    46c0:	df 4f       	sbci	r29, 0xFF	; 255
    46c2:	88 81       	ld	r24, Y
    46c4:	99 81       	ldd	r25, Y+1	; 0x01
    46c6:	aa 81       	ldd	r26, Y+2	; 0x02
    46c8:	bb 81       	ldd	r27, Y+3	; 0x03
    46ca:	c0 5c       	subi	r28, 0xC0	; 192
    46cc:	d0 40       	sbci	r29, 0x00	; 0
    46ce:	f8 01       	movw	r30, r16
    46d0:	80 83       	st	Z, r24
    46d2:	91 83       	std	Z+1, r25	; 0x01
    46d4:	a2 83       	std	Z+2, r26	; 0x02
    46d6:	b3 83       	std	Z+3, r27	; 0x03

000046d8 <.LM193>:
    46d8:	ce 01       	movw	r24, r28
    46da:	ce 96       	adiw	r24, 0x3e	; 62
    46dc:	20 e0       	ldi	r18, 0x00	; 0
    46de:	30 e0       	ldi	r19, 0x00	; 0
    46e0:	40 e8       	ldi	r20, 0x80	; 128
    46e2:	5f e3       	ldi	r21, 0x3F	; 63
    46e4:	dc 01       	movw	r26, r24
    46e6:	6d 91       	ld	r22, X+
    46e8:	7d 91       	ld	r23, X+
    46ea:	8d 91       	ld	r24, X+
    46ec:	9c 91       	ld	r25, X
    46ee:	0e 94 3f 28 	call	0x507e	; 0x507e <__cmpsf2>
    46f2:	88 23       	and	r24, r24
    46f4:	4c f4       	brge	.+18     	; 0x4708 <.L151>

000046f6 <.LM194>:
    46f6:	ce 01       	movw	r24, r28
    46f8:	8e 5b       	subi	r24, 0xBE	; 190
    46fa:	9f 4f       	sbci	r25, 0xFF	; 255
    46fc:	21 e0       	ldi	r18, 0x01	; 1
    46fe:	30 e0       	ldi	r19, 0x00	; 0
    4700:	fc 01       	movw	r30, r24
    4702:	31 83       	std	Z+1, r19	; 0x01
    4704:	20 83       	st	Z, r18
    4706:	98 c0       	rjmp	.+304    	; 0x4838 <.L107>

00004708 <.L151>:
    4708:	ce 01       	movw	r24, r28
    470a:	ce 96       	adiw	r24, 0x3e	; 62
    470c:	20 e0       	ldi	r18, 0x00	; 0
    470e:	3f ef       	ldi	r19, 0xFF	; 255
    4710:	4f e7       	ldi	r20, 0x7F	; 127
    4712:	57 e4       	ldi	r21, 0x47	; 71
    4714:	dc 01       	movw	r26, r24
    4716:	6d 91       	ld	r22, X+
    4718:	7d 91       	ld	r23, X+
    471a:	8d 91       	ld	r24, X+
    471c:	9c 91       	ld	r25, X
    471e:	0e 94 5a 29 	call	0x52b4	; 0x52b4 <__gesf2>
    4722:	18 16       	cp	r1, r24
    4724:	0c f0       	brlt	.+2      	; 0x4728 <.LM196>

00004726 <L0^A>:
    4726:	6b c0       	rjmp	.+214    	; 0x47fe <.L152>

00004728 <.LM196>:
    4728:	20 e0       	ldi	r18, 0x00	; 0
    472a:	30 e0       	ldi	r19, 0x00	; 0
    472c:	40 e2       	ldi	r20, 0x20	; 32
    472e:	51 e4       	ldi	r21, 0x41	; 65
    4730:	6a ad       	ldd	r22, Y+58	; 0x3a
    4732:	7b ad       	ldd	r23, Y+59	; 0x3b
    4734:	8c ad       	ldd	r24, Y+60	; 0x3c
    4736:	9d ad       	ldd	r25, Y+61	; 0x3d
    4738:	0e 94 5f 29 	call	0x52be	; 0x52be <__mulsf3>
    473c:	cc 53       	subi	r28, 0x3C	; 60
    473e:	df 4f       	sbci	r29, 0xFF	; 255
    4740:	68 83       	st	Y, r22
    4742:	79 83       	std	Y+1, r23	; 0x01
    4744:	8a 83       	std	Y+2, r24	; 0x02
    4746:	9b 83       	std	Y+3, r25	; 0x03
    4748:	c4 5c       	subi	r28, 0xC4	; 196
    474a:	d0 40       	sbci	r29, 0x00	; 0
    474c:	cc 53       	subi	r28, 0x3C	; 60
    474e:	df 4f       	sbci	r29, 0xFF	; 255
    4750:	88 81       	ld	r24, Y
    4752:	99 81       	ldd	r25, Y+1	; 0x01
    4754:	aa 81       	ldd	r26, Y+2	; 0x02
    4756:	bb 81       	ldd	r27, Y+3	; 0x03
    4758:	c4 5c       	subi	r28, 0xC4	; 196
    475a:	d0 40       	sbci	r29, 0x00	; 0
    475c:	e8 96       	adiw	r28, 0x38	; 56
    475e:	8c af       	std	Y+60, r24	; 0x3c
    4760:	9d af       	std	Y+61, r25	; 0x3d
    4762:	ae af       	std	Y+62, r26	; 0x3e
    4764:	bf af       	std	Y+63, r27	; 0x3f
    4766:	e8 97       	sbiw	r28, 0x38	; 56

00004768 <.LM197>:
    4768:	8e 01       	movw	r16, r28
    476a:	0e 5b       	subi	r16, 0xBE	; 190
    476c:	1f 4f       	sbci	r17, 0xFF	; 255
    476e:	e8 96       	adiw	r28, 0x38	; 56
    4770:	6c ad       	ldd	r22, Y+60	; 0x3c
    4772:	7d ad       	ldd	r23, Y+61	; 0x3d
    4774:	8e ad       	ldd	r24, Y+62	; 0x3e
    4776:	9f ad       	ldd	r25, Y+63	; 0x3f
    4778:	e8 97       	sbiw	r28, 0x38	; 56
    477a:	0e 94 b6 28 	call	0x516c	; 0x516c <__fixunssfsi>
    477e:	c8 53       	subi	r28, 0x38	; 56
    4780:	df 4f       	sbci	r29, 0xFF	; 255
    4782:	68 83       	st	Y, r22
    4784:	79 83       	std	Y+1, r23	; 0x01
    4786:	8a 83       	std	Y+2, r24	; 0x02
    4788:	9b 83       	std	Y+3, r25	; 0x03
    478a:	c8 5c       	subi	r28, 0xC8	; 200
    478c:	d0 40       	sbci	r29, 0x00	; 0
    478e:	c8 53       	subi	r28, 0x38	; 56
    4790:	df 4f       	sbci	r29, 0xFF	; 255
    4792:	e8 81       	ld	r30, Y
    4794:	f9 81       	ldd	r31, Y+1	; 0x01
    4796:	c8 5c       	subi	r28, 0xC8	; 200
    4798:	d0 40       	sbci	r29, 0x00	; 0
    479a:	d8 01       	movw	r26, r16
    479c:	ed 93       	st	X+, r30
    479e:	fc 93       	st	X, r31

000047a0 <.LM198>:
    47a0:	25 c0       	rjmp	.+74     	; 0x47ec <.L110>

000047a2 <.L111>:
    47a2:	ce 01       	movw	r24, r28
    47a4:	8c 5b       	subi	r24, 0xBC	; 188
    47a6:	9f 4f       	sbci	r25, 0xFF	; 255
    47a8:	20 e9       	ldi	r18, 0x90	; 144
    47aa:	31 e0       	ldi	r19, 0x01	; 1
    47ac:	dc 01       	movw	r26, r24
    47ae:	2d 93       	st	X+, r18
    47b0:	3c 93       	st	X, r19

000047b2 <.LM199>:
    47b2:	ce 01       	movw	r24, r28
    47b4:	8c 5b       	subi	r24, 0xBC	; 188
    47b6:	9f 4f       	sbci	r25, 0xFF	; 255
    47b8:	fc 01       	movw	r30, r24
    47ba:	80 81       	ld	r24, Z
    47bc:	91 81       	ldd	r25, Z+1	; 0x01

000047be <.L1^B19>:
    47be:	01 97       	sbiw	r24, 0x01	; 1
    47c0:	f1 f7       	brne	.-4      	; 0x47be <.L1^B19>
    47c2:	9e 01       	movw	r18, r28
    47c4:	2c 5b       	subi	r18, 0xBC	; 188
    47c6:	3f 4f       	sbci	r19, 0xFF	; 255
    47c8:	d9 01       	movw	r26, r18
    47ca:	8d 93       	st	X+, r24
    47cc:	9c 93       	st	X, r25

000047ce <.LM200>:
	...

000047d0 <.LM201>:
    47d0:	ce 01       	movw	r24, r28
    47d2:	8e 5b       	subi	r24, 0xBE	; 190
    47d4:	9f 4f       	sbci	r25, 0xFF	; 255
    47d6:	9e 01       	movw	r18, r28
    47d8:	2e 5b       	subi	r18, 0xBE	; 190
    47da:	3f 4f       	sbci	r19, 0xFF	; 255
    47dc:	f9 01       	movw	r30, r18
    47de:	20 81       	ld	r18, Z
    47e0:	31 81       	ldd	r19, Z+1	; 0x01
    47e2:	21 50       	subi	r18, 0x01	; 1
    47e4:	31 09       	sbc	r19, r1
    47e6:	dc 01       	movw	r26, r24
    47e8:	2d 93       	st	X+, r18
    47ea:	3c 93       	st	X, r19

000047ec <.L110>:
    47ec:	ce 01       	movw	r24, r28
    47ee:	8e 5b       	subi	r24, 0xBE	; 190
    47f0:	9f 4f       	sbci	r25, 0xFF	; 255
    47f2:	fc 01       	movw	r30, r24
    47f4:	80 81       	ld	r24, Z
    47f6:	91 81       	ldd	r25, Z+1	; 0x01
    47f8:	89 2b       	or	r24, r25
    47fa:	99 f6       	brne	.-90     	; 0x47a2 <.L111>

000047fc <.LM203>:
    47fc:	38 c0       	rjmp	.+112    	; 0x486e <.L112>

000047fe <.L152>:
    47fe:	8e 01       	movw	r16, r28
    4800:	0e 5b       	subi	r16, 0xBE	; 190
    4802:	1f 4f       	sbci	r17, 0xFF	; 255
    4804:	ce 01       	movw	r24, r28
    4806:	ce 96       	adiw	r24, 0x3e	; 62
    4808:	dc 01       	movw	r26, r24
    480a:	6d 91       	ld	r22, X+
    480c:	7d 91       	ld	r23, X+
    480e:	8d 91       	ld	r24, X+
    4810:	9c 91       	ld	r25, X
    4812:	0e 94 b6 28 	call	0x516c	; 0x516c <__fixunssfsi>
    4816:	c4 53       	subi	r28, 0x34	; 52
    4818:	df 4f       	sbci	r29, 0xFF	; 255
    481a:	68 83       	st	Y, r22
    481c:	79 83       	std	Y+1, r23	; 0x01
    481e:	8a 83       	std	Y+2, r24	; 0x02
    4820:	9b 83       	std	Y+3, r25	; 0x03
    4822:	cc 5c       	subi	r28, 0xCC	; 204
    4824:	d0 40       	sbci	r29, 0x00	; 0
    4826:	c4 53       	subi	r28, 0x34	; 52
    4828:	df 4f       	sbci	r29, 0xFF	; 255
    482a:	88 81       	ld	r24, Y
    482c:	99 81       	ldd	r25, Y+1	; 0x01
    482e:	cc 5c       	subi	r28, 0xCC	; 204
    4830:	d0 40       	sbci	r29, 0x00	; 0
    4832:	f8 01       	movw	r30, r16
    4834:	91 83       	std	Z+1, r25	; 0x01
    4836:	80 83       	st	Z, r24

00004838 <.L107>:
    4838:	ce 01       	movw	r24, r28
    483a:	8a 5b       	subi	r24, 0xBA	; 186
    483c:	9f 4f       	sbci	r25, 0xFF	; 255
    483e:	9e 01       	movw	r18, r28
    4840:	2e 5b       	subi	r18, 0xBE	; 190
    4842:	3f 4f       	sbci	r19, 0xFF	; 255
    4844:	d9 01       	movw	r26, r18
    4846:	2d 91       	ld	r18, X+
    4848:	3c 91       	ld	r19, X
    484a:	fc 01       	movw	r30, r24
    484c:	31 83       	std	Z+1, r19	; 0x01
    484e:	20 83       	st	Z, r18

00004850 <.LM205>:
    4850:	ce 01       	movw	r24, r28
    4852:	8a 5b       	subi	r24, 0xBA	; 186
    4854:	9f 4f       	sbci	r25, 0xFF	; 255
    4856:	dc 01       	movw	r26, r24
    4858:	8d 91       	ld	r24, X+
    485a:	9c 91       	ld	r25, X

0000485c <.L1^B20>:
    485c:	01 97       	sbiw	r24, 0x01	; 1
    485e:	f1 f7       	brne	.-4      	; 0x485c <.L1^B20>
    4860:	9e 01       	movw	r18, r28
    4862:	2a 5b       	subi	r18, 0xBA	; 186
    4864:	3f 4f       	sbci	r19, 0xFF	; 255
    4866:	f9 01       	movw	r30, r18
    4868:	91 83       	std	Z+1, r25	; 0x01
    486a:	80 83       	st	Z, r24

0000486c <.LM206>:
	...

0000486e <.L112>:
    486e:	80 91 3b 01 	lds	r24, 0x013B	; 0x80013b <D>
    4872:	8f 5f       	subi	r24, 0xFF	; 255
    4874:	80 93 3b 01 	sts	0x013B, r24	; 0x80013b <D>

00004878 <.LM208>:
    4878:	6a e0       	ldi	r22, 0x0A	; 10
    487a:	81 e0       	ldi	r24, 0x01	; 1
    487c:	0e 94 05 1b 	call	0x360a	; 0x360a <LCD_moveCursor>

00004880 <.LM209>:
    4880:	80 91 3b 01 	lds	r24, 0x013B	; 0x80013b <D>
    4884:	88 2f       	mov	r24, r24
    4886:	90 e0       	ldi	r25, 0x00	; 0
    4888:	0e 94 e1 1a 	call	0x35c2	; 0x35c2 <LCD_integerToString>

0000488c <.LM210>:
    488c:	12 c2       	rjmp	.+1060   	; 0x4cb2 <.L157>

0000488e <.L76>:
    488e:	9e 01       	movw	r18, r28
    4890:	28 5b       	subi	r18, 0xB8	; 184
    4892:	3f 4f       	sbci	r19, 0xFF	; 255
    4894:	80 e0       	ldi	r24, 0x00	; 0
    4896:	90 e0       	ldi	r25, 0x00	; 0
    4898:	aa ef       	ldi	r26, 0xFA	; 250
    489a:	b3 e4       	ldi	r27, 0x43	; 67
    489c:	f9 01       	movw	r30, r18
    489e:	80 83       	st	Z, r24
    48a0:	91 83       	std	Z+1, r25	; 0x01
    48a2:	a2 83       	std	Z+2, r26	; 0x02
    48a4:	b3 83       	std	Z+3, r27	; 0x03

000048a6 <.LM211>:
    48a6:	8e 01       	movw	r16, r28
    48a8:	04 5b       	subi	r16, 0xB4	; 180
    48aa:	1f 4f       	sbci	r17, 0xFF	; 255
    48ac:	ce 01       	movw	r24, r28
    48ae:	88 5b       	subi	r24, 0xB8	; 184
    48b0:	9f 4f       	sbci	r25, 0xFF	; 255
    48b2:	20 e0       	ldi	r18, 0x00	; 0
    48b4:	30 e0       	ldi	r19, 0x00	; 0
    48b6:	4a e7       	ldi	r20, 0x7A	; 122
    48b8:	55 e4       	ldi	r21, 0x45	; 69
    48ba:	dc 01       	movw	r26, r24
    48bc:	6d 91       	ld	r22, X+
    48be:	7d 91       	ld	r23, X+
    48c0:	8d 91       	ld	r24, X+
    48c2:	9c 91       	ld	r25, X
    48c4:	0e 94 5f 29 	call	0x52be	; 0x52be <__mulsf3>
    48c8:	c0 53       	subi	r28, 0x30	; 48
    48ca:	df 4f       	sbci	r29, 0xFF	; 255
    48cc:	68 83       	st	Y, r22
    48ce:	79 83       	std	Y+1, r23	; 0x01
    48d0:	8a 83       	std	Y+2, r24	; 0x02
    48d2:	9b 83       	std	Y+3, r25	; 0x03
    48d4:	c0 5d       	subi	r28, 0xD0	; 208
    48d6:	d0 40       	sbci	r29, 0x00	; 0
    48d8:	c0 53       	subi	r28, 0x30	; 48
    48da:	df 4f       	sbci	r29, 0xFF	; 255
    48dc:	88 81       	ld	r24, Y
    48de:	99 81       	ldd	r25, Y+1	; 0x01
    48e0:	aa 81       	ldd	r26, Y+2	; 0x02
    48e2:	bb 81       	ldd	r27, Y+3	; 0x03
    48e4:	c0 5d       	subi	r28, 0xD0	; 208
    48e6:	d0 40       	sbci	r29, 0x00	; 0
    48e8:	f8 01       	movw	r30, r16
    48ea:	80 83       	st	Z, r24
    48ec:	91 83       	std	Z+1, r25	; 0x01
    48ee:	a2 83       	std	Z+2, r26	; 0x02
    48f0:	b3 83       	std	Z+3, r27	; 0x03

000048f2 <.LM212>:
    48f2:	ce 01       	movw	r24, r28
    48f4:	84 5b       	subi	r24, 0xB4	; 180
    48f6:	9f 4f       	sbci	r25, 0xFF	; 255
    48f8:	20 e0       	ldi	r18, 0x00	; 0
    48fa:	30 e0       	ldi	r19, 0x00	; 0
    48fc:	40 e8       	ldi	r20, 0x80	; 128
    48fe:	5f e3       	ldi	r21, 0x3F	; 63
    4900:	dc 01       	movw	r26, r24
    4902:	6d 91       	ld	r22, X+
    4904:	7d 91       	ld	r23, X+
    4906:	8d 91       	ld	r24, X+
    4908:	9c 91       	ld	r25, X
    490a:	0e 94 3f 28 	call	0x507e	; 0x507e <__cmpsf2>
    490e:	88 23       	and	r24, r24
    4910:	4c f4       	brge	.+18     	; 0x4924 <.L153>

00004912 <.LM213>:
    4912:	ce 01       	movw	r24, r28
    4914:	80 5b       	subi	r24, 0xB0	; 176
    4916:	9f 4f       	sbci	r25, 0xFF	; 255
    4918:	21 e0       	ldi	r18, 0x01	; 1
    491a:	30 e0       	ldi	r19, 0x00	; 0
    491c:	fc 01       	movw	r30, r24
    491e:	31 83       	std	Z+1, r19	; 0x01
    4920:	20 83       	st	Z, r18
    4922:	9e c0       	rjmp	.+316    	; 0x4a60 <.L115>

00004924 <.L153>:
    4924:	ce 01       	movw	r24, r28
    4926:	84 5b       	subi	r24, 0xB4	; 180
    4928:	9f 4f       	sbci	r25, 0xFF	; 255
    492a:	20 e0       	ldi	r18, 0x00	; 0
    492c:	3f ef       	ldi	r19, 0xFF	; 255
    492e:	4f e7       	ldi	r20, 0x7F	; 127
    4930:	57 e4       	ldi	r21, 0x47	; 71
    4932:	dc 01       	movw	r26, r24
    4934:	6d 91       	ld	r22, X+
    4936:	7d 91       	ld	r23, X+
    4938:	8d 91       	ld	r24, X+
    493a:	9c 91       	ld	r25, X
    493c:	0e 94 5a 29 	call	0x52b4	; 0x52b4 <__gesf2>
    4940:	18 16       	cp	r1, r24
    4942:	0c f0       	brlt	.+2      	; 0x4946 <.LM215>

00004944 <L0^A>:
    4944:	6f c0       	rjmp	.+222    	; 0x4a24 <.L154>

00004946 <.LM215>:
    4946:	ce 01       	movw	r24, r28
    4948:	88 5b       	subi	r24, 0xB8	; 184
    494a:	9f 4f       	sbci	r25, 0xFF	; 255
    494c:	20 e0       	ldi	r18, 0x00	; 0
    494e:	30 e0       	ldi	r19, 0x00	; 0
    4950:	40 e2       	ldi	r20, 0x20	; 32
    4952:	51 e4       	ldi	r21, 0x41	; 65
    4954:	fc 01       	movw	r30, r24
    4956:	60 81       	ld	r22, Z
    4958:	71 81       	ldd	r23, Z+1	; 0x01
    495a:	82 81       	ldd	r24, Z+2	; 0x02
    495c:	93 81       	ldd	r25, Z+3	; 0x03
    495e:	0e 94 5f 29 	call	0x52be	; 0x52be <__mulsf3>
    4962:	cc 52       	subi	r28, 0x2C	; 44
    4964:	df 4f       	sbci	r29, 0xFF	; 255
    4966:	68 83       	st	Y, r22
    4968:	79 83       	std	Y+1, r23	; 0x01
    496a:	8a 83       	std	Y+2, r24	; 0x02
    496c:	9b 83       	std	Y+3, r25	; 0x03
    496e:	c4 5d       	subi	r28, 0xD4	; 212
    4970:	d0 40       	sbci	r29, 0x00	; 0
    4972:	cc 52       	subi	r28, 0x2C	; 44
    4974:	df 4f       	sbci	r29, 0xFF	; 255
    4976:	88 81       	ld	r24, Y
    4978:	99 81       	ldd	r25, Y+1	; 0x01
    497a:	aa 81       	ldd	r26, Y+2	; 0x02
    497c:	bb 81       	ldd	r27, Y+3	; 0x03
    497e:	c4 5d       	subi	r28, 0xD4	; 212
    4980:	d0 40       	sbci	r29, 0x00	; 0
    4982:	ec 96       	adiw	r28, 0x3c	; 60
    4984:	8c af       	std	Y+60, r24	; 0x3c
    4986:	9d af       	std	Y+61, r25	; 0x3d
    4988:	ae af       	std	Y+62, r26	; 0x3e
    498a:	bf af       	std	Y+63, r27	; 0x3f
    498c:	ec 97       	sbiw	r28, 0x3c	; 60

0000498e <.LM216>:
    498e:	8e 01       	movw	r16, r28
    4990:	00 5b       	subi	r16, 0xB0	; 176
    4992:	1f 4f       	sbci	r17, 0xFF	; 255
    4994:	ec 96       	adiw	r28, 0x3c	; 60
    4996:	6c ad       	ldd	r22, Y+60	; 0x3c
    4998:	7d ad       	ldd	r23, Y+61	; 0x3d
    499a:	8e ad       	ldd	r24, Y+62	; 0x3e
    499c:	9f ad       	ldd	r25, Y+63	; 0x3f
    499e:	ec 97       	sbiw	r28, 0x3c	; 60
    49a0:	0e 94 b6 28 	call	0x516c	; 0x516c <__fixunssfsi>
    49a4:	c8 52       	subi	r28, 0x28	; 40
    49a6:	df 4f       	sbci	r29, 0xFF	; 255
    49a8:	68 83       	st	Y, r22
    49aa:	79 83       	std	Y+1, r23	; 0x01
    49ac:	8a 83       	std	Y+2, r24	; 0x02
    49ae:	9b 83       	std	Y+3, r25	; 0x03
    49b0:	c8 5d       	subi	r28, 0xD8	; 216
    49b2:	d0 40       	sbci	r29, 0x00	; 0
    49b4:	c8 52       	subi	r28, 0x28	; 40
    49b6:	df 4f       	sbci	r29, 0xFF	; 255
    49b8:	e8 81       	ld	r30, Y
    49ba:	f9 81       	ldd	r31, Y+1	; 0x01
    49bc:	c8 5d       	subi	r28, 0xD8	; 216
    49be:	d0 40       	sbci	r29, 0x00	; 0
    49c0:	d8 01       	movw	r26, r16
    49c2:	ed 93       	st	X+, r30
    49c4:	fc 93       	st	X, r31

000049c6 <.LM217>:
    49c6:	25 c0       	rjmp	.+74     	; 0x4a12 <.L118>

000049c8 <.L119>:
    49c8:	ce 01       	movw	r24, r28
    49ca:	8e 5a       	subi	r24, 0xAE	; 174
    49cc:	9f 4f       	sbci	r25, 0xFF	; 255
    49ce:	20 e9       	ldi	r18, 0x90	; 144
    49d0:	31 e0       	ldi	r19, 0x01	; 1
    49d2:	dc 01       	movw	r26, r24
    49d4:	2d 93       	st	X+, r18
    49d6:	3c 93       	st	X, r19

000049d8 <.LM218>:
    49d8:	ce 01       	movw	r24, r28
    49da:	8e 5a       	subi	r24, 0xAE	; 174
    49dc:	9f 4f       	sbci	r25, 0xFF	; 255
    49de:	fc 01       	movw	r30, r24
    49e0:	80 81       	ld	r24, Z
    49e2:	91 81       	ldd	r25, Z+1	; 0x01

000049e4 <.L1^B21>:
    49e4:	01 97       	sbiw	r24, 0x01	; 1
    49e6:	f1 f7       	brne	.-4      	; 0x49e4 <.L1^B21>
    49e8:	9e 01       	movw	r18, r28
    49ea:	2e 5a       	subi	r18, 0xAE	; 174
    49ec:	3f 4f       	sbci	r19, 0xFF	; 255
    49ee:	d9 01       	movw	r26, r18
    49f0:	8d 93       	st	X+, r24
    49f2:	9c 93       	st	X, r25

000049f4 <.LM219>:
	...

000049f6 <.LM220>:
    49f6:	ce 01       	movw	r24, r28
    49f8:	80 5b       	subi	r24, 0xB0	; 176
    49fa:	9f 4f       	sbci	r25, 0xFF	; 255
    49fc:	9e 01       	movw	r18, r28
    49fe:	20 5b       	subi	r18, 0xB0	; 176
    4a00:	3f 4f       	sbci	r19, 0xFF	; 255
    4a02:	f9 01       	movw	r30, r18
    4a04:	20 81       	ld	r18, Z
    4a06:	31 81       	ldd	r19, Z+1	; 0x01
    4a08:	21 50       	subi	r18, 0x01	; 1
    4a0a:	31 09       	sbc	r19, r1
    4a0c:	dc 01       	movw	r26, r24
    4a0e:	2d 93       	st	X+, r18
    4a10:	3c 93       	st	X, r19

00004a12 <.L118>:
    4a12:	ce 01       	movw	r24, r28
    4a14:	80 5b       	subi	r24, 0xB0	; 176
    4a16:	9f 4f       	sbci	r25, 0xFF	; 255
    4a18:	fc 01       	movw	r30, r24
    4a1a:	80 81       	ld	r24, Z
    4a1c:	91 81       	ldd	r25, Z+1	; 0x01
    4a1e:	89 2b       	or	r24, r25
    4a20:	99 f6       	brne	.-90     	; 0x49c8 <.L119>

00004a22 <.LM222>:
    4a22:	39 c0       	rjmp	.+114    	; 0x4a96 <.L120>

00004a24 <.L154>:
    4a24:	8e 01       	movw	r16, r28
    4a26:	00 5b       	subi	r16, 0xB0	; 176
    4a28:	1f 4f       	sbci	r17, 0xFF	; 255
    4a2a:	ce 01       	movw	r24, r28
    4a2c:	84 5b       	subi	r24, 0xB4	; 180
    4a2e:	9f 4f       	sbci	r25, 0xFF	; 255
    4a30:	dc 01       	movw	r26, r24
    4a32:	6d 91       	ld	r22, X+
    4a34:	7d 91       	ld	r23, X+
    4a36:	8d 91       	ld	r24, X+
    4a38:	9c 91       	ld	r25, X
    4a3a:	0e 94 b6 28 	call	0x516c	; 0x516c <__fixunssfsi>
    4a3e:	c4 52       	subi	r28, 0x24	; 36
    4a40:	df 4f       	sbci	r29, 0xFF	; 255
    4a42:	68 83       	st	Y, r22
    4a44:	79 83       	std	Y+1, r23	; 0x01
    4a46:	8a 83       	std	Y+2, r24	; 0x02
    4a48:	9b 83       	std	Y+3, r25	; 0x03
    4a4a:	cc 5d       	subi	r28, 0xDC	; 220
    4a4c:	d0 40       	sbci	r29, 0x00	; 0
    4a4e:	c4 52       	subi	r28, 0x24	; 36
    4a50:	df 4f       	sbci	r29, 0xFF	; 255
    4a52:	88 81       	ld	r24, Y
    4a54:	99 81       	ldd	r25, Y+1	; 0x01
    4a56:	cc 5d       	subi	r28, 0xDC	; 220
    4a58:	d0 40       	sbci	r29, 0x00	; 0
    4a5a:	f8 01       	movw	r30, r16
    4a5c:	91 83       	std	Z+1, r25	; 0x01
    4a5e:	80 83       	st	Z, r24

00004a60 <.L115>:
    4a60:	ce 01       	movw	r24, r28
    4a62:	8c 5a       	subi	r24, 0xAC	; 172
    4a64:	9f 4f       	sbci	r25, 0xFF	; 255
    4a66:	9e 01       	movw	r18, r28
    4a68:	20 5b       	subi	r18, 0xB0	; 176
    4a6a:	3f 4f       	sbci	r19, 0xFF	; 255
    4a6c:	d9 01       	movw	r26, r18
    4a6e:	2d 91       	ld	r18, X+
    4a70:	3c 91       	ld	r19, X
    4a72:	fc 01       	movw	r30, r24
    4a74:	31 83       	std	Z+1, r19	; 0x01
    4a76:	20 83       	st	Z, r18

00004a78 <.LM224>:
    4a78:	ce 01       	movw	r24, r28
    4a7a:	8c 5a       	subi	r24, 0xAC	; 172
    4a7c:	9f 4f       	sbci	r25, 0xFF	; 255
    4a7e:	dc 01       	movw	r26, r24
    4a80:	8d 91       	ld	r24, X+
    4a82:	9c 91       	ld	r25, X

00004a84 <.L1^B22>:
    4a84:	01 97       	sbiw	r24, 0x01	; 1
    4a86:	f1 f7       	brne	.-4      	; 0x4a84 <.L1^B22>
    4a88:	9e 01       	movw	r18, r28
    4a8a:	2c 5a       	subi	r18, 0xAC	; 172
    4a8c:	3f 4f       	sbci	r19, 0xFF	; 255
    4a8e:	f9 01       	movw	r30, r18
    4a90:	91 83       	std	Z+1, r25	; 0x01
    4a92:	80 83       	st	Z, r24

00004a94 <.LM225>:
	...

00004a96 <.L120>:
    4a96:	0e 94 66 26 	call	0x4ccc	; 0x4ccc <App_Reset>

00004a9a <.LM227>:
    4a9a:	0b c1       	rjmp	.+534    	; 0x4cb2 <.L157>

00004a9c <.L75>:
    4a9c:	9e 01       	movw	r18, r28
    4a9e:	2a 5a       	subi	r18, 0xAA	; 170
    4aa0:	3f 4f       	sbci	r19, 0xFF	; 255
    4aa2:	80 e0       	ldi	r24, 0x00	; 0
    4aa4:	90 e0       	ldi	r25, 0x00	; 0
    4aa6:	aa ef       	ldi	r26, 0xFA	; 250
    4aa8:	b3 e4       	ldi	r27, 0x43	; 67
    4aaa:	f9 01       	movw	r30, r18
    4aac:	80 83       	st	Z, r24
    4aae:	91 83       	std	Z+1, r25	; 0x01
    4ab0:	a2 83       	std	Z+2, r26	; 0x02
    4ab2:	b3 83       	std	Z+3, r27	; 0x03

00004ab4 <.LM228>:
    4ab4:	8e 01       	movw	r16, r28
    4ab6:	06 5a       	subi	r16, 0xA6	; 166
    4ab8:	1f 4f       	sbci	r17, 0xFF	; 255
    4aba:	ce 01       	movw	r24, r28
    4abc:	8a 5a       	subi	r24, 0xAA	; 170
    4abe:	9f 4f       	sbci	r25, 0xFF	; 255
    4ac0:	20 e0       	ldi	r18, 0x00	; 0
    4ac2:	30 e0       	ldi	r19, 0x00	; 0
    4ac4:	4a e7       	ldi	r20, 0x7A	; 122
    4ac6:	55 e4       	ldi	r21, 0x45	; 69
    4ac8:	dc 01       	movw	r26, r24
    4aca:	6d 91       	ld	r22, X+
    4acc:	7d 91       	ld	r23, X+
    4ace:	8d 91       	ld	r24, X+
    4ad0:	9c 91       	ld	r25, X
    4ad2:	0e 94 5f 29 	call	0x52be	; 0x52be <__mulsf3>
    4ad6:	c0 52       	subi	r28, 0x20	; 32
    4ad8:	df 4f       	sbci	r29, 0xFF	; 255
    4ada:	68 83       	st	Y, r22
    4adc:	79 83       	std	Y+1, r23	; 0x01
    4ade:	8a 83       	std	Y+2, r24	; 0x02
    4ae0:	9b 83       	std	Y+3, r25	; 0x03
    4ae2:	c0 5e       	subi	r28, 0xE0	; 224
    4ae4:	d0 40       	sbci	r29, 0x00	; 0
    4ae6:	c0 52       	subi	r28, 0x20	; 32
    4ae8:	df 4f       	sbci	r29, 0xFF	; 255
    4aea:	88 81       	ld	r24, Y
    4aec:	99 81       	ldd	r25, Y+1	; 0x01
    4aee:	aa 81       	ldd	r26, Y+2	; 0x02
    4af0:	bb 81       	ldd	r27, Y+3	; 0x03
    4af2:	c0 5e       	subi	r28, 0xE0	; 224
    4af4:	d0 40       	sbci	r29, 0x00	; 0
    4af6:	f8 01       	movw	r30, r16
    4af8:	80 83       	st	Z, r24
    4afa:	91 83       	std	Z+1, r25	; 0x01
    4afc:	a2 83       	std	Z+2, r26	; 0x02
    4afe:	b3 83       	std	Z+3, r27	; 0x03

00004b00 <.LM229>:
    4b00:	ce 01       	movw	r24, r28
    4b02:	86 5a       	subi	r24, 0xA6	; 166
    4b04:	9f 4f       	sbci	r25, 0xFF	; 255
    4b06:	20 e0       	ldi	r18, 0x00	; 0
    4b08:	30 e0       	ldi	r19, 0x00	; 0
    4b0a:	40 e8       	ldi	r20, 0x80	; 128
    4b0c:	5f e3       	ldi	r21, 0x3F	; 63
    4b0e:	dc 01       	movw	r26, r24
    4b10:	6d 91       	ld	r22, X+
    4b12:	7d 91       	ld	r23, X+
    4b14:	8d 91       	ld	r24, X+
    4b16:	9c 91       	ld	r25, X
    4b18:	0e 94 3f 28 	call	0x507e	; 0x507e <__cmpsf2>
    4b1c:	88 23       	and	r24, r24
    4b1e:	4c f4       	brge	.+18     	; 0x4b32 <.L155>

00004b20 <.LM230>:
    4b20:	ce 01       	movw	r24, r28
    4b22:	82 5a       	subi	r24, 0xA2	; 162
    4b24:	9f 4f       	sbci	r25, 0xFF	; 255
    4b26:	21 e0       	ldi	r18, 0x01	; 1
    4b28:	30 e0       	ldi	r19, 0x00	; 0
    4b2a:	fc 01       	movw	r30, r24
    4b2c:	31 83       	std	Z+1, r19	; 0x01
    4b2e:	20 83       	st	Z, r18
    4b30:	a2 c0       	rjmp	.+324    	; 0x4c76 <.L123>

00004b32 <.L155>:
    4b32:	ce 01       	movw	r24, r28
    4b34:	86 5a       	subi	r24, 0xA6	; 166
    4b36:	9f 4f       	sbci	r25, 0xFF	; 255
    4b38:	20 e0       	ldi	r18, 0x00	; 0
    4b3a:	3f ef       	ldi	r19, 0xFF	; 255
    4b3c:	4f e7       	ldi	r20, 0x7F	; 127
    4b3e:	57 e4       	ldi	r21, 0x47	; 71
    4b40:	dc 01       	movw	r26, r24
    4b42:	6d 91       	ld	r22, X+
    4b44:	7d 91       	ld	r23, X+
    4b46:	8d 91       	ld	r24, X+
    4b48:	9c 91       	ld	r25, X
    4b4a:	0e 94 5a 29 	call	0x52b4	; 0x52b4 <__gesf2>
    4b4e:	18 16       	cp	r1, r24
    4b50:	0c f0       	brlt	.+2      	; 0x4b54 <.LM232>

00004b52 <L0^A>:
    4b52:	73 c0       	rjmp	.+230    	; 0x4c3a <.L156>

00004b54 <.LM232>:
    4b54:	ce 01       	movw	r24, r28
    4b56:	8a 5a       	subi	r24, 0xAA	; 170
    4b58:	9f 4f       	sbci	r25, 0xFF	; 255
    4b5a:	20 e0       	ldi	r18, 0x00	; 0
    4b5c:	30 e0       	ldi	r19, 0x00	; 0
    4b5e:	40 e2       	ldi	r20, 0x20	; 32
    4b60:	51 e4       	ldi	r21, 0x41	; 65
    4b62:	fc 01       	movw	r30, r24
    4b64:	60 81       	ld	r22, Z
    4b66:	71 81       	ldd	r23, Z+1	; 0x01
    4b68:	82 81       	ldd	r24, Z+2	; 0x02
    4b6a:	93 81       	ldd	r25, Z+3	; 0x03
    4b6c:	0e 94 5f 29 	call	0x52be	; 0x52be <__mulsf3>
    4b70:	cc 51       	subi	r28, 0x1C	; 28
    4b72:	df 4f       	sbci	r29, 0xFF	; 255
    4b74:	68 83       	st	Y, r22
    4b76:	79 83       	std	Y+1, r23	; 0x01
    4b78:	8a 83       	std	Y+2, r24	; 0x02
    4b7a:	9b 83       	std	Y+3, r25	; 0x03
    4b7c:	c4 5e       	subi	r28, 0xE4	; 228
    4b7e:	d0 40       	sbci	r29, 0x00	; 0
    4b80:	cc 51       	subi	r28, 0x1C	; 28
    4b82:	df 4f       	sbci	r29, 0xFF	; 255
    4b84:	88 81       	ld	r24, Y
    4b86:	99 81       	ldd	r25, Y+1	; 0x01
    4b88:	aa 81       	ldd	r26, Y+2	; 0x02
    4b8a:	bb 81       	ldd	r27, Y+3	; 0x03
    4b8c:	c4 5e       	subi	r28, 0xE4	; 228
    4b8e:	d0 40       	sbci	r29, 0x00	; 0
    4b90:	c4 58       	subi	r28, 0x84	; 132
    4b92:	df 4f       	sbci	r29, 0xFF	; 255
    4b94:	88 83       	st	Y, r24
    4b96:	99 83       	std	Y+1, r25	; 0x01
    4b98:	aa 83       	std	Y+2, r26	; 0x02
    4b9a:	bb 83       	std	Y+3, r27	; 0x03
    4b9c:	cc 57       	subi	r28, 0x7C	; 124
    4b9e:	d0 40       	sbci	r29, 0x00	; 0

00004ba0 <.LM233>:
    4ba0:	8e 01       	movw	r16, r28
    4ba2:	02 5a       	subi	r16, 0xA2	; 162
    4ba4:	1f 4f       	sbci	r17, 0xFF	; 255
    4ba6:	c4 58       	subi	r28, 0x84	; 132
    4ba8:	df 4f       	sbci	r29, 0xFF	; 255
    4baa:	68 81       	ld	r22, Y
    4bac:	79 81       	ldd	r23, Y+1	; 0x01
    4bae:	8a 81       	ldd	r24, Y+2	; 0x02
    4bb0:	9b 81       	ldd	r25, Y+3	; 0x03
    4bb2:	cc 57       	subi	r28, 0x7C	; 124
    4bb4:	d0 40       	sbci	r29, 0x00	; 0
    4bb6:	0e 94 b6 28 	call	0x516c	; 0x516c <__fixunssfsi>
    4bba:	c8 51       	subi	r28, 0x18	; 24
    4bbc:	df 4f       	sbci	r29, 0xFF	; 255
    4bbe:	68 83       	st	Y, r22
    4bc0:	79 83       	std	Y+1, r23	; 0x01
    4bc2:	8a 83       	std	Y+2, r24	; 0x02
    4bc4:	9b 83       	std	Y+3, r25	; 0x03
    4bc6:	c8 5e       	subi	r28, 0xE8	; 232
    4bc8:	d0 40       	sbci	r29, 0x00	; 0
    4bca:	c8 51       	subi	r28, 0x18	; 24
    4bcc:	df 4f       	sbci	r29, 0xFF	; 255
    4bce:	e8 81       	ld	r30, Y
    4bd0:	f9 81       	ldd	r31, Y+1	; 0x01
    4bd2:	c8 5e       	subi	r28, 0xE8	; 232
    4bd4:	d0 40       	sbci	r29, 0x00	; 0
    4bd6:	d8 01       	movw	r26, r16
    4bd8:	ed 93       	st	X+, r30
    4bda:	fc 93       	st	X, r31

00004bdc <.LM234>:
    4bdc:	25 c0       	rjmp	.+74     	; 0x4c28 <.L126>

00004bde <.L127>:
    4bde:	ce 01       	movw	r24, r28
    4be0:	80 5a       	subi	r24, 0xA0	; 160
    4be2:	9f 4f       	sbci	r25, 0xFF	; 255
    4be4:	20 e9       	ldi	r18, 0x90	; 144
    4be6:	31 e0       	ldi	r19, 0x01	; 1
    4be8:	dc 01       	movw	r26, r24
    4bea:	2d 93       	st	X+, r18
    4bec:	3c 93       	st	X, r19

00004bee <.LM235>:
    4bee:	ce 01       	movw	r24, r28
    4bf0:	80 5a       	subi	r24, 0xA0	; 160
    4bf2:	9f 4f       	sbci	r25, 0xFF	; 255
    4bf4:	fc 01       	movw	r30, r24
    4bf6:	80 81       	ld	r24, Z
    4bf8:	91 81       	ldd	r25, Z+1	; 0x01

00004bfa <.L1^B23>:
    4bfa:	01 97       	sbiw	r24, 0x01	; 1
    4bfc:	f1 f7       	brne	.-4      	; 0x4bfa <.L1^B23>
    4bfe:	9e 01       	movw	r18, r28
    4c00:	20 5a       	subi	r18, 0xA0	; 160
    4c02:	3f 4f       	sbci	r19, 0xFF	; 255
    4c04:	d9 01       	movw	r26, r18
    4c06:	8d 93       	st	X+, r24
    4c08:	9c 93       	st	X, r25

00004c0a <.LM236>:
	...

00004c0c <.LM237>:
    4c0c:	ce 01       	movw	r24, r28
    4c0e:	82 5a       	subi	r24, 0xA2	; 162
    4c10:	9f 4f       	sbci	r25, 0xFF	; 255
    4c12:	9e 01       	movw	r18, r28
    4c14:	22 5a       	subi	r18, 0xA2	; 162
    4c16:	3f 4f       	sbci	r19, 0xFF	; 255
    4c18:	f9 01       	movw	r30, r18
    4c1a:	20 81       	ld	r18, Z
    4c1c:	31 81       	ldd	r19, Z+1	; 0x01
    4c1e:	21 50       	subi	r18, 0x01	; 1
    4c20:	31 09       	sbc	r19, r1
    4c22:	dc 01       	movw	r26, r24
    4c24:	2d 93       	st	X+, r18
    4c26:	3c 93       	st	X, r19

00004c28 <.L126>:
    4c28:	ce 01       	movw	r24, r28
    4c2a:	82 5a       	subi	r24, 0xA2	; 162
    4c2c:	9f 4f       	sbci	r25, 0xFF	; 255
    4c2e:	fc 01       	movw	r30, r24
    4c30:	80 81       	ld	r24, Z
    4c32:	91 81       	ldd	r25, Z+1	; 0x01
    4c34:	89 2b       	or	r24, r25
    4c36:	99 f6       	brne	.-90     	; 0x4bde <.L127>

00004c38 <.LM239>:
    4c38:	39 c0       	rjmp	.+114    	; 0x4cac <.L128>

00004c3a <.L156>:
    4c3a:	8e 01       	movw	r16, r28
    4c3c:	02 5a       	subi	r16, 0xA2	; 162
    4c3e:	1f 4f       	sbci	r17, 0xFF	; 255
    4c40:	ce 01       	movw	r24, r28
    4c42:	86 5a       	subi	r24, 0xA6	; 166
    4c44:	9f 4f       	sbci	r25, 0xFF	; 255
    4c46:	dc 01       	movw	r26, r24
    4c48:	6d 91       	ld	r22, X+
    4c4a:	7d 91       	ld	r23, X+
    4c4c:	8d 91       	ld	r24, X+
    4c4e:	9c 91       	ld	r25, X
    4c50:	0e 94 b6 28 	call	0x516c	; 0x516c <__fixunssfsi>
    4c54:	c4 51       	subi	r28, 0x14	; 20
    4c56:	df 4f       	sbci	r29, 0xFF	; 255
    4c58:	68 83       	st	Y, r22
    4c5a:	79 83       	std	Y+1, r23	; 0x01
    4c5c:	8a 83       	std	Y+2, r24	; 0x02
    4c5e:	9b 83       	std	Y+3, r25	; 0x03
    4c60:	cc 5e       	subi	r28, 0xEC	; 236
    4c62:	d0 40       	sbci	r29, 0x00	; 0
    4c64:	c4 51       	subi	r28, 0x14	; 20
    4c66:	df 4f       	sbci	r29, 0xFF	; 255
    4c68:	88 81       	ld	r24, Y
    4c6a:	99 81       	ldd	r25, Y+1	; 0x01
    4c6c:	cc 5e       	subi	r28, 0xEC	; 236
    4c6e:	d0 40       	sbci	r29, 0x00	; 0
    4c70:	f8 01       	movw	r30, r16
    4c72:	91 83       	std	Z+1, r25	; 0x01
    4c74:	80 83       	st	Z, r24

00004c76 <.L123>:
    4c76:	ce 01       	movw	r24, r28
    4c78:	8e 59       	subi	r24, 0x9E	; 158
    4c7a:	9f 4f       	sbci	r25, 0xFF	; 255
    4c7c:	9e 01       	movw	r18, r28
    4c7e:	22 5a       	subi	r18, 0xA2	; 162
    4c80:	3f 4f       	sbci	r19, 0xFF	; 255
    4c82:	d9 01       	movw	r26, r18
    4c84:	2d 91       	ld	r18, X+
    4c86:	3c 91       	ld	r19, X
    4c88:	fc 01       	movw	r30, r24
    4c8a:	31 83       	std	Z+1, r19	; 0x01
    4c8c:	20 83       	st	Z, r18

00004c8e <.LM241>:
    4c8e:	ce 01       	movw	r24, r28
    4c90:	8e 59       	subi	r24, 0x9E	; 158
    4c92:	9f 4f       	sbci	r25, 0xFF	; 255
    4c94:	dc 01       	movw	r26, r24
    4c96:	8d 91       	ld	r24, X+
    4c98:	9c 91       	ld	r25, X

00004c9a <.L1^B24>:
    4c9a:	01 97       	sbiw	r24, 0x01	; 1
    4c9c:	f1 f7       	brne	.-4      	; 0x4c9a <.L1^B24>
    4c9e:	9e 01       	movw	r18, r28
    4ca0:	2e 59       	subi	r18, 0x9E	; 158
    4ca2:	3f 4f       	sbci	r19, 0xFF	; 255
    4ca4:	f9 01       	movw	r30, r18
    4ca6:	91 83       	std	Z+1, r25	; 0x01
    4ca8:	80 83       	st	Z, r24

00004caa <.LM242>:
	...

00004cac <.L128>:
    4cac:	0e 94 7e 26 	call	0x4cfc	; 0x4cfc <App_Winner>

00004cb0 <.LM244>:
	...

00004cb2 <.L157>:
    4cb2:	00 00       	nop
    4cb4:	c1 51       	subi	r28, 0x11	; 17
    4cb6:	df 4f       	sbci	r29, 0xFF	; 255
    4cb8:	0f b6       	in	r0, 0x3f	; 63
    4cba:	f8 94       	cli
    4cbc:	de bf       	out	0x3e, r29	; 62
    4cbe:	0f be       	out	0x3f, r0	; 63
    4cc0:	cd bf       	out	0x3d, r28	; 61
    4cc2:	df 91       	pop	r29
    4cc4:	cf 91       	pop	r28
    4cc6:	1f 91       	pop	r17
    4cc8:	0f 91       	pop	r16
    4cca:	08 95       	ret

00004ccc <App_Reset>:
    4ccc:	cf 93       	push	r28
    4cce:	df 93       	push	r29
    4cd0:	cd b7       	in	r28, 0x3d	; 61
    4cd2:	de b7       	in	r29, 0x3e	; 62

00004cd4 <.LM247>:
    4cd4:	10 92 3b 01 	sts	0x013B, r1	; 0x80013b <D>

00004cd8 <.LM248>:
    4cd8:	80 91 3b 01 	lds	r24, 0x013B	; 0x80013b <D>
    4cdc:	80 93 3a 01 	sts	0x013A, r24	; 0x80013a <C>

00004ce0 <.LM249>:
    4ce0:	80 91 3a 01 	lds	r24, 0x013A	; 0x80013a <C>
    4ce4:	80 93 39 01 	sts	0x0139, r24	; 0x800139 <B>

00004ce8 <.LM250>:
    4ce8:	80 91 39 01 	lds	r24, 0x0139	; 0x800139 <B>
    4cec:	80 93 38 01 	sts	0x0138, r24	; 0x800138 <A>

00004cf0 <.LM251>:
    4cf0:	0e 94 bf 1f 	call	0x3f7e	; 0x3f7e <APP_Selector>

00004cf4 <.LM252>:
    4cf4:	00 00       	nop
    4cf6:	df 91       	pop	r29
    4cf8:	cf 91       	pop	r28
    4cfa:	08 95       	ret

00004cfc <App_Winner>:
    4cfc:	cf 93       	push	r28
    4cfe:	df 93       	push	r29
    4d00:	cd b7       	in	r28, 0x3d	; 61
    4d02:	de b7       	in	r29, 0x3e	; 62
    4d04:	c4 54       	subi	r28, 0x44	; 68
    4d06:	d1 09       	sbc	r29, r1
    4d08:	0f b6       	in	r0, 0x3f	; 63
    4d0a:	f8 94       	cli
    4d0c:	de bf       	out	0x3e, r29	; 62
    4d0e:	0f be       	out	0x3f, r0	; 63
    4d10:	cd bf       	out	0x3d, r28	; 61

00004d12 <.LM254>:
    4d12:	90 91 38 01 	lds	r25, 0x0138	; 0x800138 <A>
    4d16:	80 91 39 01 	lds	r24, 0x0139	; 0x800139 <B>

00004d1a <.LM255>:
    4d1a:	89 17       	cp	r24, r25
    4d1c:	d8 f4       	brcc	.+54     	; 0x4d54 <.L160>

00004d1e <.LM256>:
    4d1e:	90 91 38 01 	lds	r25, 0x0138	; 0x800138 <A>
    4d22:	80 91 3a 01 	lds	r24, 0x013A	; 0x80013a <C>

00004d26 <.LM257>:
    4d26:	89 17       	cp	r24, r25
    4d28:	a8 f4       	brcc	.+42     	; 0x4d54 <.L160>

00004d2a <.LM258>:
    4d2a:	90 91 38 01 	lds	r25, 0x0138	; 0x800138 <A>
    4d2e:	80 91 3b 01 	lds	r24, 0x013B	; 0x80013b <D>

00004d32 <.LM259>:
    4d32:	89 17       	cp	r24, r25
    4d34:	78 f4       	brcc	.+30     	; 0x4d54 <.L160>

00004d36 <.LM260>:
    4d36:	0e 94 55 1b 	call	0x36aa	; 0x36aa <LCD_clearScreen>

00004d3a <.LM261>:
    4d3a:	87 ee       	ldi	r24, 0xE7	; 231
    4d3c:	90 e0       	ldi	r25, 0x00	; 0
    4d3e:	0e 94 b6 1a 	call	0x356c	; 0x356c <LCD_displayString>

00004d42 <.LM262>:
    4d42:	60 e0       	ldi	r22, 0x00	; 0
    4d44:	81 e0       	ldi	r24, 0x01	; 1
    4d46:	0e 94 05 1b 	call	0x360a	; 0x360a <LCD_moveCursor>

00004d4a <.LM263>:
    4d4a:	87 ef       	ldi	r24, 0xF7	; 247
    4d4c:	90 e0       	ldi	r25, 0x00	; 0
    4d4e:	0e 94 b6 1a 	call	0x356c	; 0x356c <LCD_displayString>
    4d52:	50 c0       	rjmp	.+160    	; 0x4df4 <.L161>

00004d54 <.L160>:
    4d54:	90 91 39 01 	lds	r25, 0x0139	; 0x800139 <B>
    4d58:	80 91 38 01 	lds	r24, 0x0138	; 0x800138 <A>

00004d5c <.LM265>:
    4d5c:	89 17       	cp	r24, r25
    4d5e:	d8 f4       	brcc	.+54     	; 0x4d96 <.L162>

00004d60 <.LM266>:
    4d60:	90 91 39 01 	lds	r25, 0x0139	; 0x800139 <B>
    4d64:	80 91 3a 01 	lds	r24, 0x013A	; 0x80013a <C>

00004d68 <.LM267>:
    4d68:	89 17       	cp	r24, r25
    4d6a:	a8 f4       	brcc	.+42     	; 0x4d96 <.L162>

00004d6c <.LM268>:
    4d6c:	90 91 39 01 	lds	r25, 0x0139	; 0x800139 <B>
    4d70:	80 91 3b 01 	lds	r24, 0x013B	; 0x80013b <D>

00004d74 <.LM269>:
    4d74:	89 17       	cp	r24, r25
    4d76:	78 f4       	brcc	.+30     	; 0x4d96 <.L162>

00004d78 <.LM270>:
    4d78:	0e 94 55 1b 	call	0x36aa	; 0x36aa <LCD_clearScreen>

00004d7c <.LM271>:
    4d7c:	88 e0       	ldi	r24, 0x08	; 8
    4d7e:	91 e0       	ldi	r25, 0x01	; 1
    4d80:	0e 94 b6 1a 	call	0x356c	; 0x356c <LCD_displayString>

00004d84 <.LM272>:
    4d84:	60 e0       	ldi	r22, 0x00	; 0
    4d86:	81 e0       	ldi	r24, 0x01	; 1
    4d88:	0e 94 05 1b 	call	0x360a	; 0x360a <LCD_moveCursor>

00004d8c <.LM273>:
    4d8c:	87 ef       	ldi	r24, 0xF7	; 247
    4d8e:	90 e0       	ldi	r25, 0x00	; 0
    4d90:	0e 94 b6 1a 	call	0x356c	; 0x356c <LCD_displayString>
    4d94:	2f c0       	rjmp	.+94     	; 0x4df4 <.L161>

00004d96 <.L162>:
    4d96:	90 91 3a 01 	lds	r25, 0x013A	; 0x80013a <C>
    4d9a:	80 91 38 01 	lds	r24, 0x0138	; 0x800138 <A>

00004d9e <.LM275>:
    4d9e:	89 17       	cp	r24, r25
    4da0:	d8 f4       	brcc	.+54     	; 0x4dd8 <.L163>

00004da2 <.LM276>:
    4da2:	90 91 3a 01 	lds	r25, 0x013A	; 0x80013a <C>
    4da6:	80 91 39 01 	lds	r24, 0x0139	; 0x800139 <B>

00004daa <.LM277>:
    4daa:	89 17       	cp	r24, r25
    4dac:	a8 f4       	brcc	.+42     	; 0x4dd8 <.L163>

00004dae <.LM278>:
    4dae:	90 91 3a 01 	lds	r25, 0x013A	; 0x80013a <C>
    4db2:	80 91 3b 01 	lds	r24, 0x013B	; 0x80013b <D>

00004db6 <.LM279>:
    4db6:	89 17       	cp	r24, r25
    4db8:	78 f4       	brcc	.+30     	; 0x4dd8 <.L163>

00004dba <.LM280>:
    4dba:	0e 94 55 1b 	call	0x36aa	; 0x36aa <LCD_clearScreen>

00004dbe <.LM281>:
    4dbe:	88 e1       	ldi	r24, 0x18	; 24
    4dc0:	91 e0       	ldi	r25, 0x01	; 1
    4dc2:	0e 94 b6 1a 	call	0x356c	; 0x356c <LCD_displayString>

00004dc6 <.LM282>:
    4dc6:	60 e0       	ldi	r22, 0x00	; 0
    4dc8:	81 e0       	ldi	r24, 0x01	; 1
    4dca:	0e 94 05 1b 	call	0x360a	; 0x360a <LCD_moveCursor>

00004dce <.LM283>:
    4dce:	87 ef       	ldi	r24, 0xF7	; 247
    4dd0:	90 e0       	ldi	r25, 0x00	; 0
    4dd2:	0e 94 b6 1a 	call	0x356c	; 0x356c <LCD_displayString>
    4dd6:	0e c0       	rjmp	.+28     	; 0x4df4 <.L161>

00004dd8 <.L163>:
    4dd8:	0e 94 55 1b 	call	0x36aa	; 0x36aa <LCD_clearScreen>

00004ddc <.LM285>:
    4ddc:	88 e2       	ldi	r24, 0x28	; 40
    4dde:	91 e0       	ldi	r25, 0x01	; 1
    4de0:	0e 94 b6 1a 	call	0x356c	; 0x356c <LCD_displayString>

00004de4 <.LM286>:
    4de4:	60 e0       	ldi	r22, 0x00	; 0
    4de6:	81 e0       	ldi	r24, 0x01	; 1
    4de8:	0e 94 05 1b 	call	0x360a	; 0x360a <LCD_moveCursor>

00004dec <.LM287>:
    4dec:	87 ef       	ldi	r24, 0xF7	; 247
    4dee:	90 e0       	ldi	r25, 0x00	; 0
    4df0:	0e 94 b6 1a 	call	0x356c	; 0x356c <LCD_displayString>

00004df4 <.L161>:
    4df4:	0e 94 3a 03 	call	0x674	; 0x674 <GRN_LED_on>
    4df8:	80 e0       	ldi	r24, 0x00	; 0
    4dfa:	90 e8       	ldi	r25, 0x80	; 128
    4dfc:	ab e3       	ldi	r26, 0x3B	; 59
    4dfe:	b5 e4       	ldi	r27, 0x45	; 69
    4e00:	8f 87       	std	Y+15, r24	; 0x0f
    4e02:	98 8b       	std	Y+16, r25	; 0x10
    4e04:	a9 8b       	std	Y+17, r26	; 0x11
    4e06:	ba 8b       	std	Y+18, r27	; 0x12

00004e08 <.LM289>:
    4e08:	20 e0       	ldi	r18, 0x00	; 0
    4e0a:	30 e0       	ldi	r19, 0x00	; 0
    4e0c:	4a e7       	ldi	r20, 0x7A	; 122
    4e0e:	55 e4       	ldi	r21, 0x45	; 69
    4e10:	6f 85       	ldd	r22, Y+15	; 0x0f
    4e12:	78 89       	ldd	r23, Y+16	; 0x10
    4e14:	89 89       	ldd	r24, Y+17	; 0x11
    4e16:	9a 89       	ldd	r25, Y+18	; 0x12
    4e18:	0e 94 5f 29 	call	0x52be	; 0x52be <__mulsf3>
    4e1c:	6d a3       	std	Y+37, r22	; 0x25
    4e1e:	7e a3       	std	Y+38, r23	; 0x26
    4e20:	8f a3       	std	Y+39, r24	; 0x27
    4e22:	98 a7       	std	Y+40, r25	; 0x28
    4e24:	8d a1       	ldd	r24, Y+37	; 0x25
    4e26:	9e a1       	ldd	r25, Y+38	; 0x26
    4e28:	af a1       	ldd	r26, Y+39	; 0x27
    4e2a:	b8 a5       	ldd	r27, Y+40	; 0x28
    4e2c:	8b 8b       	std	Y+19, r24	; 0x13
    4e2e:	9c 8b       	std	Y+20, r25	; 0x14
    4e30:	ad 8b       	std	Y+21, r26	; 0x15
    4e32:	be 8b       	std	Y+22, r27	; 0x16

00004e34 <.LM290>:
    4e34:	20 e0       	ldi	r18, 0x00	; 0
    4e36:	30 e0       	ldi	r19, 0x00	; 0
    4e38:	40 e8       	ldi	r20, 0x80	; 128
    4e3a:	5f e3       	ldi	r21, 0x3F	; 63
    4e3c:	6b 89       	ldd	r22, Y+19	; 0x13
    4e3e:	7c 89       	ldd	r23, Y+20	; 0x14
    4e40:	8d 89       	ldd	r24, Y+21	; 0x15
    4e42:	9e 89       	ldd	r25, Y+22	; 0x16
    4e44:	0e 94 3f 28 	call	0x507e	; 0x507e <__cmpsf2>
    4e48:	88 23       	and	r24, r24
    4e4a:	2c f4       	brge	.+10     	; 0x4e56 <.L184>

00004e4c <.LM291>:
    4e4c:	81 e0       	ldi	r24, 0x01	; 1
    4e4e:	90 e0       	ldi	r25, 0x00	; 0
    4e50:	98 8f       	std	Y+24, r25	; 0x18
    4e52:	8f 8b       	std	Y+23, r24	; 0x17
    4e54:	54 c0       	rjmp	.+168    	; 0x4efe <.L166>

00004e56 <.L184>:
    4e56:	20 e0       	ldi	r18, 0x00	; 0
    4e58:	3f ef       	ldi	r19, 0xFF	; 255
    4e5a:	4f e7       	ldi	r20, 0x7F	; 127
    4e5c:	57 e4       	ldi	r21, 0x47	; 71
    4e5e:	6b 89       	ldd	r22, Y+19	; 0x13
    4e60:	7c 89       	ldd	r23, Y+20	; 0x14
    4e62:	8d 89       	ldd	r24, Y+21	; 0x15
    4e64:	9e 89       	ldd	r25, Y+22	; 0x16
    4e66:	0e 94 5a 29 	call	0x52b4	; 0x52b4 <__gesf2>
    4e6a:	18 16       	cp	r1, r24
    4e6c:	d4 f5       	brge	.+116    	; 0x4ee2 <.L185>

00004e6e <.LM293>:
    4e6e:	20 e0       	ldi	r18, 0x00	; 0
    4e70:	30 e0       	ldi	r19, 0x00	; 0
    4e72:	40 e2       	ldi	r20, 0x20	; 32
    4e74:	51 e4       	ldi	r21, 0x41	; 65
    4e76:	6f 85       	ldd	r22, Y+15	; 0x0f
    4e78:	78 89       	ldd	r23, Y+16	; 0x10
    4e7a:	89 89       	ldd	r24, Y+17	; 0x11
    4e7c:	9a 89       	ldd	r25, Y+18	; 0x12
    4e7e:	0e 94 5f 29 	call	0x52be	; 0x52be <__mulsf3>
    4e82:	69 a7       	std	Y+41, r22	; 0x29
    4e84:	7a a7       	std	Y+42, r23	; 0x2a
    4e86:	8b a7       	std	Y+43, r24	; 0x2b
    4e88:	9c a7       	std	Y+44, r25	; 0x2c
    4e8a:	89 a5       	ldd	r24, Y+41	; 0x29
    4e8c:	9a a5       	ldd	r25, Y+42	; 0x2a
    4e8e:	ab a5       	ldd	r26, Y+43	; 0x2b
    4e90:	bc a5       	ldd	r27, Y+44	; 0x2c
    4e92:	89 a3       	std	Y+33, r24	; 0x21
    4e94:	9a a3       	std	Y+34, r25	; 0x22
    4e96:	ab a3       	std	Y+35, r26	; 0x23
    4e98:	bc a3       	std	Y+36, r27	; 0x24

00004e9a <.LM294>:
    4e9a:	69 a1       	ldd	r22, Y+33	; 0x21
    4e9c:	7a a1       	ldd	r23, Y+34	; 0x22
    4e9e:	8b a1       	ldd	r24, Y+35	; 0x23
    4ea0:	9c a1       	ldd	r25, Y+36	; 0x24
    4ea2:	0e 94 b6 28 	call	0x516c	; 0x516c <__fixunssfsi>
    4ea6:	6d a7       	std	Y+45, r22	; 0x2d
    4ea8:	7e a7       	std	Y+46, r23	; 0x2e
    4eaa:	8f a7       	std	Y+47, r24	; 0x2f
    4eac:	98 ab       	std	Y+48, r25	; 0x30
    4eae:	ad a5       	ldd	r26, Y+45	; 0x2d
    4eb0:	be a5       	ldd	r27, Y+46	; 0x2e
    4eb2:	b8 8f       	std	Y+24, r27	; 0x18
    4eb4:	af 8b       	std	Y+23, r26	; 0x17

00004eb6 <.LM295>:
    4eb6:	10 c0       	rjmp	.+32     	; 0x4ed8 <.L169>

00004eb8 <.L170>:
    4eb8:	80 e9       	ldi	r24, 0x90	; 144
    4eba:	91 e0       	ldi	r25, 0x01	; 1
    4ebc:	9a 8f       	std	Y+26, r25	; 0x1a
    4ebe:	89 8f       	std	Y+25, r24	; 0x19

00004ec0 <.LM296>:
    4ec0:	89 8d       	ldd	r24, Y+25	; 0x19
    4ec2:	9a 8d       	ldd	r25, Y+26	; 0x1a

00004ec4 <.L1^B25>:
    4ec4:	01 97       	sbiw	r24, 0x01	; 1
    4ec6:	f1 f7       	brne	.-4      	; 0x4ec4 <.L1^B25>
    4ec8:	9a 8f       	std	Y+26, r25	; 0x1a
    4eca:	89 8f       	std	Y+25, r24	; 0x19

00004ecc <.LM297>:
	...

00004ece <.LM298>:
    4ece:	8f 89       	ldd	r24, Y+23	; 0x17
    4ed0:	98 8d       	ldd	r25, Y+24	; 0x18
    4ed2:	01 97       	sbiw	r24, 0x01	; 1
    4ed4:	98 8f       	std	Y+24, r25	; 0x18
    4ed6:	8f 8b       	std	Y+23, r24	; 0x17

00004ed8 <.L169>:
    4ed8:	8f 89       	ldd	r24, Y+23	; 0x17
    4eda:	98 8d       	ldd	r25, Y+24	; 0x18
    4edc:	89 2b       	or	r24, r25
    4ede:	61 f7       	brne	.-40     	; 0x4eb8 <.L170>

00004ee0 <.LM300>:
    4ee0:	19 c0       	rjmp	.+50     	; 0x4f14 <.L171>

00004ee2 <.L185>:
    4ee2:	6b 89       	ldd	r22, Y+19	; 0x13
    4ee4:	7c 89       	ldd	r23, Y+20	; 0x14
    4ee6:	8d 89       	ldd	r24, Y+21	; 0x15
    4ee8:	9e 89       	ldd	r25, Y+22	; 0x16
    4eea:	0e 94 b6 28 	call	0x516c	; 0x516c <__fixunssfsi>
    4eee:	69 ab       	std	Y+49, r22	; 0x31
    4ef0:	7a ab       	std	Y+50, r23	; 0x32
    4ef2:	8b ab       	std	Y+51, r24	; 0x33
    4ef4:	9c ab       	std	Y+52, r25	; 0x34
    4ef6:	89 a9       	ldd	r24, Y+49	; 0x31
    4ef8:	9a a9       	ldd	r25, Y+50	; 0x32
    4efa:	98 8f       	std	Y+24, r25	; 0x18
    4efc:	8f 8b       	std	Y+23, r24	; 0x17

00004efe <.L166>:
    4efe:	8f 89       	ldd	r24, Y+23	; 0x17
    4f00:	98 8d       	ldd	r25, Y+24	; 0x18
    4f02:	9c 8f       	std	Y+28, r25	; 0x1c
    4f04:	8b 8f       	std	Y+27, r24	; 0x1b

00004f06 <.LM302>:
    4f06:	8b 8d       	ldd	r24, Y+27	; 0x1b
    4f08:	9c 8d       	ldd	r25, Y+28	; 0x1c

00004f0a <.L1^B26>:
    4f0a:	01 97       	sbiw	r24, 0x01	; 1
    4f0c:	f1 f7       	brne	.-4      	; 0x4f0a <.L1^B26>
    4f0e:	9c 8f       	std	Y+28, r25	; 0x1c
    4f10:	8b 8f       	std	Y+27, r24	; 0x1b

00004f12 <.LM303>:
	...

00004f14 <.L171>:
    4f14:	0e 94 47 03 	call	0x68e	; 0x68e <GRN_LED_off>

00004f18 <.LM305>:
    4f18:	0e 94 55 1b 	call	0x36aa	; 0x36aa <LCD_clearScreen>

00004f1c <.LM306>:
    4f1c:	8e eb       	ldi	r24, 0xBE	; 190
    4f1e:	90 e0       	ldi	r25, 0x00	; 0
    4f20:	0e 94 b6 1a 	call	0x356c	; 0x356c <LCD_displayString>
    4f24:	80 e0       	ldi	r24, 0x00	; 0
    4f26:	90 e8       	ldi	r25, 0x80	; 128
    4f28:	ab e3       	ldi	r26, 0x3B	; 59
    4f2a:	b5 e4       	ldi	r27, 0x45	; 69
    4f2c:	89 83       	std	Y+1, r24	; 0x01
    4f2e:	9a 83       	std	Y+2, r25	; 0x02
    4f30:	ab 83       	std	Y+3, r26	; 0x03
    4f32:	bc 83       	std	Y+4, r27	; 0x04

00004f34 <.LM307>:
    4f34:	20 e0       	ldi	r18, 0x00	; 0
    4f36:	30 e0       	ldi	r19, 0x00	; 0
    4f38:	4a e7       	ldi	r20, 0x7A	; 122
    4f3a:	55 e4       	ldi	r21, 0x45	; 69
    4f3c:	69 81       	ldd	r22, Y+1	; 0x01
    4f3e:	7a 81       	ldd	r23, Y+2	; 0x02
    4f40:	8b 81       	ldd	r24, Y+3	; 0x03
    4f42:	9c 81       	ldd	r25, Y+4	; 0x04
    4f44:	0e 94 5f 29 	call	0x52be	; 0x52be <__mulsf3>
    4f48:	6d ab       	std	Y+53, r22	; 0x35
    4f4a:	7e ab       	std	Y+54, r23	; 0x36
    4f4c:	8f ab       	std	Y+55, r24	; 0x37
    4f4e:	98 af       	std	Y+56, r25	; 0x38
    4f50:	8d a9       	ldd	r24, Y+53	; 0x35
    4f52:	9e a9       	ldd	r25, Y+54	; 0x36
    4f54:	af a9       	ldd	r26, Y+55	; 0x37
    4f56:	b8 ad       	ldd	r27, Y+56	; 0x38
    4f58:	8d 83       	std	Y+5, r24	; 0x05
    4f5a:	9e 83       	std	Y+6, r25	; 0x06
    4f5c:	af 83       	std	Y+7, r26	; 0x07
    4f5e:	b8 87       	std	Y+8, r27	; 0x08

00004f60 <.LM308>:
    4f60:	20 e0       	ldi	r18, 0x00	; 0
    4f62:	30 e0       	ldi	r19, 0x00	; 0
    4f64:	40 e8       	ldi	r20, 0x80	; 128
    4f66:	5f e3       	ldi	r21, 0x3F	; 63
    4f68:	6d 81       	ldd	r22, Y+5	; 0x05
    4f6a:	7e 81       	ldd	r23, Y+6	; 0x06
    4f6c:	8f 81       	ldd	r24, Y+7	; 0x07
    4f6e:	98 85       	ldd	r25, Y+8	; 0x08
    4f70:	0e 94 3f 28 	call	0x507e	; 0x507e <__cmpsf2>
    4f74:	88 23       	and	r24, r24
    4f76:	2c f4       	brge	.+10     	; 0x4f82 <.L186>

00004f78 <.LM309>:
    4f78:	81 e0       	ldi	r24, 0x01	; 1
    4f7a:	90 e0       	ldi	r25, 0x00	; 0
    4f7c:	9a 87       	std	Y+10, r25	; 0x0a
    4f7e:	89 87       	std	Y+9, r24	; 0x09
    4f80:	5b c0       	rjmp	.+182    	; 0x5038 <.L174>

00004f82 <.L186>:
    4f82:	20 e0       	ldi	r18, 0x00	; 0
    4f84:	3f ef       	ldi	r19, 0xFF	; 255
    4f86:	4f e7       	ldi	r20, 0x7F	; 127
    4f88:	57 e4       	ldi	r21, 0x47	; 71
    4f8a:	6d 81       	ldd	r22, Y+5	; 0x05
    4f8c:	7e 81       	ldd	r23, Y+6	; 0x06
    4f8e:	8f 81       	ldd	r24, Y+7	; 0x07
    4f90:	98 85       	ldd	r25, Y+8	; 0x08
    4f92:	0e 94 5a 29 	call	0x52b4	; 0x52b4 <__gesf2>
    4f96:	18 16       	cp	r1, r24
    4f98:	0c f0       	brlt	.+2      	; 0x4f9c <.LM311>

00004f9a <L0^A>:
    4f9a:	3c c0       	rjmp	.+120    	; 0x5014 <.L187>

00004f9c <.LM311>:
    4f9c:	20 e0       	ldi	r18, 0x00	; 0
    4f9e:	30 e0       	ldi	r19, 0x00	; 0
    4fa0:	40 e2       	ldi	r20, 0x20	; 32
    4fa2:	51 e4       	ldi	r21, 0x41	; 65
    4fa4:	69 81       	ldd	r22, Y+1	; 0x01
    4fa6:	7a 81       	ldd	r23, Y+2	; 0x02
    4fa8:	8b 81       	ldd	r24, Y+3	; 0x03
    4faa:	9c 81       	ldd	r25, Y+4	; 0x04
    4fac:	0e 94 5f 29 	call	0x52be	; 0x52be <__mulsf3>
    4fb0:	69 af       	std	Y+57, r22	; 0x39
    4fb2:	7a af       	std	Y+58, r23	; 0x3a
    4fb4:	8b af       	std	Y+59, r24	; 0x3b
    4fb6:	9c af       	std	Y+60, r25	; 0x3c
    4fb8:	89 ad       	ldd	r24, Y+57	; 0x39
    4fba:	9a ad       	ldd	r25, Y+58	; 0x3a
    4fbc:	ab ad       	ldd	r26, Y+59	; 0x3b
    4fbe:	bc ad       	ldd	r27, Y+60	; 0x3c
    4fc0:	8d 8f       	std	Y+29, r24	; 0x1d
    4fc2:	9e 8f       	std	Y+30, r25	; 0x1e
    4fc4:	af 8f       	std	Y+31, r26	; 0x1f
    4fc6:	b8 a3       	std	Y+32, r27	; 0x20

00004fc8 <.LM312>:
    4fc8:	6d 8d       	ldd	r22, Y+29	; 0x1d
    4fca:	7e 8d       	ldd	r23, Y+30	; 0x1e
    4fcc:	8f 8d       	ldd	r24, Y+31	; 0x1f
    4fce:	98 a1       	ldd	r25, Y+32	; 0x20
    4fd0:	0e 94 b6 28 	call	0x516c	; 0x516c <__fixunssfsi>
    4fd4:	21 96       	adiw	r28, 0x01	; 1
    4fd6:	6c af       	std	Y+60, r22	; 0x3c
    4fd8:	7d af       	std	Y+61, r23	; 0x3d
    4fda:	8e af       	std	Y+62, r24	; 0x3e
    4fdc:	9f af       	std	Y+63, r25	; 0x3f
    4fde:	21 97       	sbiw	r28, 0x01	; 1
    4fe0:	ad ad       	ldd	r26, Y+61	; 0x3d
    4fe2:	be ad       	ldd	r27, Y+62	; 0x3e
    4fe4:	ba 87       	std	Y+10, r27	; 0x0a
    4fe6:	a9 87       	std	Y+9, r26	; 0x09

00004fe8 <.LM313>:
    4fe8:	10 c0       	rjmp	.+32     	; 0x500a <.L177>

00004fea <.L178>:
    4fea:	80 e9       	ldi	r24, 0x90	; 144
    4fec:	91 e0       	ldi	r25, 0x01	; 1
    4fee:	9c 87       	std	Y+12, r25	; 0x0c
    4ff0:	8b 87       	std	Y+11, r24	; 0x0b

00004ff2 <.LM314>:
    4ff2:	8b 85       	ldd	r24, Y+11	; 0x0b
    4ff4:	9c 85       	ldd	r25, Y+12	; 0x0c

00004ff6 <.L1^B27>:
    4ff6:	01 97       	sbiw	r24, 0x01	; 1
    4ff8:	f1 f7       	brne	.-4      	; 0x4ff6 <.L1^B27>
    4ffa:	9c 87       	std	Y+12, r25	; 0x0c
    4ffc:	8b 87       	std	Y+11, r24	; 0x0b

00004ffe <.LM315>:
	...

00005000 <.LM316>:
    5000:	89 85       	ldd	r24, Y+9	; 0x09
    5002:	9a 85       	ldd	r25, Y+10	; 0x0a
    5004:	01 97       	sbiw	r24, 0x01	; 1
    5006:	9a 87       	std	Y+10, r25	; 0x0a
    5008:	89 87       	std	Y+9, r24	; 0x09

0000500a <.L177>:
    500a:	89 85       	ldd	r24, Y+9	; 0x09
    500c:	9a 85       	ldd	r25, Y+10	; 0x0a
    500e:	89 2b       	or	r24, r25
    5010:	61 f7       	brne	.-40     	; 0x4fea <.L178>

00005012 <.LM318>:
    5012:	1d c0       	rjmp	.+58     	; 0x504e <.L179>

00005014 <.L187>:
    5014:	6d 81       	ldd	r22, Y+5	; 0x05
    5016:	7e 81       	ldd	r23, Y+6	; 0x06
    5018:	8f 81       	ldd	r24, Y+7	; 0x07
    501a:	98 85       	ldd	r25, Y+8	; 0x08
    501c:	0e 94 b6 28 	call	0x516c	; 0x516c <__fixunssfsi>
    5020:	25 96       	adiw	r28, 0x05	; 5
    5022:	6c af       	std	Y+60, r22	; 0x3c
    5024:	7d af       	std	Y+61, r23	; 0x3d
    5026:	8e af       	std	Y+62, r24	; 0x3e
    5028:	9f af       	std	Y+63, r25	; 0x3f
    502a:	25 97       	sbiw	r28, 0x05	; 5
    502c:	23 96       	adiw	r28, 0x03	; 3
    502e:	8e ad       	ldd	r24, Y+62	; 0x3e
    5030:	9f ad       	ldd	r25, Y+63	; 0x3f
    5032:	23 97       	sbiw	r28, 0x03	; 3
    5034:	9a 87       	std	Y+10, r25	; 0x0a
    5036:	89 87       	std	Y+9, r24	; 0x09

00005038 <.L174>:
    5038:	89 85       	ldd	r24, Y+9	; 0x09
    503a:	9a 85       	ldd	r25, Y+10	; 0x0a
    503c:	9e 87       	std	Y+14, r25	; 0x0e
    503e:	8d 87       	std	Y+13, r24	; 0x0d

00005040 <.LM320>:
    5040:	8d 85       	ldd	r24, Y+13	; 0x0d
    5042:	9e 85       	ldd	r25, Y+14	; 0x0e

00005044 <.L1^B28>:
    5044:	01 97       	sbiw	r24, 0x01	; 1
    5046:	f1 f7       	brne	.-4      	; 0x5044 <.L1^B28>
    5048:	9e 87       	std	Y+14, r25	; 0x0e
    504a:	8d 87       	std	Y+13, r24	; 0x0d

0000504c <.LM321>:
	...

0000504e <.L179>:
    504e:	0e 94 66 26 	call	0x4ccc	; 0x4ccc <App_Reset>

00005052 <.LM323>:
    5052:	00 00       	nop
    5054:	cc 5b       	subi	r28, 0xBC	; 188
    5056:	df 4f       	sbci	r29, 0xFF	; 255
    5058:	0f b6       	in	r0, 0x3f	; 63
    505a:	f8 94       	cli
    505c:	de bf       	out	0x3e, r29	; 62
    505e:	0f be       	out	0x3f, r0	; 63
    5060:	cd bf       	out	0x3d, r28	; 61
    5062:	df 91       	pop	r29
    5064:	cf 91       	pop	r28
    5066:	08 95       	ret

00005068 <main>:
    5068:	cf 93       	push	r28
    506a:	df 93       	push	r29
    506c:	cd b7       	in	r28, 0x3d	; 61
    506e:	de b7       	in	r29, 0x3e	; 62

00005070 <.LM1>:
    5070:	0e 94 c8 1b 	call	0x3790	; 0x3790 <APP_voidInit>

00005074 <.LM2>:
    5074:	0e 94 d2 1b 	call	0x37a4	; 0x37a4 <APP_WelcomeScreen>

00005078 <.L2>:
    5078:	0e 94 fd 1f 	call	0x3ffa	; 0x3ffa <INCREMENT>
    507c:	fd cf       	rjmp	.-6      	; 0x5078 <.L2>

0000507e <__cmpsf2>:
    507e:	0e 94 e5 28 	call	0x51ca	; 0x51ca <__fp_cmp>
    5082:	08 f4       	brcc	.+2      	; 0x5086 <.L1^B1>
    5084:	81 e0       	ldi	r24, 0x01	; 1

00005086 <.L1^B1>:
    5086:	08 95       	ret

00005088 <__divsf3>:
    5088:	0e 94 58 28 	call	0x50b0	; 0x50b0 <__divsf3x>
    508c:	0c 94 20 29 	jmp	0x5240	; 0x5240 <__fp_round>

00005090 <.L^B1>:
    5090:	0e 94 19 29 	call	0x5232	; 0x5232 <__fp_pscB>
    5094:	58 f0       	brcs	.+22     	; 0x50ac <.L_nan>
    5096:	0e 94 12 29 	call	0x5224	; 0x5224 <__fp_pscA>
    509a:	40 f0       	brcs	.+16     	; 0x50ac <.L_nan>
    509c:	29 f4       	brne	.+10     	; 0x50a8 <.L_zr>
    509e:	5f 3f       	cpi	r21, 0xFF	; 255
    50a0:	29 f0       	breq	.+10     	; 0x50ac <.L_nan>

000050a2 <.L_inf>:
    50a2:	0c 94 09 29 	jmp	0x5212	; 0x5212 <__fp_inf>

000050a6 <.L1^B1>:
    50a6:	51 11       	cpse	r21, r1

000050a8 <.L_zr>:
    50a8:	0c 94 54 29 	jmp	0x52a8	; 0x52a8 <__fp_szero>

000050ac <.L_nan>:
    50ac:	0c 94 0f 29 	jmp	0x521e	; 0x521e <__fp_nan>

000050b0 <__divsf3x>:
    50b0:	0e 94 31 29 	call	0x5262	; 0x5262 <__fp_split3>
    50b4:	68 f3       	brcs	.-38     	; 0x5090 <.L^B1>

000050b6 <__divsf3_pse>:
    50b6:	99 23       	and	r25, r25
    50b8:	b1 f3       	breq	.-20     	; 0x50a6 <.L1^B1>
    50ba:	55 23       	and	r21, r21
    50bc:	91 f3       	breq	.-28     	; 0x50a2 <.L_inf>
    50be:	95 1b       	sub	r25, r21
    50c0:	55 0b       	sbc	r21, r21
    50c2:	bb 27       	eor	r27, r27
    50c4:	aa 27       	eor	r26, r26

000050c6 <.L2^B1>:
    50c6:	62 17       	cp	r22, r18
    50c8:	73 07       	cpc	r23, r19
    50ca:	84 07       	cpc	r24, r20
    50cc:	38 f0       	brcs	.+14     	; 0x50dc <.L3^B1>
    50ce:	9f 5f       	subi	r25, 0xFF	; 255
    50d0:	5f 4f       	sbci	r21, 0xFF	; 255
    50d2:	22 0f       	add	r18, r18
    50d4:	33 1f       	adc	r19, r19
    50d6:	44 1f       	adc	r20, r20
    50d8:	aa 1f       	adc	r26, r26
    50da:	a9 f3       	breq	.-22     	; 0x50c6 <.L2^B1>

000050dc <.L3^B1>:
    50dc:	35 d0       	rcall	.+106    	; 0x5148 <.L_div>
    50de:	0e 2e       	mov	r0, r30
    50e0:	3a f0       	brmi	.+14     	; 0x50f0 <.L5^B1>

000050e2 <.L4^B1>:
    50e2:	e0 e8       	ldi	r30, 0x80	; 128
    50e4:	32 d0       	rcall	.+100    	; 0x514a <.L_div1>
    50e6:	91 50       	subi	r25, 0x01	; 1
    50e8:	50 40       	sbci	r21, 0x00	; 0
    50ea:	e6 95       	lsr	r30
    50ec:	00 1c       	adc	r0, r0
    50ee:	ca f7       	brpl	.-14     	; 0x50e2 <.L4^B1>

000050f0 <.L5^B1>:
    50f0:	2b d0       	rcall	.+86     	; 0x5148 <.L_div>
    50f2:	fe 2f       	mov	r31, r30
    50f4:	29 d0       	rcall	.+82     	; 0x5148 <.L_div>
    50f6:	66 0f       	add	r22, r22
    50f8:	77 1f       	adc	r23, r23
    50fa:	88 1f       	adc	r24, r24
    50fc:	bb 1f       	adc	r27, r27
    50fe:	26 17       	cp	r18, r22
    5100:	37 07       	cpc	r19, r23
    5102:	48 07       	cpc	r20, r24
    5104:	ab 07       	cpc	r26, r27
    5106:	b0 e8       	ldi	r27, 0x80	; 128
    5108:	09 f0       	breq	.+2      	; 0x510c <.L4^B2>
    510a:	bb 0b       	sbc	r27, r27

0000510c <.L4^B2>:
    510c:	80 2d       	mov	r24, r0
    510e:	bf 01       	movw	r22, r30
    5110:	ff 27       	eor	r31, r31
    5112:	93 58       	subi	r25, 0x83	; 131
    5114:	5f 4f       	sbci	r21, 0xFF	; 255
    5116:	3a f0       	brmi	.+14     	; 0x5126 <.L13^B1>
    5118:	9e 3f       	cpi	r25, 0xFE	; 254
    511a:	51 05       	cpc	r21, r1
    511c:	78 f0       	brcs	.+30     	; 0x513c <.L15^B1>
    511e:	0c 94 09 29 	jmp	0x5212	; 0x5212 <__fp_inf>

00005122 <.L12^B1>:
    5122:	0c 94 54 29 	jmp	0x52a8	; 0x52a8 <__fp_szero>

00005126 <.L13^B1>:
    5126:	5f 3f       	cpi	r21, 0xFF	; 255
    5128:	e4 f3       	brlt	.-8      	; 0x5122 <.L12^B1>
    512a:	98 3e       	cpi	r25, 0xE8	; 232
    512c:	d4 f3       	brlt	.-12     	; 0x5122 <.L12^B1>

0000512e <.L14^B1>:
    512e:	86 95       	lsr	r24
    5130:	77 95       	ror	r23
    5132:	67 95       	ror	r22
    5134:	b7 95       	ror	r27
    5136:	f7 95       	ror	r31
    5138:	9f 5f       	subi	r25, 0xFF	; 255
    513a:	c9 f7       	brne	.-14     	; 0x512e <.L14^B1>

0000513c <.L15^B1>:
    513c:	88 0f       	add	r24, r24
    513e:	91 1d       	adc	r25, r1
    5140:	96 95       	lsr	r25
    5142:	87 95       	ror	r24
    5144:	97 f9       	bld	r25, 7
    5146:	08 95       	ret

00005148 <.L_div>:
    5148:	e1 e0       	ldi	r30, 0x01	; 1

0000514a <.L_div1>:
    514a:	66 0f       	add	r22, r22
    514c:	77 1f       	adc	r23, r23
    514e:	88 1f       	adc	r24, r24
    5150:	bb 1f       	adc	r27, r27
    5152:	62 17       	cp	r22, r18
    5154:	73 07       	cpc	r23, r19
    5156:	84 07       	cpc	r24, r20
    5158:	ba 07       	cpc	r27, r26
    515a:	20 f0       	brcs	.+8      	; 0x5164 <.L2^B2>
    515c:	62 1b       	sub	r22, r18
    515e:	73 0b       	sbc	r23, r19
    5160:	84 0b       	sbc	r24, r20
    5162:	ba 0b       	sbc	r27, r26

00005164 <.L2^B2>:
    5164:	ee 1f       	adc	r30, r30
    5166:	88 f7       	brcc	.-30     	; 0x514a <.L_div1>
    5168:	e0 95       	com	r30
    516a:	08 95       	ret

0000516c <__fixunssfsi>:
    516c:	0e 94 39 29 	call	0x5272	; 0x5272 <__fp_splitA>
    5170:	88 f0       	brcs	.+34     	; 0x5194 <.L_err>
    5172:	9f 57       	subi	r25, 0x7F	; 127
    5174:	98 f0       	brcs	.+38     	; 0x519c <.L_zr>
    5176:	b9 2f       	mov	r27, r25
    5178:	99 27       	eor	r25, r25
    517a:	b7 51       	subi	r27, 0x17	; 23
    517c:	b0 f0       	brcs	.+44     	; 0x51aa <.L4^B1>
    517e:	e1 f0       	breq	.+56     	; 0x51b8 <.L_sign>

00005180 <.L1^B1>:
    5180:	66 0f       	add	r22, r22
    5182:	77 1f       	adc	r23, r23
    5184:	88 1f       	adc	r24, r24
    5186:	99 1f       	adc	r25, r25
    5188:	1a f0       	brmi	.+6      	; 0x5190 <.L2^B1>
    518a:	ba 95       	dec	r27
    518c:	c9 f7       	brne	.-14     	; 0x5180 <.L1^B1>
    518e:	14 c0       	rjmp	.+40     	; 0x51b8 <.L_sign>

00005190 <.L2^B1>:
    5190:	b1 30       	cpi	r27, 0x01	; 1
    5192:	91 f0       	breq	.+36     	; 0x51b8 <.L_sign>

00005194 <.L_err>:
    5194:	0e 94 53 29 	call	0x52a6	; 0x52a6 <__fp_zero>
    5198:	b1 e0       	ldi	r27, 0x01	; 1
    519a:	08 95       	ret

0000519c <.L_zr>:
    519c:	0c 94 53 29 	jmp	0x52a6	; 0x52a6 <__fp_zero>

000051a0 <.L3^B1>:
    51a0:	67 2f       	mov	r22, r23
    51a2:	78 2f       	mov	r23, r24
    51a4:	88 27       	eor	r24, r24
    51a6:	b8 5f       	subi	r27, 0xF8	; 248
    51a8:	39 f0       	breq	.+14     	; 0x51b8 <.L_sign>

000051aa <.L4^B1>:
    51aa:	b9 3f       	cpi	r27, 0xF9	; 249
    51ac:	cc f3       	brlt	.-14     	; 0x51a0 <.L3^B1>

000051ae <.L5^B1>:
    51ae:	86 95       	lsr	r24
    51b0:	77 95       	ror	r23
    51b2:	67 95       	ror	r22
    51b4:	b3 95       	inc	r27
    51b6:	d9 f7       	brne	.-10     	; 0x51ae <.L5^B1>

000051b8 <.L_sign>:
    51b8:	3e f4       	brtc	.+14     	; 0x51c8 <.L6^B1>
    51ba:	90 95       	com	r25
    51bc:	80 95       	com	r24
    51be:	70 95       	com	r23
    51c0:	61 95       	neg	r22
    51c2:	7f 4f       	sbci	r23, 0xFF	; 255
    51c4:	8f 4f       	sbci	r24, 0xFF	; 255
    51c6:	9f 4f       	sbci	r25, 0xFF	; 255

000051c8 <.L6^B1>:
    51c8:	08 95       	ret

000051ca <__fp_cmp>:
    51ca:	99 0f       	add	r25, r25
    51cc:	00 08       	sbc	r0, r0
    51ce:	55 0f       	add	r21, r21
    51d0:	aa 0b       	sbc	r26, r26
    51d2:	e0 e8       	ldi	r30, 0x80	; 128
    51d4:	fe ef       	ldi	r31, 0xFE	; 254
    51d6:	16 16       	cp	r1, r22
    51d8:	17 06       	cpc	r1, r23
    51da:	e8 07       	cpc	r30, r24
    51dc:	f9 07       	cpc	r31, r25
    51de:	c0 f0       	brcs	.+48     	; 0x5210 <.L9^B1>
    51e0:	12 16       	cp	r1, r18
    51e2:	13 06       	cpc	r1, r19
    51e4:	e4 07       	cpc	r30, r20
    51e6:	f5 07       	cpc	r31, r21
    51e8:	98 f0       	brcs	.+38     	; 0x5210 <.L9^B1>
    51ea:	62 1b       	sub	r22, r18
    51ec:	73 0b       	sbc	r23, r19
    51ee:	84 0b       	sbc	r24, r20
    51f0:	95 0b       	sbc	r25, r21
    51f2:	39 f4       	brne	.+14     	; 0x5202 <.L1^B1>
    51f4:	0a 26       	eor	r0, r26
    51f6:	61 f0       	breq	.+24     	; 0x5210 <.L9^B1>
    51f8:	23 2b       	or	r18, r19
    51fa:	24 2b       	or	r18, r20
    51fc:	25 2b       	or	r18, r21
    51fe:	21 f4       	brne	.+8      	; 0x5208 <.L2^B1>
    5200:	08 95       	ret

00005202 <.L1^B1>:
    5202:	0a 26       	eor	r0, r26
    5204:	09 f4       	brne	.+2      	; 0x5208 <.L2^B1>
    5206:	a1 40       	sbci	r26, 0x01	; 1

00005208 <.L2^B1>:
    5208:	a6 95       	lsr	r26
    520a:	8f ef       	ldi	r24, 0xFF	; 255
    520c:	81 1d       	adc	r24, r1
    520e:	81 1d       	adc	r24, r1

00005210 <.L9^B1>:
    5210:	08 95       	ret

00005212 <__fp_inf>:
    5212:	97 f9       	bld	r25, 7
    5214:	9f 67       	ori	r25, 0x7F	; 127
    5216:	80 e8       	ldi	r24, 0x80	; 128
    5218:	70 e0       	ldi	r23, 0x00	; 0
    521a:	60 e0       	ldi	r22, 0x00	; 0
    521c:	08 95       	ret

0000521e <__fp_nan>:
    521e:	9f ef       	ldi	r25, 0xFF	; 255
    5220:	80 ec       	ldi	r24, 0xC0	; 192
    5222:	08 95       	ret

00005224 <__fp_pscA>:
    5224:	00 24       	eor	r0, r0
    5226:	0a 94       	dec	r0
    5228:	16 16       	cp	r1, r22
    522a:	17 06       	cpc	r1, r23
    522c:	18 06       	cpc	r1, r24
    522e:	09 06       	cpc	r0, r25
    5230:	08 95       	ret

00005232 <__fp_pscB>:
    5232:	00 24       	eor	r0, r0
    5234:	0a 94       	dec	r0
    5236:	12 16       	cp	r1, r18
    5238:	13 06       	cpc	r1, r19
    523a:	14 06       	cpc	r1, r20
    523c:	05 06       	cpc	r0, r21
    523e:	08 95       	ret

00005240 <__fp_round>:
    5240:	09 2e       	mov	r0, r25
    5242:	03 94       	inc	r0
    5244:	00 0c       	add	r0, r0
    5246:	11 f4       	brne	.+4      	; 0x524c <.L1^B1>
    5248:	88 23       	and	r24, r24
    524a:	52 f0       	brmi	.+20     	; 0x5260 <.L3^B1>

0000524c <.L1^B1>:
    524c:	bb 0f       	add	r27, r27
    524e:	40 f4       	brcc	.+16     	; 0x5260 <.L3^B1>
    5250:	bf 2b       	or	r27, r31
    5252:	11 f4       	brne	.+4      	; 0x5258 <.L2^B1>
    5254:	60 ff       	sbrs	r22, 0
    5256:	04 c0       	rjmp	.+8      	; 0x5260 <.L3^B1>

00005258 <.L2^B1>:
    5258:	6f 5f       	subi	r22, 0xFF	; 255
    525a:	7f 4f       	sbci	r23, 0xFF	; 255
    525c:	8f 4f       	sbci	r24, 0xFF	; 255
    525e:	9f 4f       	sbci	r25, 0xFF	; 255

00005260 <.L3^B1>:
    5260:	08 95       	ret

00005262 <__fp_split3>:
    5262:	57 fd       	sbrc	r21, 7
    5264:	90 58       	subi	r25, 0x80	; 128
    5266:	44 0f       	add	r20, r20
    5268:	55 1f       	adc	r21, r21
    526a:	59 f0       	breq	.+22     	; 0x5282 <.L4^B1>
    526c:	5f 3f       	cpi	r21, 0xFF	; 255
    526e:	71 f0       	breq	.+28     	; 0x528c <.L5^B1>

00005270 <.L1^B1>:
    5270:	47 95       	ror	r20

00005272 <__fp_splitA>:
    5272:	88 0f       	add	r24, r24
    5274:	97 fb       	bst	r25, 7
    5276:	99 1f       	adc	r25, r25
    5278:	61 f0       	breq	.+24     	; 0x5292 <.L6^B1>
    527a:	9f 3f       	cpi	r25, 0xFF	; 255
    527c:	79 f0       	breq	.+30     	; 0x529c <.L7^B1>

0000527e <.L3^B1>:
    527e:	87 95       	ror	r24
    5280:	08 95       	ret

00005282 <.L4^B1>:
    5282:	12 16       	cp	r1, r18
    5284:	13 06       	cpc	r1, r19
    5286:	14 06       	cpc	r1, r20
    5288:	55 1f       	adc	r21, r21
    528a:	f2 cf       	rjmp	.-28     	; 0x5270 <.L1^B1>

0000528c <.L5^B1>:
    528c:	46 95       	lsr	r20
    528e:	f1 df       	rcall	.-30     	; 0x5272 <__fp_splitA>
    5290:	08 c0       	rjmp	.+16     	; 0x52a2 <.L8^B1>

00005292 <.L6^B1>:
    5292:	16 16       	cp	r1, r22
    5294:	17 06       	cpc	r1, r23
    5296:	18 06       	cpc	r1, r24
    5298:	99 1f       	adc	r25, r25
    529a:	f1 cf       	rjmp	.-30     	; 0x527e <.L3^B1>

0000529c <.L7^B1>:
    529c:	86 95       	lsr	r24
    529e:	71 05       	cpc	r23, r1
    52a0:	61 05       	cpc	r22, r1

000052a2 <.L8^B1>:
    52a2:	08 94       	sec
    52a4:	08 95       	ret

000052a6 <__fp_zero>:
    52a6:	e8 94       	clt

000052a8 <__fp_szero>:
    52a8:	bb 27       	eor	r27, r27
    52aa:	66 27       	eor	r22, r22
    52ac:	77 27       	eor	r23, r23
    52ae:	cb 01       	movw	r24, r22
    52b0:	97 f9       	bld	r25, 7
    52b2:	08 95       	ret

000052b4 <__gesf2>:
    52b4:	0e 94 e5 28 	call	0x51ca	; 0x51ca <__fp_cmp>
    52b8:	08 f4       	brcc	.+2      	; 0x52bc <.L1^B1>
    52ba:	8f ef       	ldi	r24, 0xFF	; 255

000052bc <.L1^B1>:
    52bc:	08 95       	ret

000052be <__mulsf3>:
    52be:	0e 94 72 29 	call	0x52e4	; 0x52e4 <__mulsf3x>
    52c2:	0c 94 20 29 	jmp	0x5240	; 0x5240 <__fp_round>

000052c6 <.L^B1>:
    52c6:	0e 94 12 29 	call	0x5224	; 0x5224 <__fp_pscA>
    52ca:	38 f0       	brcs	.+14     	; 0x52da <.L1^B1>
    52cc:	0e 94 19 29 	call	0x5232	; 0x5232 <__fp_pscB>
    52d0:	20 f0       	brcs	.+8      	; 0x52da <.L1^B1>
    52d2:	95 23       	and	r25, r21
    52d4:	11 f0       	breq	.+4      	; 0x52da <.L1^B1>
    52d6:	0c 94 09 29 	jmp	0x5212	; 0x5212 <__fp_inf>

000052da <.L1^B1>:
    52da:	0c 94 0f 29 	jmp	0x521e	; 0x521e <__fp_nan>

000052de <.L2^B1>:
    52de:	11 24       	eor	r1, r1
    52e0:	0c 94 54 29 	jmp	0x52a8	; 0x52a8 <__fp_szero>

000052e4 <__mulsf3x>:
    52e4:	0e 94 31 29 	call	0x5262	; 0x5262 <__fp_split3>
    52e8:	70 f3       	brcs	.-36     	; 0x52c6 <.L^B1>

000052ea <__mulsf3_pse>:
    52ea:	95 9f       	mul	r25, r21
    52ec:	c1 f3       	breq	.-16     	; 0x52de <.L2^B1>
    52ee:	95 0f       	add	r25, r21
    52f0:	50 e0       	ldi	r21, 0x00	; 0
    52f2:	55 1f       	adc	r21, r21
    52f4:	62 9f       	mul	r22, r18
    52f6:	f0 01       	movw	r30, r0
    52f8:	72 9f       	mul	r23, r18
    52fa:	bb 27       	eor	r27, r27
    52fc:	f0 0d       	add	r31, r0
    52fe:	b1 1d       	adc	r27, r1
    5300:	63 9f       	mul	r22, r19
    5302:	aa 27       	eor	r26, r26
    5304:	f0 0d       	add	r31, r0
    5306:	b1 1d       	adc	r27, r1
    5308:	aa 1f       	adc	r26, r26
    530a:	64 9f       	mul	r22, r20
    530c:	66 27       	eor	r22, r22
    530e:	b0 0d       	add	r27, r0
    5310:	a1 1d       	adc	r26, r1
    5312:	66 1f       	adc	r22, r22
    5314:	82 9f       	mul	r24, r18
    5316:	22 27       	eor	r18, r18
    5318:	b0 0d       	add	r27, r0
    531a:	a1 1d       	adc	r26, r1
    531c:	62 1f       	adc	r22, r18
    531e:	73 9f       	mul	r23, r19
    5320:	b0 0d       	add	r27, r0
    5322:	a1 1d       	adc	r26, r1
    5324:	62 1f       	adc	r22, r18
    5326:	83 9f       	mul	r24, r19
    5328:	a0 0d       	add	r26, r0
    532a:	61 1d       	adc	r22, r1
    532c:	22 1f       	adc	r18, r18
    532e:	74 9f       	mul	r23, r20
    5330:	33 27       	eor	r19, r19
    5332:	a0 0d       	add	r26, r0
    5334:	61 1d       	adc	r22, r1
    5336:	23 1f       	adc	r18, r19
    5338:	84 9f       	mul	r24, r20
    533a:	60 0d       	add	r22, r0
    533c:	21 1d       	adc	r18, r1
    533e:	82 2f       	mov	r24, r18
    5340:	76 2f       	mov	r23, r22
    5342:	6a 2f       	mov	r22, r26
    5344:	11 24       	eor	r1, r1
    5346:	9f 57       	subi	r25, 0x7F	; 127
    5348:	50 40       	sbci	r21, 0x00	; 0
    534a:	9a f0       	brmi	.+38     	; 0x5372 <.L13^B1>
    534c:	f1 f0       	breq	.+60     	; 0x538a <.L15^B1>

0000534e <.L10^B1>:
    534e:	88 23       	and	r24, r24
    5350:	4a f0       	brmi	.+18     	; 0x5364 <.L11^B1>
    5352:	ee 0f       	add	r30, r30
    5354:	ff 1f       	adc	r31, r31
    5356:	bb 1f       	adc	r27, r27
    5358:	66 1f       	adc	r22, r22
    535a:	77 1f       	adc	r23, r23
    535c:	88 1f       	adc	r24, r24
    535e:	91 50       	subi	r25, 0x01	; 1
    5360:	50 40       	sbci	r21, 0x00	; 0
    5362:	a9 f7       	brne	.-22     	; 0x534e <.L10^B1>

00005364 <.L11^B1>:
    5364:	9e 3f       	cpi	r25, 0xFE	; 254
    5366:	51 05       	cpc	r21, r1
    5368:	80 f0       	brcs	.+32     	; 0x538a <.L15^B1>
    536a:	0c 94 09 29 	jmp	0x5212	; 0x5212 <__fp_inf>

0000536e <.L12^B1>:
    536e:	0c 94 54 29 	jmp	0x52a8	; 0x52a8 <__fp_szero>

00005372 <.L13^B1>:
    5372:	5f 3f       	cpi	r21, 0xFF	; 255
    5374:	e4 f3       	brlt	.-8      	; 0x536e <.L12^B1>
    5376:	98 3e       	cpi	r25, 0xE8	; 232
    5378:	d4 f3       	brlt	.-12     	; 0x536e <.L12^B1>

0000537a <.L14^B1>:
    537a:	86 95       	lsr	r24
    537c:	77 95       	ror	r23
    537e:	67 95       	ror	r22
    5380:	b7 95       	ror	r27
    5382:	f7 95       	ror	r31
    5384:	e7 95       	ror	r30
    5386:	9f 5f       	subi	r25, 0xFF	; 255
    5388:	c1 f7       	brne	.-16     	; 0x537a <.L14^B1>

0000538a <.L15^B1>:
    538a:	fe 2b       	or	r31, r30
    538c:	88 0f       	add	r24, r24
    538e:	91 1d       	adc	r25, r1
    5390:	96 95       	lsr	r25
    5392:	87 95       	ror	r24
    5394:	97 f9       	bld	r25, 7
    5396:	08 95       	ret

00005398 <itoa>:
    5398:	45 32       	cpi	r20, 0x25	; 37
    539a:	51 05       	cpc	r21, r1
    539c:	20 f4       	brcc	.+8      	; 0x53a6 <.L1^B1>
    539e:	42 30       	cpi	r20, 0x02	; 2
    53a0:	10 f0       	brcs	.+4      	; 0x53a6 <.L1^B1>
    53a2:	0c 94 d7 29 	jmp	0x53ae	; 0x53ae <__itoa_ncheck>

000053a6 <.L1^B1>:
    53a6:	fb 01       	movw	r30, r22
    53a8:	10 82       	st	Z, r1
    53aa:	cb 01       	movw	r24, r22
    53ac:	08 95       	ret

000053ae <__itoa_ncheck>:
    53ae:	bb 27       	eor	r27, r27
    53b0:	4a 30       	cpi	r20, 0x0A	; 10
    53b2:	31 f4       	brne	.+12     	; 0x53c0 <.L1^B1>
    53b4:	99 23       	and	r25, r25
    53b6:	22 f4       	brpl	.+8      	; 0x53c0 <.L1^B1>
    53b8:	bd e2       	ldi	r27, 0x2D	; 45
    53ba:	90 95       	com	r25
    53bc:	81 95       	neg	r24
    53be:	9f 4f       	sbci	r25, 0xFF	; 255

000053c0 <.L1^B1>:
    53c0:	0c 94 e3 29 	jmp	0x53c6	; 0x53c6 <__utoa_common>

000053c4 <__utoa_ncheck>:
    53c4:	bb 27       	eor	r27, r27

000053c6 <__utoa_common>:
    53c6:	fb 01       	movw	r30, r22
    53c8:	55 27       	eor	r21, r21

000053ca <.L1^B1>:
    53ca:	aa 27       	eor	r26, r26

000053cc <.L2^B1>:
    53cc:	88 0f       	add	r24, r24
    53ce:	99 1f       	adc	r25, r25
    53d0:	aa 1f       	adc	r26, r26
    53d2:	a4 17       	cp	r26, r20
    53d4:	10 f0       	brcs	.+4      	; 0x53da <.L3^B1>
    53d6:	a4 1b       	sub	r26, r20
    53d8:	83 95       	inc	r24

000053da <.L3^B1>:
    53da:	50 51       	subi	r21, 0x10	; 16
    53dc:	b9 f7       	brne	.-18     	; 0x53cc <.L2^B1>
    53de:	a0 5d       	subi	r26, 0xD0	; 208
    53e0:	aa 33       	cpi	r26, 0x3A	; 58
    53e2:	08 f0       	brcs	.+2      	; 0x53e6 <.L4^B1>
    53e4:	a9 5d       	subi	r26, 0xD9	; 217

000053e6 <.L4^B1>:
    53e6:	a1 93       	st	Z+, r26
    53e8:	00 97       	sbiw	r24, 0x00	; 0
    53ea:	79 f7       	brne	.-34     	; 0x53ca <.L1^B1>
    53ec:	b1 11       	cpse	r27, r1
    53ee:	b1 93       	st	Z+, r27
    53f0:	11 92       	st	Z+, r1
    53f2:	cb 01       	movw	r24, r22
    53f4:	0c 94 fc 29 	jmp	0x53f8	; 0x53f8 <strrev>

000053f8 <strrev>:
    53f8:	dc 01       	movw	r26, r24
    53fa:	fc 01       	movw	r30, r24

000053fc <.L1^B1>:
    53fc:	67 2f       	mov	r22, r23
    53fe:	71 91       	ld	r23, Z+
    5400:	77 23       	and	r23, r23
    5402:	e1 f7       	brne	.-8      	; 0x53fc <.L1^B1>
    5404:	32 97       	sbiw	r30, 0x02	; 2
    5406:	04 c0       	rjmp	.+8      	; 0x5410 <.L3^B1>

00005408 <.L2^B1>:
    5408:	7c 91       	ld	r23, X
    540a:	6d 93       	st	X+, r22
    540c:	70 83       	st	Z, r23
    540e:	62 91       	ld	r22, -Z

00005410 <.L3^B1>:
    5410:	ae 17       	cp	r26, r30
    5412:	bf 07       	cpc	r27, r31
    5414:	c8 f3       	brcs	.-14     	; 0x5408 <.L2^B1>
    5416:	08 95       	ret

00005418 <_exit>:
    5418:	f8 94       	cli

0000541a <__stop_program>:
    541a:	ff cf       	rjmp	.-2      	; 0x541a <__stop_program>
